
Discarded input sections

 .data          0x0000000000000000        0x0 arch/arm/cpu/armv8/start.o
 .bss           0x0000000000000000        0x0 arch/arm/cpu/armv8/start.o
 .text.timer_read_counter
                0x0000000000000000        0xc arch/arm/cpu/armv8/built-in.o
 .text.usec2ticks
                0x0000000000000000       0x44 arch/arm/cpu/armv8/built-in.o
 .text.timer_get_boot_us
                0x0000000000000000       0x14 arch/arm/cpu/armv8/built-in.o
 .text.set_one_region
                0x0000000000000000       0xd8 arch/arm/cpu/armv8/built-in.o
 .text.dcache_status
                0x0000000000000000       0x34 arch/arm/cpu/armv8/built-in.o
 .text.arch_get_page_table
                0x0000000000000000       0x20 arch/arm/cpu/armv8/built-in.o
 .text.mmu_set_region_dcache_behaviour
                0x0000000000000000       0xa8 arch/arm/cpu/armv8/built-in.o
 .text.mmu_change_region_attr
                0x0000000000000000       0xe8 arch/arm/cpu/armv8/built-in.o
 .text.icache_status
                0x0000000000000000       0x34 arch/arm/cpu/armv8/built-in.o
 .text.enable_caches
                0x0000000000000000       0x14 arch/arm/cpu/armv8/built-in.o
 .text.__asm_switch_ttbr
                0x0000000000000000       0xe0 arch/arm/cpu/armv8/built-in.o
 .text.armv8_switch_to_el1
                0x0000000000000000       0xd0 arch/arm/cpu/armv8/built-in.o
 .text.armv8_el2_to_aarch32
                0x0000000000000000        0x4 arch/arm/cpu/armv8/built-in.o
 .text.smc_call
                0x0000000000000000       0x44 arch/arm/cpu/armv8/built-in.o
 .text.psci_system_reset
                0x0000000000000000       0x20 arch/arm/cpu/armv8/built-in.o
 .text.psci_system_off
                0x0000000000000000       0x20 arch/arm/cpu/armv8/built-in.o
 .text.reset_misc
                0x0000000000000000        0xc arch/arm/cpu/armv8/built-in.o
 .rodata.set_one_region.str1.1
                0x0000000000000000       0x2e arch/arm/cpu/armv8/built-in.o
 .rodata.arch_get_page_table.str1.1
                0x0000000000000000       0x1e arch/arm/cpu/armv8/built-in.o
 .rodata.mmu_set_region_dcache_behaviour.str1.1
                0x0000000000000000       0x20 arch/arm/cpu/armv8/built-in.o
 .eh_frame      0x0000000000000000      0x524 arch/arm/cpu/armv8/built-in.o
 .data          0x0000000000000000        0x0 arch/arm/cpu/armv8/built-in.o
 .bss           0x0000000000000000        0x0 arch/arm/cpu/armv8/built-in.o
 .text.setjmp   0x0000000000000000       0x28 arch/arm/lib/built-in.o
 .text.longjmp  0x0000000000000000       0x40 arch/arm/lib/built-in.o
 .text.board_fdt_fixup
                0x0000000000000000        0x8 arch/arm/lib/built-in.o
 .text.board_quiesce_devices
                0x0000000000000000        0x4 arch/arm/lib/built-in.o
 .text.setup_board_tags
                0x0000000000000000        0x4 arch/arm/lib/built-in.o
 .text.armv7_boot_nonsec_default
                0x0000000000000000        0x8 arch/arm/lib/built-in.o
 .text.dump_stack
                0x0000000000000000       0x3c arch/arm/lib/built-in.o
 .text.enable_caches
                0x0000000000000000        0xc arch/arm/lib/built-in.o
 .text.invalidate_dcache_range
                0x0000000000000000        0x4 arch/arm/lib/built-in.o
 .text.flush_dcache_range
                0x0000000000000000        0x4 arch/arm/lib/built-in.o
 .text.flush_dcache_all
                0x0000000000000000        0xc arch/arm/lib/built-in.o
 .text.check_cache_range
                0x0000000000000000       0x3c arch/arm/lib/built-in.o
 .text.fdt_psci
                0x0000000000000000        0x8 arch/arm/lib/built-in.o
 .rodata.enable_caches.str1.1
                0x0000000000000000       0x1d arch/arm/lib/built-in.o
 .rodata.check_cache_range.str1.1
                0x0000000000000000       0x35 arch/arm/lib/built-in.o
 .eh_frame      0x0000000000000000      0x3f0 arch/arm/lib/built-in.o
 .data          0x0000000000000000        0x0 arch/arm/lib/built-in.o
 .__efi_runtime_rel_start
                0x0000000000000000        0x0 arch/arm/lib/built-in.o
 .__efi_runtime_rel_stop
                0x0000000000000000        0x0 arch/arm/lib/built-in.o
 .__efi_runtime_start
                0x0000000000000000        0x0 arch/arm/lib/built-in.o
 .__efi_runtime_stop
                0x0000000000000000        0x0 arch/arm/lib/built-in.o
 .__end         0x0000000000000000        0x0 arch/arm/lib/built-in.o
 .__secure_end  0x0000000000000000        0x0 arch/arm/lib/built-in.o
 .__secure_stack_end
                0x0000000000000000        0x0 arch/arm/lib/built-in.o
 .__secure_stack_start
                0x0000000000000000        0x0 arch/arm/lib/built-in.o
 .__secure_start
                0x0000000000000000        0x0 arch/arm/lib/built-in.o
 .bss           0x0000000000000000        0x0 arch/arm/lib/built-in.o
 .text.rockchip_set_bootdev
                0x0000000000000000        0xc arch/arm/mach-rockchip/built-in.o
 .text.board_run_recovery_wipe_data
                0x0000000000000000      0x12c arch/arm/mach-rockchip/built-in.o
 .text.soc_clk_dump
                0x0000000000000000        0x8 arch/arm/mach-rockchip/built-in.o
 .text.iomem_show_by_compatible
                0x0000000000000000       0x14 arch/arm/mach-rockchip/built-in.o
 .text.board_mmc_dm_reinit
                0x0000000000000000        0x8 arch/arm/mach-rockchip/built-in.o
 .text.psci_cpu_on
                0x0000000000000000       0x30 arch/arm/mach-rockchip/built-in.o
 .text.sip_smc_set_suspend_mode
                0x0000000000000000       0x30 arch/arm/mach-rockchip/built-in.o
 .text.sip_smc_remotectl_config
                0x0000000000000000       0x30 arch/arm/mach-rockchip/built-in.o
 .text.sip_smc_amp_cfg
                0x0000000000000000       0x4c arch/arm/mach-rockchip/built-in.o
 .text.sip_smc_secure_reg_read
                0x0000000000000000       0x28 arch/arm/mach-rockchip/built-in.o
 .text.sip_smc_secure_reg_write
                0x0000000000000000       0x2c arch/arm/mach-rockchip/built-in.o
 .text.sip_smc_get_sip_version
                0x0000000000000000       0x28 arch/arm/mach-rockchip/built-in.o
 .text.sip_smc_set_sip_version
                0x0000000000000000       0x64 arch/arm/mach-rockchip/built-in.o
 .text.sip_smc_mcu_config
                0x0000000000000000       0x30 arch/arm/mach-rockchip/built-in.o
 .text.get_page_size
                0x0000000000000000       0x38 arch/arm/mach-rockchip/built-in.o
 .text.get_ddr_bw
                0x0000000000000000       0x28 arch/arm/mach-rockchip/built-in.o
 .text.rockchip_setup_ddr_param
                0x0000000000000000       0x40 arch/arm/mach-rockchip/built-in.o
 .text.rockchip_get_cru
                0x0000000000000000       0x30 arch/arm/mach-rockchip/built-in.o
 .text.atags_set_tag
                0x0000000000000000      0x174 arch/arm/mach-rockchip/built-in.o
 .rodata.board_run_recovery_wipe_data.str1.1
                0x0000000000000000       0xce arch/arm/mach-rockchip/built-in.o
 .rodata.sip_smc_set_sip_version.str1.1
                0x0000000000000000       0x2a arch/arm/mach-rockchip/built-in.o
 .rodata.CSWTCH.10
                0x0000000000000000        0xa arch/arm/mach-rockchip/built-in.o
 .eh_frame      0x0000000000000000     0x1348 arch/arm/mach-rockchip/built-in.o
 .data          0x0000000000000000        0x0 arch/arm/mach-rockchip/built-in.o
 .bss           0x0000000000000000        0x0 arch/arm/mach-rockchip/built-in.o
 .text          0x0000000000000000        0x0 board/rockchip/evb_px30/built-in.o
 .data          0x0000000000000000        0x0 board/rockchip/evb_px30/built-in.o
 .bss           0x0000000000000000        0x0 board/rockchip/evb_px30/built-in.o
 .comment       0x0000000000000000       0x5e board/rockchip/evb_px30/built-in.o
 .note.GNU-stack
                0x0000000000000000        0x0 board/rockchip/evb_px30/built-in.o
 .debug_aranges
                0x0000000000000000       0x20 board/rockchip/evb_px30/built-in.o
 .debug_info    0x0000000000000000      0xd0f board/rockchip/evb_px30/built-in.o
 .debug_abbrev  0x0000000000000000      0x196 board/rockchip/evb_px30/built-in.o
 .debug_line    0x0000000000000000       0xfb board/rockchip/evb_px30/built-in.o
 .debug_str     0x0000000000000000      0xe02 board/rockchip/evb_px30/built-in.o
 .text          0x0000000000000000        0x0 cmd/built-in.o
 .text.do_board_download
                0x0000000000000000        0x4 cmd/built-in.o
 .eh_frame      0x0000000000000000     0x2700 cmd/built-in.o
 .data          0x0000000000000000        0x0 cmd/built-in.o
 .bss           0x0000000000000000        0x0 cmd/built-in.o
 .text          0x0000000000000000        0x0 common/built-in.o
 .text.board_init_f_boot_flags
                0x0000000000000000       0x24 common/built-in.o
 .text.hash_finish_crc32
                0x0000000000000000       0x38 common/built-in.o
 .text.hash_update_crc32
                0x0000000000000000       0x34 common/built-in.o
 .text.hash_init_crc32
                0x0000000000000000       0x30 common/built-in.o
 .text.hash_lookup_algo
                0x0000000000000000       0x3c common/built-in.o
 .text.hash_progressive_lookup_algo
                0x0000000000000000       0x44 common/built-in.o
 .text.hash_parse_string
                0x0000000000000000       0x7c common/built-in.o
 .text.hash_block
                0x0000000000000000       0x88 common/built-in.o
 .text.unset_local_var
                0x0000000000000000       0xb8 common/built-in.o
 .text.autoboot_command_fail_handle
                0x0000000000000000        0x4 common/built-in.o
 .text.arch_cpu_init
                0x0000000000000000        0x8 common/built-in.o
 .text.dram_init_banksize
                0x0000000000000000       0x30 common/built-in.o
 .text.coloured_LED_init
                0x0000000000000000        0x4 common/built-in.o
 .text.red_led_on
                0x0000000000000000        0x4 common/built-in.o
 .text.red_led_off
                0x0000000000000000        0x4 common/built-in.o
 .text.green_led_on
                0x0000000000000000        0x4 common/built-in.o
 .text.green_led_off
                0x0000000000000000        0x4 common/built-in.o
 .text.yellow_led_on
                0x0000000000000000        0x4 common/built-in.o
 .text.yellow_led_off
                0x0000000000000000        0x4 common/built-in.o
 .text.blue_led_on
                0x0000000000000000        0x4 common/built-in.o
 .text.blue_led_off
                0x0000000000000000        0x4 common/built-in.o
 .text.board_get_usable_ram_top
                0x0000000000000000        0xc common/built-in.o
 .text.arch_reserve_stacks
                0x0000000000000000        0x8 common/built-in.o
 .text.interrupt_debugger_init
                0x0000000000000000        0x8 common/built-in.o
 .text.board_flash_wp_on
                0x0000000000000000        0x8 common/built-in.o
 .text.fixup_cpu
                0x0000000000000000        0x8 common/built-in.o
 .text.board_do_bootm
                0x0000000000000000        0x8 common/built-in.o
 .text.bootm_board_start
                0x0000000000000000        0x8 common/built-in.o
 .text.arch_preboot_os
                0x0000000000000000        0x4 common/built-in.o
 .text.fdt_read_prop
                0x0000000000000000       0x48 common/built-in.o
 .text.fdt_getprop_u32_default_node
                0x0000000000000000       0x4c common/built-in.o
 .text.fdt_getprop_u32_default
                0x0000000000000000       0x5c common/built-in.o
 .text.board_fdt_chosen_bootargs
                0x0000000000000000        0xc common/built-in.o
 .text.do_fixup_by_prop
                0x0000000000000000       0xc8 common/built-in.o
 .text.do_fixup_by_prop_u32
                0x0000000000000000       0x28 common/built-in.o
 .text.do_fixup_by_compat
                0x0000000000000000       0xa8 common/built-in.o
 .text.do_fixup_by_compat_u32
                0x0000000000000000       0x28 common/built-in.o
 .text.fdt_record_loadable
                0x0000000000000000      0x174 common/built-in.o
 .text.fdt_bootargs_append
                0x0000000000000000      0x144 common/built-in.o
 .text.fdt_bootargs_append_ab
                0x0000000000000000       0xc0 common/built-in.o
 .text.fdt_del_node_and_alias
                0x0000000000000000       0x5c common/built-in.o
 .text.fdt_node_offset_by_compat_reg
                0x0000000000000000       0xa0 common/built-in.o
 .text.fdt_alloc_phandle
                0x0000000000000000       0x6c common/built-in.o
 .text.fdt_set_phandle
                0x0000000000000000       0x68 common/built-in.o
 .text.fdt_create_phandle
                0x0000000000000000       0x78 common/built-in.o
 .text.fdt_set_node_status
                0x0000000000000000       0xf4 common/built-in.o
 .text.fdt_set_status_by_alias
                0x0000000000000000       0x40 common/built-in.o
 .text.fdt_add_edid
                0x0000000000000000       0xc0 common/built-in.o
 .text.fdt_verify_alias_address
                0x0000000000000000       0xdc common/built-in.o
 .text.fdt_read_range
                0x0000000000000000      0x154 common/built-in.o
 .text.fdt_setup_simplefb_node
                0x0000000000000000      0x1f4 common/built-in.o
 .text.fdt_fixup_display
                0x0000000000000000       0xe8 common/built-in.o
 .text.mdio_register_seq
                0x0000000000000000       0x48 common/built-in.o
 .text.usb_set_protocol
                0x0000000000000000       0x4c common/built-in.o
 .text.usb_set_idle
                0x0000000000000000       0x4c common/built-in.o
 .text.usb_get_report
                0x0000000000000000       0x5c common/built-in.o
 .text.usb_get_class_descriptor
                0x0000000000000000       0x5c common/built-in.o
 .text.board_usb_init
                0x0000000000000000        0x8 common/built-in.o
 .text.board_usb_cleanup
                0x0000000000000000        0x8 common/built-in.o
 .text.usb_hub_probe
                0x0000000000000000       0x54 common/built-in.o
 .text.iomux_printdevs
                0x0000000000000000       0x7c common/built-in.o
 .text.cea_db_offsets
                0x0000000000000000       0x84 common/built-in.o
 .text.drm_add_hdmi_modes
                0x0000000000000000       0x3c common/built-in.o
 .text.svd_to_vic
                0x0000000000000000       0x1c common/built-in.o
 .text.drm_get_max_frl_rate
                0x0000000000000000       0x88 common/built-in.o
 .text.drm_find_edid_extension
                0x0000000000000000       0x4c common/built-in.o
 .text.cea_mode_alternate_clock
                0x0000000000000000       0x58 common/built-in.o
 .text.hdmi_mode_alternate_clock
                0x0000000000000000       0x24 common/built-in.o
 .text.find_gtf2
                0x0000000000000000       0x20 common/built-in.o
 .text.mode_is_rb
                0x0000000000000000       0x54 common/built-in.o
 .text.hdmi_infoframe_checksum
                0x0000000000000000       0x28 common/built-in.o
 .text.hdmi_infoframe_set_checksum
                0x0000000000000000       0x1c common/built-in.o
 .text.cea_mode_for_vic
                0x0000000000000000       0x5c common/built-in.o
 .text.drm_get_vrefresh
                0x0000000000000000       0x74 common/built-in.o
 .text.valid_inferred_mode
                0x0000000000000000       0xf4 common/built-in.o
 .text.drm_mode_find_dmt
                0x0000000000000000       0xac common/built-in.o
 .text.cea_db_is_hdmi_vsdb
                0x0000000000000000       0x48 common/built-in.o
 .text.drm_for_each_detailed_block
                0x0000000000000000      0x13c common/built-in.o
 .text.drm_gtf2_hbreak
                0x0000000000000000       0x3c common/built-in.o
 .text.drm_mode_equal_no_clocks_no_stereo
                0x0000000000000000       0xb8 common/built-in.o
 .text.drm_match_hdmi_mode
                0x0000000000000000       0x9c common/built-in.o
 .text.is_rb    0x0000000000000000       0x20 common/built-in.o
 .text.drm_monitor_supports_rb
                0x0000000000000000       0x40 common/built-in.o
 .text.fixup_mode_1366x768
                0x0000000000000000       0x3c common/built-in.o
 .text.do_established_modes
                0x0000000000000000       0xec common/built-in.o
 .text.drm_do_probe_ddc_edid.constprop.0
                0x0000000000000000      0x104 common/built-in.o
 .text.drm_edid_block_valid.constprop.0
                0x0000000000000000      0x12c common/built-in.o
 .text.drm_gtf_mode_complex.constprop.0
                0x0000000000000000      0x168 common/built-in.o
 .text.bitmap_set.constprop.0
                0x0000000000000000       0x68 common/built-in.o
 .text.drm_cvt_mode.constprop.0
                0x0000000000000000      0x28c common/built-in.o
 .text.do_cvt_mode
                0x0000000000000000      0x17c common/built-in.o
 .text.mode_in_range
                0x0000000000000000      0x1b8 common/built-in.o
 .text.do_inferred_modes
                0x0000000000000000      0x238 common/built-in.o
 .text.drm_mode_std
                0x0000000000000000      0x3ec common/built-in.o
 .text.do_standard_modes
                0x0000000000000000       0x88 common/built-in.o
 .text.drm_display_mode_from_vic_index
                0x0000000000000000       0x6c common/built-in.o
 .text.do_detailed_mode
                0x0000000000000000      0x440 common/built-in.o
 .text.edid_check_checksum
                0x0000000000000000       0x30 common/built-in.o
 .text.edid_get_ranges
                0x0000000000000000       0xac common/built-in.o
 .text.do_cea_modes
                0x0000000000000000       0xc4 common/built-in.o
 .text.drm_detect_hdmi_monitor
                0x0000000000000000       0x70 common/built-in.o
 .text.drm_detect_monitor_audio
                0x0000000000000000       0x88 common/built-in.o
 .text.drm_match_cea_mode
                0x0000000000000000       0xa8 common/built-in.o
 .text.drm_default_rgb_quant_range
                0x0000000000000000       0x24 common/built-in.o
 .text.drm_add_edid_modes
                0x0000000000000000     0x137c common/built-in.o
 .text.hdmi_vendor_infoframe_init
                0x0000000000000000       0x4c common/built-in.o
 .text.drm_hdmi_avi_infoframe_quant_range
                0x0000000000000000       0x54 common/built-in.o
 .text.drm_hdmi_vendor_infoframe_from_display_mode
                0x0000000000000000      0x114 common/built-in.o
 .text.hdmi_avi_infoframe_init
                0x0000000000000000       0x3c common/built-in.o
 .text.drm_hdmi_avi_infoframe_from_display_mode
                0x0000000000000000       0xfc common/built-in.o
 .text.hdmi_avi_infoframe_pack
                0x0000000000000000      0x198 common/built-in.o
 .text.hdmi_avi_infoframe_check
                0x0000000000000000       0x34 common/built-in.o
 .text.hdmi_avi_infoframe_pack_only
                0x0000000000000000      0x1c0 common/built-in.o
 .text.hdmi_spd_infoframe_init
                0x0000000000000000       0x6c common/built-in.o
 .text.hdmi_spd_infoframe_pack
                0x0000000000000000       0xa0 common/built-in.o
 .text.hdmi_audio_infoframe_init
                0x0000000000000000       0x3c common/built-in.o
 .text.hdmi_audio_infoframe_pack
                0x0000000000000000       0xe4 common/built-in.o
 .text.hdmi_vendor_infoframe_pack
                0x0000000000000000      0x10c common/built-in.o
 .text.hdmi_drm_infoframe_init
                0x0000000000000000       0x3c common/built-in.o
 .text.hdmi_drm_infoframe_pack
                0x0000000000000000      0x148 common/built-in.o
 .text.hdmi_infoframe_pack
                0x0000000000000000       0x74 common/built-in.o
 .text.hdmi_infoframe_unpack
                0x0000000000000000      0x368 common/built-in.o
 .text.drm_mode_sort
                0x0000000000000000      0x11c common/built-in.o
 .text.drm_mode_prune_invalid
                0x0000000000000000       0xb4 common/built-in.o
 .text.drm_rk_filter_whitelist
                0x0000000000000000       0x98 common/built-in.o
 .text.drm_rk_select_mode
                0x0000000000000000       0xf8 common/built-in.o
 .text.drm_do_get_edid
                0x0000000000000000      0x134 common/built-in.o
 .text.drm_scdc_readb
                0x0000000000000000       0x50 common/built-in.o
 .text.drm_scdc_writeb
                0x0000000000000000       0x94 common/built-in.o
 .text.splash_screen_prepare
                0x0000000000000000        0x8 common/built-in.o
 .text.menu_default_choice
                0x0000000000000000       0x20 common/built-in.o
 .text.cli_simple_parse_line
                0x0000000000000000       0x9c common/built-in.o
 .text.cli_simple_run_command
                0x0000000000000000      0x148 common/built-in.o
 .text.cli_simple_loop
                0x0000000000000000       0x90 common/built-in.o
 .text.cli_simple_run_command_list
                0x0000000000000000       0x74 common/built-in.o
 .text.fgetc    0x0000000000000000       0x14 common/built-in.o
 .text.ftstc    0x0000000000000000       0x14 common/built-in.o
 .text.fputc    0x0000000000000000       0x14 common/built-in.o
 .text.fputs    0x0000000000000000       0x7c common/built-in.o
 .text.fclear   0x0000000000000000       0x6c common/built-in.o
 .text.fprintf  0x0000000000000000       0xb8 common/built-in.o
 .text.stdio_print_current_devices
                0x0000000000000000       0xbc common/built-in.o
 .text.valloc   0x0000000000000000        0xc common/built-in.o
 .text.pvalloc  0x0000000000000000       0x10 common/built-in.o
 .text.cfree    0x0000000000000000        0x4 common/built-in.o
 .text.malloc_usable_size
                0x0000000000000000       0x40 common/built-in.o
 .text.mallopt  0x0000000000000000       0x58 common/built-in.o
 .text.memalign_simple
                0x0000000000000000       0x64 common/built-in.o
 .text.genimg_get_short_name
                0x0000000000000000       0x28 common/built-in.o
 .text.genimg_get_cat_name
                0x0000000000000000       0x78 common/built-in.o
 .text.genimg_get_cat_short_name
                0x0000000000000000       0x78 common/built-in.o
 .text.genimg_get_cat_count
                0x0000000000000000       0x1c common/built-in.o
 .text.genimg_get_cat_desc
                0x0000000000000000       0x1c common/built-in.o
 .text.genimg_get_type_short_name
                0x0000000000000000       0x10 common/built-in.o
 .text.genimg_get_comp_short_name
                0x0000000000000000       0x10 common/built-in.o
 .text.genimg_get_os_short_name
                0x0000000000000000       0x10 common/built-in.o
 .text.genimg_get_arch_short_name
                0x0000000000000000       0x10 common/built-in.o
 .text.android_image_set_comp
                0x0000000000000000        0xc common/built-in.o
 .text.android_image_parse_kernel_comp
                0x0000000000000000       0x14 common/built-in.o
 .text.android_image_get_ksize
                0x0000000000000000       0x20 common/built-in.o
 .text.android_image_set_kload
                0x0000000000000000       0x20 common/built-in.o
 .text.android_image_get_fdt
                0x0000000000000000       0x78 common/built-in.o
 .text.android_avb_boot_flow
                0x0000000000000000       0xb8 common/built-in.o
 .text.android_boot_flow
                0x0000000000000000       0xa4 common/built-in.o
 .text.ft_verify_fdt
                0x0000000000000000        0x8 common/built-in.o
 .text.arch_fixup_fdt
                0x0000000000000000        0x8 common/built-in.o
 .text.fit_image_set_address
                0x0000000000000000       0x78 common/built-in.o
 .text.fit_get_subimage_count
                0x0000000000000000       0x60 common/built-in.o
 .text.fit_get_timestamp
                0x0000000000000000       0x5c common/built-in.o
 .text.fit_get_totalsize
                0x0000000000000000       0x4c common/built-in.o
 .text.fit_image_is_preload
                0x0000000000000000       0x48 common/built-in.o
 .text.fit_image_get_comp_addr
                0x0000000000000000       0x10 common/built-in.o
 .text.fit_image_set_load
                0x0000000000000000       0x10 common/built-in.o
 .text.fit_image_set_entry
                0x0000000000000000       0x10 common/built-in.o
 .text.fit_image_get_rollback_index
                0x0000000000000000       0x48 common/built-in.o
 .text.fit_set_timestamp
                0x0000000000000000       0x44 common/built-in.o
 .text.fit_set_totalsize
                0x0000000000000000       0x44 common/built-in.o
 .text.fit_set_version
                0x0000000000000000       0x44 common/built-in.o
 .text.calculate_hash
                0x0000000000000000        0x4 common/built-in.o
 .text.fit_all_image_verify
                0x0000000000000000      0x110 common/built-in.o
 .text.fit_conf_find_compat
                0x0000000000000000      0x1a8 common/built-in.o
 .text.fit_conf_get_prop_node_count
                0x0000000000000000        0x4 common/built-in.o
 .text.fit_board_verify_required_sigs
                0x0000000000000000        0x8 common/built-in.o
 .text.get_ram_size
                0x0000000000000000       0xf0 common/built-in.o
 .text.stdio_init
                0x0000000000000000       0x1c common/built-in.o
 .text.android_dt_get_count
                0x0000000000000000        0xc common/built-in.o
 .text.board_run_command
                0x0000000000000000        0x8 common/built-in.o
 .text.run_command_repeatable
                0x0000000000000000       0x20 common/built-in.o
 .text.hex1_bin
                0x0000000000000000       0x4c common/built-in.o
 .text.hex2_bin
                0x0000000000000000       0x40 common/built-in.o
 .text.srec_decode
                0x0000000000000000      0x214 common/built-in.o
 .text.trusty_write_oem_unlock
                0x0000000000000000       0x40 common/built-in.o
 .text.trusty_read_oem_unlock
                0x0000000000000000       0x5c common/built-in.o
 .rodata.fdt_bootargs_append.str1.1
                0x0000000000000000       0x13 common/built-in.o
 .rodata.fdt_bootargs_append_ab.str1.1
                0x0000000000000000       0x3f common/built-in.o
 .rodata.fdt_set_phandle.str1.1
                0x0000000000000000       0x16 common/built-in.o
 .rodata.fdt_create_phandle.str1.1
                0x0000000000000000       0x1a common/built-in.o
 .rodata.fdt_set_node_status.str1.1
                0x0000000000000000       0x3a common/built-in.o
 .rodata.fdt_set_node_status
                0x0000000000000000        0x4 common/built-in.o
 .rodata.fdt_add_edid.str1.1
                0x0000000000000000       0x3b common/built-in.o
 .rodata.fdt_verify_alias_address.str1.1
                0x0000000000000000       0xcd common/built-in.o
 .rodata.fdt_read_range.str1.1
                0x0000000000000000        0xf common/built-in.o
 .rodata.fdt_setup_simplefb_node.str1.1
                0x0000000000000000       0x2c common/built-in.o
 .rodata.fdt_fixup_display.str1.1
                0x0000000000000000       0x1c common/built-in.o
 .rodata.mdio_register_seq.str1.1
                0x0000000000000000        0x6 common/built-in.o
 .rodata.iomux_printdevs.str1.1
                0x0000000000000000        0x6 common/built-in.o
 .rodata.drm_get_max_frl_rate
                0x0000000000000000        0x6 common/built-in.o
 .rodata.drm_detect_monitor_audio.str1.1
                0x0000000000000000       0x21 common/built-in.o
 .rodata.drm_match_cea_mode.str1.1
                0x0000000000000000       0x15 common/built-in.o
 .rodata.drm_add_edid_modes
                0x0000000000000000        0x7 common/built-in.o
 .rodata.hdmi_infoframe_pack.str1.1
                0x0000000000000000       0x17 common/built-in.o
 .rodata.hdmi_infoframe_pack
                0x0000000000000000        0x7 common/built-in.o
 .rodata.hdmi_infoframe_unpack
                0x0000000000000000        0x8 common/built-in.o
 .rodata.drm_do_get_edid.str1.1
                0x0000000000000000       0x40 common/built-in.o
 .rodata.cea_interlaced.0
                0x0000000000000000       0x38 common/built-in.o
 .rodata.drm_dmt_modes
                0x0000000000000000     0x2940 common/built-in.o
 .rodata.edid_4k_modes
                0x0000000000000000      0x258 common/built-in.o
 .rodata.edid_cea_modes_1
                0x0000000000000000     0x3b88 common/built-in.o
 .rodata.edid_cea_modes_193
                0x0000000000000000      0xca8 common/built-in.o
 .rodata.edid_est_modes
                0x0000000000000000      0x7f8 common/built-in.o
 .rodata.edid_header
                0x0000000000000000        0x8 common/built-in.o
 .rodata.est3_modes
                0x0000000000000000      0x160 common/built-in.o
 .rodata.extra_modes
                0x0000000000000000       0x38 common/built-in.o
 .rodata.resolution_white
                0x0000000000000000      0xff0 common/built-in.o
 .rodata.stereo_mandatory_modes
                0x0000000000000000       0x80 common/built-in.o
 .rodata.cli_simple_parse_line.str1.1
                0x0000000000000000       0x1f common/built-in.o
 .rodata.cli_simple_run_command.str1.1
                0x0000000000000000       0x16 common/built-in.o
 .rodata.cli_simple_loop.str1.1
                0x0000000000000000       0x11 common/built-in.o
 .rodata.stdio_print_current_devices.str1.1
                0x0000000000000000       0x74 common/built-in.o
 .rodata.mallopt
                0x0000000000000000        0x4 common/built-in.o
 .rodata.memalign_simple.str1.1
                0x0000000000000000       0x21 common/built-in.o
 .rodata.genimg_get_short_name.str1.1
                0x0000000000000000        0x8 common/built-in.o
 .rodata.table_info
                0x0000000000000000       0x60 common/built-in.o
 .rodata.unknown_str.0
                0x0000000000000000        0x9 common/built-in.o
 .rodata.android_image_get_fdt.str1.1
                0x0000000000000000       0x1c common/built-in.o
 .rodata.android_avb_boot_flow.str1.1
                0x0000000000000000       0x41 common/built-in.o
 .rodata.fit_get_timestamp.str1.1
                0x0000000000000000        0xa common/built-in.o
 .rodata.fit_get_totalsize.str1.1
                0x0000000000000000        0xa common/built-in.o
 .rodata.fit_image_is_preload.str1.1
                0x0000000000000000        0x8 common/built-in.o
 .rodata.fit_image_get_comp_addr.str1.1
                0x0000000000000000        0x5 common/built-in.o
 .rodata.fit_image_get_rollback_index.str1.1
                0x0000000000000000        0xf common/built-in.o
 .rodata.fit_set_version.str1.1
                0x0000000000000000        0x8 common/built-in.o
 .rodata.srec_decode
                0x0000000000000000       0x16 common/built-in.o
 .rodata.trusty_write_oem_unlock.str1.1
                0x0000000000000000        0xb common/built-in.o
 .eh_frame      0x0000000000000000     0x5f38 common/built-in.o
 .data          0x0000000000000000        0x0 common/built-in.o
 .data.hash_algo
                0x0000000000000000       0x38 common/built-in.o
 .data.edid_quirk_list
                0x0000000000000000      0x108 common/built-in.o
 .bss           0x0000000000000000        0x0 common/built-in.o
 .bss.lastcommand.0
                0x0000000000000000      0x401 common/built-in.o
 .bss.msg.1     0x0000000000000000       0x1e common/built-in.o
 .bss.save_addr
                0x0000000000000000        0x8 common/built-in.o
 .bss.save_size
                0x0000000000000000        0x8 common/built-in.o
 .text          0x0000000000000000        0x0 disk/built-in.o
 .text.part_get_info_by_name_strict
                0x0000000000000000        0x8 disk/built-in.o
 .eh_frame      0x0000000000000000      0x8e8 disk/built-in.o
 .data          0x0000000000000000        0x0 disk/built-in.o
 .bss           0x0000000000000000        0x0 disk/built-in.o
 .text          0x0000000000000000        0x0 drivers/built-in.o
 .text.clk_get_phase
                0x0000000000000000       0x24 drivers/built-in.o
 .text.clk_enable_bulk
                0x0000000000000000       0x5c drivers/built-in.o
 .text.clk_get_bulk
                0x0000000000000000       0xc0 drivers/built-in.o
 .text.clk_disable_bulk
                0x0000000000000000       0x5c drivers/built-in.o
 .text.rk3036_pll_get_rate.constprop.0
                0x0000000000000000       0xd4 drivers/built-in.o
 .text.gcd      0x0000000000000000       0x30 drivers/built-in.o
 .text.rockchip_get_pll_settings
                0x0000000000000000      0x318 drivers/built-in.o
 .text.rk3036_pll_set_rate
                0x0000000000000000      0x1d4 drivers/built-in.o
 .text.rockchip_pll_get_rate
                0x0000000000000000      0x118 drivers/built-in.o
 .text.rockchip_pll_set_rate
                0x0000000000000000      0x2f8 drivers/built-in.o
 .text.rockchip_get_cpu_settings
                0x0000000000000000       0x24 drivers/built-in.o
 .text._device_find_global_by_of_offset
                0x0000000000000000       0x64 drivers/built-in.o
 .text.device_get_child
                0x0000000000000000       0x5c drivers/built-in.o
 .text.device_find_child_by_seq
                0x0000000000000000       0x58 drivers/built-in.o
 .text.device_get_child_by_seq
                0x0000000000000000       0x5c drivers/built-in.o
 .text.device_find_child_by_of_offset
                0x0000000000000000       0x44 drivers/built-in.o
 .text.device_get_child_by_of_offset
                0x0000000000000000       0x40 drivers/built-in.o
 .text.device_get_global_by_of_offset
                0x0000000000000000       0x44 drivers/built-in.o
 .text.dev_get_uclass_name
                0x0000000000000000       0x14 drivers/built-in.o
 .text.device_has_children
                0x0000000000000000       0x14 drivers/built-in.o
 .text.of_machine_is_compatible
                0x0000000000000000       0x28 drivers/built-in.o
 .text.devfdt_get_addr_name
                0x0000000000000000       0x50 drivers/built-in.o
 .text.devfdt_get_addr
                0x0000000000000000        0x8 drivers/built-in.o
 .text.devfdt_remap_addr_index
                0x0000000000000000       0x20 drivers/built-in.o
 .text.devfdt_get_addr_ptr
                0x0000000000000000        0x8 drivers/built-in.o
 .text.devfdt_map_physmem
                0x0000000000000000       0x20 drivers/built-in.o
 .text.dm_fixup_for_gd_move
                0x0000000000000000       0x20 drivers/built-in.o
 .text.dm_set_translation_offset
                0x0000000000000000       0x28 drivers/built-in.o
 .text.dm_uninit
                0x0000000000000000       0x28 drivers/built-in.o
 .text.uclass_destroy
                0x0000000000000000       0x98 drivers/built-in.o
 .text.uclass_get_name
                0x0000000000000000       0x30 drivers/built-in.o
 .text.uclass_get_by_name
                0x0000000000000000       0x54 drivers/built-in.o
 .text.uclass_find_device_by_of_offset
                0x0000000000000000       0x78 drivers/built-in.o
 .text.uclass_get_device_by_of_offset
                0x0000000000000000       0x38 drivers/built-in.o
 .text.uclass_first_device_check
                0x0000000000000000       0x40 drivers/built-in.o
 .text.uclass_next_device_check
                0x0000000000000000       0x30 drivers/built-in.o
 .text.list_count_items
                0x0000000000000000       0x28 drivers/built-in.o
 .text.simple_bus_translate
                0x0000000000000000       0x50 drivers/built-in.o
 .text.regmap_uninit
                0x0000000000000000       0x3c drivers/built-in.o
 .text.regmap_update_bits
                0x0000000000000000       0x2c drivers/built-in.o
 .text.of_get_first_property
                0x0000000000000000        0xc drivers/built-in.o
 .text.of_get_next_property
                0x0000000000000000        0xc drivers/built-in.o
 .text.of_get_property_by_prop
                0x0000000000000000       0x34 drivers/built-in.o
 .text.of_find_compatible_node
                0x0000000000000000       0x58 drivers/built-in.o
 .text.of_get_stdout
                0x0000000000000000        0xc drivers/built-in.o
 .text.dev_read_s32_default
                0x0000000000000000        0x8 drivers/built-in.o
 .text.dev_read_next_subnode
                0x0000000000000000        0x4 drivers/built-in.o
 .text.dev_remap_addr_index
                0x0000000000000000       0x20 drivers/built-in.o
 .text.dev_read_string_count
                0x0000000000000000        0x8 drivers/built-in.o
 .text.dev_read_addr_cells
                0x0000000000000000        0x8 drivers/built-in.o
 .text.dev_read_size_cells
                0x0000000000000000        0x8 drivers/built-in.o
 .text.dev_read_first_prop
                0x0000000000000000        0x8 drivers/built-in.o
 .text.dev_read_next_prop
                0x0000000000000000        0x4 drivers/built-in.o
 .text.dev_read_prop_by_prop
                0x0000000000000000        0x4 drivers/built-in.o
 .text.dev_read_u8_array_ptr
                0x0000000000000000        0x8 drivers/built-in.o
 .text.dev_read_enabled
                0x0000000000000000       0x48 drivers/built-in.o
 .text.dev_read_resource_byname
                0x0000000000000000        0x8 drivers/built-in.o
 .text.dev_translate_address
                0x0000000000000000        0x8 drivers/built-in.o
 .text.of_read_fmap_entry
                0x0000000000000000       0xd4 drivers/built-in.o
 .text.decode_timing_property
                0x0000000000000000       0x78 drivers/built-in.o
 .text.ofnode_get_addr
                0x0000000000000000        0x8 drivers/built-in.o
 .text.ofnode_read_string_count
                0x0000000000000000       0x44 drivers/built-in.o
 .text.ofnode_get_chosen_prop
                0x0000000000000000       0x2c drivers/built-in.o
 .text.ofnode_get_chosen_node
                0x0000000000000000       0x2c drivers/built-in.o
 .text.ofnode_decode_display_timing
                0x0000000000000000      0x2fc drivers/built-in.o
 .text.ofnode_get_first_property
                0x0000000000000000       0x70 drivers/built-in.o
 .text.ofnode_get_next_property
                0x0000000000000000       0x70 drivers/built-in.o
 .text.ofnode_get_property_by_prop
                0x0000000000000000       0x48 drivers/built-in.o
 .text.ofnode_read_u8_array_ptr
                0x0000000000000000       0x74 drivers/built-in.o
 .text.ofnode_read_pci_addr
                0x0000000000000000       0xa8 drivers/built-in.o
 .text.ofnode_read_addr_cells
                0x0000000000000000       0x34 drivers/built-in.o
 .text.ofnode_read_size_cells
                0x0000000000000000       0x34 drivers/built-in.o
 .text.ofnode_translate_address
                0x0000000000000000       0x38 drivers/built-in.o
 .text.crypto_hmac_init
                0x0000000000000000       0x38 drivers/built-in.o
 .text.crypto_hmac_update
                0x0000000000000000       0x30 drivers/built-in.o
 .text.crypto_hmac_final
                0x0000000000000000       0x24 drivers/built-in.o
 .text.crypto_sha_regions_csum
                0x0000000000000000       0xc4 drivers/built-in.o
 .text.crypto_rsa_verify
                0x0000000000000000       0x4c drivers/built-in.o
 .text.crypto_cipher
                0x0000000000000000       0x28 drivers/built-in.o
 .text.crypto_mac
                0x0000000000000000       0x24 drivers/built-in.o
 .text.crypto_ae
                0x0000000000000000       0x24 drivers/built-in.o
 .text.rk_pka_set_startmemaddr_reg
                0x0000000000000000       0x14 drivers/built-in.o
 .text.rk_pka_set_N_NP_T0_T1_reg
                0x0000000000000000       0x3c drivers/built-in.o
 .text.rk_pka_set_default_N_NP_T0_T1_reg
                0x0000000000000000       0x1c drivers/built-in.o
 .text.rk_pka_get_status
                0x0000000000000000       0x2c drivers/built-in.o
 .text.rk_pka_get_status_alu_outzero
                0x0000000000000000       0x30 drivers/built-in.o
 .text.rk_pka_get_status_mod_overfl
                0x0000000000000000       0x30 drivers/built-in.o
 .text.rk_pka_get_status_carry
                0x0000000000000000       0x30 drivers/built-in.o
 .text.rk_pka_get_status_alu_signout
                0x0000000000000000       0x30 drivers/built-in.o
 .text.rk_pka_get_status_modinv_ofzero
                0x0000000000000000       0x30 drivers/built-in.o
 .text.rk_pka_get_status_opcode
                0x0000000000000000       0x30 drivers/built-in.o
 .text.rk_pka_get_status_tag
                0x0000000000000000       0x30 drivers/built-in.o
 .text.rk_pka_set_regsize
                0x0000000000000000       0x34 drivers/built-in.o
 .text.rk_pka_set_regaddr
                0x0000000000000000       0x34 drivers/built-in.o
 .text.rk_pka_hw_load_value2pka_mem
                0x0000000000000000       0x30 drivers/built-in.o
 .text.rk_pka_hw_reverse_load_block2pka_mem
                0x0000000000000000       0x38 drivers/built-in.o
 .text.rk_pka_hw_read_value_from_pka_mem
                0x0000000000000000       0x34 drivers/built-in.o
 .text.rk_pka_hw_reverse_read_block_from_pka_mem
                0x0000000000000000       0x3c drivers/built-in.o
 .text.rk_abs_add
                0x0000000000000000      0x134 drivers/built-in.o
 .text.rk_exptmod
                0x0000000000000000      0x238 drivers/built-in.o
 .text.util_reverse_words_buff
                0x0000000000000000       0x3c drivers/built-in.o
 .text.util_reverse_buff
                0x0000000000000000       0x3c drivers/built-in.o
 .text.util_reverse_memcpy
                0x0000000000000000       0x1c drivers/built-in.o
 .text.util_reverse_word_memcpy
                0x0000000000000000       0x1c drivers/built-in.o
 .text._input_send_keycodes
                0x0000000000000000      0x3fc drivers/built-in.o
 .text.input_tstc
                0x0000000000000000       0x48 drivers/built-in.o
 .text.input_getc
                0x0000000000000000       0x58 drivers/built-in.o
 .text.input_send_keycodes
                0x0000000000000000        0x8 drivers/built-in.o
 .text.input_add_keycode
                0x0000000000000000       0x80 drivers/built-in.o
 .text.input_add_table
                0x0000000000000000       0x38 drivers/built-in.o
 .text.input_set_delays
                0x0000000000000000        0x8 drivers/built-in.o
 .text.input_allow_repeats
                0x0000000000000000        0x8 drivers/built-in.o
 .text.input_leds_changed
                0x0000000000000000       0x18 drivers/built-in.o
 .text.input_add_tables
                0x0000000000000000       0x74 drivers/built-in.o
 .text.input_init
                0x0000000000000000       0x34 drivers/built-in.o
 .text.input_stdio_register
                0x0000000000000000       0x58 drivers/built-in.o
 .text.create_keymap
                0x0000000000000000       0xa0 drivers/built-in.o
 .text.key_matrix_decode
                0x0000000000000000       0xdc drivers/built-in.o
 .text.key_matrix_decode_fdt
                0x0000000000000000       0xb0 drivers/built-in.o
 .text.key_matrix_init
                0x0000000000000000       0x50 drivers/built-in.o
 .text.generic_phy_get_by_name
                0x0000000000000000       0x4c drivers/built-in.o
 .text.generic_phy_reset
                0x0000000000000000       0x2c drivers/built-in.o
 .text.generic_phy_configure
                0x0000000000000000       0x2c drivers/built-in.o
 .text.generic_phy_validate
                0x0000000000000000       0x2c drivers/built-in.o
 .text.generic_phy_set_mode_ext
                0x0000000000000000       0x58 drivers/built-in.o
 .text.pinctrl_decode_pin_config
                0x0000000000000000       0x58 drivers/built-in.o
 .text.pinctrl_request
                0x0000000000000000       0x20 drivers/built-in.o
 .text.pinctrl_request_noflags
                0x0000000000000000        0x8 drivers/built-in.o
 .text.pinctrl_get_periph_id
                0x0000000000000000       0x20 drivers/built-in.o
 .text.pinctrl_get_pins_count
                0x0000000000000000       0x20 drivers/built-in.o
 .text.pinctrl_generic_set_state_subnode
                0x0000000000000000      0x274 drivers/built-in.o
 .text.pinctrl_generic_set_state
                0x0000000000000000       0x6c drivers/built-in.o
 .text.rockchip_translate_drive_value
                0x0000000000000000       0x40 drivers/built-in.o
 .text.rockchip_translate_pull_value
                0x0000000000000000       0x34 drivers/built-in.o
 .text.sdram_print_dram_type
                0x0000000000000000       0x78 drivers/built-in.o
 .text.sdram_get_cs_cap
                0x0000000000000000       0xb0 drivers/built-in.o
 .text.sdram_print_ddr_info
                0x0000000000000000      0x24c drivers/built-in.o
 .text.sdram_copy_to_reg
                0x0000000000000000       0x2c drivers/built-in.o
 .text.sdram_org_config
                0x0000000000000000      0x1ac drivers/built-in.o
 .text.sdram_org_config_v3
                0x0000000000000000      0x298 drivers/built-in.o
 .text.sdram_detect_bw
                0x0000000000000000        0x8 drivers/built-in.o
 .text.sdram_detect_cs
                0x0000000000000000        0x8 drivers/built-in.o
 .text.sdram_detect_col
                0x0000000000000000       0x8c drivers/built-in.o
 .text.sdram_detect_bank
                0x0000000000000000       0x68 drivers/built-in.o
 .text.sdram_detect_bg
                0x0000000000000000       0x64 drivers/built-in.o
 .text.sdram_detect_dbw
                0x0000000000000000      0x104 drivers/built-in.o
 .text.sdram_detect_row
                0x0000000000000000       0x94 drivers/built-in.o
 .text.sdram_detect_row_3_4
                0x0000000000000000       0x6c drivers/built-in.o
 .text.sdram_detect_high_row
                0x0000000000000000      0x108 drivers/built-in.o
 .text.sdram_detect_cs1_row
                0x0000000000000000       0xe0 drivers/built-in.o
 .text.pctl_read_mr
                0x0000000000000000       0x44 drivers/built-in.o
 .text.pctl_write_mr
                0x0000000000000000       0x78 drivers/built-in.o
 .text.pctl_dis_zqcs_aref
                0x0000000000000000       0x4c drivers/built-in.o
 .text.pctl_rest_zqcs_aref
                0x0000000000000000       0x34 drivers/built-in.o
 .text.pctl_write_vrefdq
                0x0000000000000000      0x114 drivers/built-in.o
 .text.pctl_remodify_sdram_params
                0x0000000000000000       0x88 drivers/built-in.o
 .text.pctl_cfg
                0x0000000000000000       0x78 drivers/built-in.o
 .text.phy_soft_reset
                0x0000000000000000       0x54 drivers/built-in.o
 .text.phy_dram_set_bw
                0x0000000000000000       0x84 drivers/built-in.o
 .text.phy_data_training
                0x0000000000000000      0x1b0 drivers/built-in.o
 .text.phy_cfg  0x0000000000000000      0x208 drivers/built-in.o
 .text.arch_interrupt_init
                0x0000000000000000        0x4 drivers/built-in.o
 .text.gpio_to_irq
                0x0000000000000000      0x108 drivers/built-in.o
 .text.hard_gpio_to_irq
                0x0000000000000000       0x38 drivers/built-in.o
 .text.adc_stop
                0x0000000000000000       0x40 drivers/built-in.o
 .text.adc_start_channels
                0x0000000000000000       0x78 drivers/built-in.o
 .text.adc_channels_data
                0x0000000000000000       0xb4 drivers/built-in.o
 .text.adc_channels_single_shot
                0x0000000000000000       0xb8 drivers/built-in.o
 .text.adc_vdd_value
                0x0000000000000000       0x48 drivers/built-in.o
 .text.adc_vss_value
                0x0000000000000000       0x48 drivers/built-in.o
 .text.blk_get_from_parent
                0x0000000000000000       0x5c drivers/built-in.o
 .text.blk_unbind_all
                0x0000000000000000       0xa8 drivers/built-in.o
 .text.cpu_mmc_init
                0x0000000000000000        0x8 drivers/built-in.o
 .text.board_mmc_init
                0x0000000000000000        0x8 drivers/built-in.o
 .text.mmc_set_preinit
                0x0000000000000000        0x8 drivers/built-in.o
 .text.mmc_get_next_devnum
                0x0000000000000000        0x8 drivers/built-in.o
 .text.mmc_unbind
                0x0000000000000000       0x34 drivers/built-in.o
 .text.dwmci_memcpy_fromio
                0x0000000000000000        0x4 drivers/built-in.o
 .text.dwmci_memcpy_toio
                0x0000000000000000        0x4 drivers/built-in.o
 .text.rknand_get_blk_desc
                0x0000000000000000       0x28 drivers/built-in.o
 .text.timer_delay_ns
                0x0000000000000000       0x14 drivers/built-in.o
 .text.nandc_de_cs
                0x0000000000000000       0x1c drivers/built-in.o
 .text.flash_erase_all
                0x0000000000000000       0xb0 drivers/built-in.o
 .text.flash_read_spare
                0x0000000000000000       0x74 drivers/built-in.o
 .text.flash_read_otp_data
                0x0000000000000000      0x110 drivers/built-in.o
 .text.sandisk_prog_test_bad_block
                0x0000000000000000       0xf0 drivers/built-in.o
 .text.zftl_nandc_get_irq_status
                0x0000000000000000       0x20 drivers/built-in.o
 .text.rk_nandc_flash_ready
                0x0000000000000000        0x4 drivers/built-in.o
 .text.nandc_iqr_wait_flash_ready
                0x0000000000000000        0x4 drivers/built-in.o
 .text.rk_nandc_flash_xfer_completed
                0x0000000000000000        0x4 drivers/built-in.o
 .text.zftl_flash_de_init
                0x0000000000000000       0xa4 drivers/built-in.o
 .text.nandc_randomizer_enable
                0x0000000000000000        0xc drivers/built-in.o
 .text.nandc_get_chip_if
                0x0000000000000000       0x18 drivers/built-in.o
 .text.buf_reinit
                0x0000000000000000       0x54 drivers/built-in.o
 .text.buf_remove_free
                0x0000000000000000       0x78 drivers/built-in.o
 .text.dump_buf_info
                0x0000000000000000       0xe8 drivers/built-in.o
 .text.flash_check_bad_block
                0x0000000000000000       0x54 drivers/built-in.o
 .text.flash_mask_bad_block
                0x0000000000000000       0x90 drivers/built-in.o
 .text.zftl_cache_flush
                0x0000000000000000        0x4 drivers/built-in.o
 .text.gc_hook  0x0000000000000000        0x4 drivers/built-in.o
 .text.vpn_check
                0x0000000000000000        0x4 drivers/built-in.o
 .text.ftl_scan_all_data
                0x0000000000000000        0x4 drivers/built-in.o
 .text.FtlGetCurEraseBlock
                0x0000000000000000        0xc drivers/built-in.o
 .text.FtlGetAllBlockNum
                0x0000000000000000        0xc drivers/built-in.o
 .text.FtlLowFormat
                0x0000000000000000        0x8 drivers/built-in.o
 .text.print_gc_debug_info
                0x0000000000000000       0x34 drivers/built-in.o
 .text.zftl_get_gc_node
                0x0000000000000000       0x44 drivers/built-in.o
 .text.dump_sblk_queue
                0x0000000000000000       0x88 drivers/built-in.o
 .text.lpa_hash_init
                0x0000000000000000       0x48 drivers/built-in.o
 .text.zftl_read_flash_info
                0x0000000000000000       0xd4 drivers/built-in.o
 .text.flash_info_data_init
                0x0000000000000000       0x98 drivers/built-in.o
 .text.ftl_memcpy32
                0x0000000000000000       0x20 drivers/built-in.o
 .text.ftl_memcmp
                0x0000000000000000        0x8 drivers/built-in.o
 .text.rknand_get_clk_rate
                0x0000000000000000        0xc drivers/built-in.o
 .text.ftl_free
                0x0000000000000000        0x4 drivers/built-in.o
 .text.timer_get_time
                0x0000000000000000        0x8 drivers/built-in.o
 .text.FlashCs123Init
                0x0000000000000000        0x4 drivers/built-in.o
 .text.rk_nand_de_init
                0x0000000000000000        0x4 drivers/built-in.o
 .text.ftl_get_capacity
                0x0000000000000000        0xc drivers/built-in.o
 .text.hynix_get_read_retry_default
                0x0000000000000000      0x7cc drivers/built-in.o
 .text.flash_get_read_retry_tbl
                0x0000000000000000       0x20 drivers/built-in.o
 .text.flash_get_last_written_page_ext
                0x0000000000000000       0x44 drivers/built-in.o
 .text.flash_test_blk
                0x0000000000000000      0x108 drivers/built-in.o
 .text.sblk_tlc_prog_one_page
                0x0000000000000000       0x50 drivers/built-in.o
 .text.ftl_test_block
                0x0000000000000000      0x1d4 drivers/built-in.o
 .text.ftl_low_format_data_init
                0x0000000000000000      0x1dc drivers/built-in.o
 .text.ftl_low_format
                0x0000000000000000      0x3e4 drivers/built-in.o
 .text.ftl_re_low_format
                0x0000000000000000       0xcc drivers/built-in.o
 .text.ftl_sysblk_dump
                0x0000000000000000      0x14c drivers/built-in.o
 .text.rk_ftl_de_init
                0x0000000000000000       0x18 drivers/built-in.o
 .text.zftl_deinit
                0x0000000000000000        0x4 drivers/built-in.o
 .text.zftl_sys_read
                0x0000000000000000       0x14 drivers/built-in.o
 .text.StorageSysDataLoad
                0x0000000000000000       0x40 drivers/built-in.o
 .text.FlashBootVendorRead
                0x0000000000000000       0x14 drivers/built-in.o
 .text.zftl_vendor_read
                0x0000000000000000        0x4 drivers/built-in.o
 .text.zftl_sys_write
                0x0000000000000000       0x14 drivers/built-in.o
 .text.StorageSysDataStore
                0x0000000000000000       0x14 drivers/built-in.o
 .text.FlashBootVendorWrite
                0x0000000000000000       0x14 drivers/built-in.o
 .text.zftl_vendor_write
                0x0000000000000000        0x4 drivers/built-in.o
 .text.dump_pm_blk
                0x0000000000000000       0xa0 drivers/built-in.o
 .text.sound_create_square_wave
                0x0000000000000000       0x78 drivers/built-in.o
 .text.sound_hw_params.constprop.0.isra.0
                0x0000000000000000       0x4c drivers/built-in.o
 .text.sound_startup.isra.0
                0x0000000000000000       0x40 drivers/built-in.o
 .text.sound_init
                0x0000000000000000       0xe0 drivers/built-in.o
 .text.sound_play
                0x0000000000000000       0xa0 drivers/built-in.o
 .text.reset_cpu
                0x0000000000000000       0x10 drivers/built-in.o
 .text.display_read_edid
                0x0000000000000000       0x24 drivers/built-in.o
 .text.display_enable
                0x0000000000000000       0x58 drivers/built-in.o
 .text.display_read_timing
                0x0000000000000000       0x6c drivers/built-in.o
 .text.display_in_use
                0x0000000000000000       0x18 drivers/built-in.o
 .text.panel_enable_backlight
                0x0000000000000000       0x20 drivers/built-in.o
 .text.video_set_flush_dcache
                0x0000000000000000       0x24 drivers/built-in.o
 .text.video_sync_all
                0x0000000000000000       0x3c drivers/built-in.o
 .text.video_get_xsize
                0x0000000000000000       0x18 drivers/built-in.o
 .text.video_get_ysize
                0x0000000000000000       0x18 drivers/built-in.o
 .text.fb_put_byte
                0x0000000000000000       0x24 drivers/built-in.o
 .text.video_bmp_display
                0x0000000000000000      0x36c drivers/built-in.o
 .text.drm_mode_copy
                0x0000000000000000       0x18 drivers/built-in.o
 .text.drm_display_mode_from_videomode
                0x0000000000000000       0xd8 drivers/built-in.o
 .text.get_cubic_lut_buffer
                0x0000000000000000        0xc drivers/built-in.o
 .text.can_direct_logo
                0x0000000000000000       0x10 drivers/built-in.o
 .text.drm_mode_max_resolution_filter
                0x0000000000000000       0x50 drivers/built-in.o
 .text.drm_mode_is_420_only
                0x0000000000000000       0x44 drivers/built-in.o
 .text.drm_mode_is_420_also
                0x0000000000000000       0x44 drivers/built-in.o
 .text.drm_mode_is_420
                0x0000000000000000       0x48 drivers/built-in.o
 .text.rockchip_show_fbbase
                0x0000000000000000       0x60 drivers/built-in.o
 .text.rockchip_phy_round_rate
                0x0000000000000000       0x2c drivers/built-in.o
 .text.rockchip_connector_get_timing
                0x0000000000000000       0x60 drivers/built-in.o
 .text.rockchip_connector_get_edid
                0x0000000000000000       0x60 drivers/built-in.o
 .text.mipi_dsi_detach
                0x0000000000000000       0x28 drivers/built-in.o
 .text.mipi_dsi_shutdown_peripheral
                0x0000000000000000       0x50 drivers/built-in.o
 .text.mipi_dsi_turn_on_peripheral
                0x0000000000000000       0x50 drivers/built-in.o
 .text.mipi_dsi_set_maximum_return_packet_size
                0x0000000000000000       0x58 drivers/built-in.o
 .text.mipi_dsi_generic_read
                0x0000000000000000       0x74 drivers/built-in.o
 .text.mipi_dsi_dcs_write
                0x0000000000000000       0x9c drivers/built-in.o
 .text.mipi_dsi_dcs_read
                0x0000000000000000       0x4c drivers/built-in.o
 .text.mipi_dsi_dcs_nop
                0x0000000000000000       0x28 drivers/built-in.o
 .text.mipi_dsi_dcs_soft_reset
                0x0000000000000000       0x2c drivers/built-in.o
 .text.mipi_dsi_dcs_get_power_mode
                0x0000000000000000       0x38 drivers/built-in.o
 .text.mipi_dsi_dcs_get_pixel_format
                0x0000000000000000       0x38 drivers/built-in.o
 .text.mipi_dsi_dcs_enter_sleep_mode
                0x0000000000000000       0x2c drivers/built-in.o
 .text.mipi_dsi_dcs_exit_sleep_mode
                0x0000000000000000       0x2c drivers/built-in.o
 .text.mipi_dsi_dcs_set_display_off
                0x0000000000000000       0x2c drivers/built-in.o
 .text.mipi_dsi_dcs_set_display_on
                0x0000000000000000       0x2c drivers/built-in.o
 .text.mipi_dsi_dcs_set_column_address
                0x0000000000000000       0x40 drivers/built-in.o
 .text.mipi_dsi_dcs_set_page_address
                0x0000000000000000       0x40 drivers/built-in.o
 .text.mipi_dsi_dcs_set_tear_off
                0x0000000000000000       0x2c drivers/built-in.o
 .text.mipi_dsi_dcs_set_tear_on
                0x0000000000000000       0x2c drivers/built-in.o
 .text.mipi_dsi_dcs_set_pixel_format
                0x0000000000000000       0x2c drivers/built-in.o
 .text.mipi_dsi_dcs_set_tear_scanline
                0x0000000000000000       0x38 drivers/built-in.o
 .text.mipi_dsi_dcs_set_display_brightness
                0x0000000000000000       0x38 drivers/built-in.o
 .text.mipi_dsi_dcs_get_display_brightness
                0x0000000000000000       0x38 drivers/built-in.o
 .text.rk618_frc_dither_disable
                0x0000000000000000        0xc drivers/built-in.o
 .text.rk618_frc_dither_enable
                0x0000000000000000        0xc drivers/built-in.o
 .text.video_bridge_set_backlight
                0x0000000000000000       0x20 drivers/built-in.o
 .text.video_bridge_attach
                0x0000000000000000       0x20 drivers/built-in.o
 .text.video_bridge_check_attached
                0x0000000000000000       0x5c drivers/built-in.o
 .text.reset_request
                0x0000000000000000       0x18 drivers/built-in.o
 .text.reset_assert_bulk
                0x0000000000000000       0x48 drivers/built-in.o
 .text.reset_deassert_bulk
                0x0000000000000000       0x48 drivers/built-in.o
 .text.reset_get_bulk
                0x0000000000000000       0xc0 drivers/built-in.o
 .rodata.rockchip_get_pll_settings.str1.1
                0x0000000000000000       0x5b drivers/built-in.o
 .rodata.rk3036_pll_set_rate.str1.1
                0x0000000000000000       0x3a drivers/built-in.o
 .rodata.rockchip_pll_get_rate.str1.1
                0x0000000000000000       0x26 drivers/built-in.o
 .rodata.rockchip_pll_set_rate.str1.1
                0x0000000000000000       0x15 drivers/built-in.o
 .rodata.devfdt_get_addr_name.str1.1
                0x0000000000000000        0xa drivers/built-in.o
 .rodata.of_read_fmap_entry.str1.1
                0x0000000000000000       0x1b drivers/built-in.o
 .rodata.ofnode_get_chosen_prop.str1.1
                0x0000000000000000        0x8 drivers/built-in.o
 .rodata.ofnode_decode_display_timing.str1.1
                0x0000000000000000       0xca drivers/built-in.o
 .rodata.input_stdio_register.str1.1
                0x0000000000000000        0x6 drivers/built-in.o
 .rodata.kbd_plain_xlate
                0x0000000000000000       0x64 drivers/built-in.o
 .rodata.kbd_plain_xlate_german
                0x0000000000000000       0x84 drivers/built-in.o
 .rodata.kbd_to_ansi364
                0x0000000000000000       0x40 drivers/built-in.o
 .rodata.key_matrix_decode_fdt.str1.1
                0x0000000000000000       0x1d drivers/built-in.o
 .rodata.generic_phy_get_by_name.str1.1
                0x0000000000000000        0xa drivers/built-in.o
 .rodata.pinctrl_decode_pin_config.str1.1
                0x0000000000000000       0x1c drivers/built-in.o
 .rodata.pinctrl_generic_set_state_subnode.str1.1
                0x0000000000000000       0x15 drivers/built-in.o
 .rodata.rockchip_pinctrl_ops
                0x0000000000000000       0x88 drivers/built-in.o
 .rodata.sdram_print_dram_type.str1.1
                0x0000000000000000       0x36 drivers/built-in.o
 .rodata.sdram_print_dram_type
                0x0000000000000000        0x9 drivers/built-in.o
 .rodata.sdram_print_ddr_info.str1.1
                0x0000000000000000       0x5f drivers/built-in.o
 .rodata.sdram_detect_col.str1.1
                0x0000000000000000        0xb drivers/built-in.o
 .rodata.sdram_detect_row.str1.1
                0x0000000000000000        0xa drivers/built-in.o
 .rodata.sdram_detect_high_row.str1.1
                0x0000000000000000       0x18 drivers/built-in.o
 .rodata.gpio_to_irq.str1.1
                0x0000000000000000       0x70 drivers/built-in.o
 .rodata.__func__.10903
                0x0000000000000000       0x10 drivers/built-in.o
 .rodata.__func__.11089
                0x0000000000000000       0x19 drivers/built-in.o
 .rodata.__func__.11104
                0x0000000000000000        0xf drivers/built-in.o
 .rodata.__func__.9692
                0x0000000000000000       0x10 drivers/built-in.o
 .rodata.__func__.9728
                0x0000000000000000       0x15 drivers/built-in.o
 .rodata.dump_buf_info.str1.1
                0x0000000000000000      0x10f drivers/built-in.o
 .rodata.dump_pm_blk.str1.1
                0x0000000000000000       0x10 drivers/built-in.o
 .rodata.dump_sblk_queue.str1.1
                0x0000000000000000       0x35 drivers/built-in.o
 .rodata.flash_erase_all.str1.1
                0x0000000000000000       0x10 drivers/built-in.o
 .rodata.flash_mask_bad_block.str1.1
                0x0000000000000000       0x1c drivers/built-in.o
 .rodata.flash_read_otp_data.str1.1
                0x0000000000000000       0x11 drivers/built-in.o
 .rodata.ftl_low_format.str1.1
                0x0000000000000000       0x2b drivers/built-in.o
 .rodata.ftl_re_low_format.str1.1
                0x0000000000000000       0x12 drivers/built-in.o
 .rodata.ftl_test_block.str1.1
                0x0000000000000000        0xf drivers/built-in.o
 .rodata.hynix_get_read_retry_default.str1.1
                0x0000000000000000       0x11 drivers/built-in.o
 .rodata.print_gc_debug_info.str1.1
                0x0000000000000000       0x34 drivers/built-in.o
 .rodata.sandisk_prog_test_bad_block.str1.1
                0x0000000000000000       0x16 drivers/built-in.o
 .rodata.sound_init.str1.1
                0x0000000000000000       0x38 drivers/built-in.o
 .rodata.sound_play.str1.1
                0x0000000000000000        0x9 drivers/built-in.o
 .rodata.video_bmp_display.str1.1
                0x0000000000000000       0x56 drivers/built-in.o
 .eh_frame      0x0000000000000000     0xa304 drivers/built-in.o
 .data          0x0000000000000000        0x0 drivers/built-in.o
 .data.kbd_ctrl_xlate
                0x0000000000000000       0x64 drivers/built-in.o
 .data.kbd_entry
                0x0000000000000000       0xe0 drivers/built-in.o
 .data.kbd_right_alt_xlate_german
                0x0000000000000000       0x58 drivers/built-in.o
 .data.kbd_shift_xlate
                0x0000000000000000       0x64 drivers/built-in.o
 .data.kbd_shift_xlate_german
                0x0000000000000000       0x84 drivers/built-in.o
 .data.addrmap  0x0000000000000000      0x1c0 drivers/built-in.o
 .data.d4_rbc_2_d3_rbc
                0x0000000000000000        0x5 drivers/built-in.o
 .data.ddr_cfg_2_rbc
                0x0000000000000000        0x7 drivers/built-in.o
 .data.hy_f26_ref_value
                0x0000000000000000       0x1c drivers/built-in.o
 .bss           0x0000000000000000        0x0 drivers/built-in.o
 .bss.rockchip_auto_table
                0x0000000000000000       0x40 drivers/built-in.o
 .bss._c_ftl_nand_blks_per_die
                0x0000000000000000        0x2 drivers/built-in.o
 .bss._last_read_time
                0x0000000000000000        0x4 drivers/built-in.o
 .bss._last_write_time
                0x0000000000000000        0x4 drivers/built-in.o
 .bss.ftl_low_format_cur_blk
                0x0000000000000000        0x2 drivers/built-in.o
 .bss.g_slc_mode_enable
                0x0000000000000000        0x1 drivers/built-in.o
 .bss.nandc_ecc_sts
                0x0000000000000000       0x10 drivers/built-in.o
 .bss.p_read_ahead_ext_buf
                0x0000000000000000        0x8 drivers/built-in.o
 .bss.codec_dev
                0x0000000000000000        0x8 drivers/built-in.o
 .bss.i2s_dev   0x0000000000000000        0x8 drivers/built-in.o
 .text          0x0000000000000000        0x0 drivers/gpio/built-in.o
 .text.get_function
                0x0000000000000000       0xb4 drivers/gpio/built-in.o
 .text.gpio_to_device
                0x0000000000000000       0x88 drivers/gpio/built-in.o
 .text.dm_gpio_lookup_name
                0x0000000000000000      0x114 drivers/gpio/built-in.o
 .text.gpio_lookup_name
                0x0000000000000000       0x7c drivers/gpio/built-in.o
 .text.gpio_hog_lookup_name
                0x0000000000000000        0x8 drivers/gpio/built-in.o
 .text.gpio_request
                0x0000000000000000       0x34 drivers/gpio/built-in.o
 .text.gpio_requestf
                0x0000000000000000       0x9c drivers/gpio/built-in.o
 .text.gpio_free
                0x0000000000000000       0x28 drivers/gpio/built-in.o
 .text.gpio_direction_input
                0x0000000000000000       0x48 drivers/gpio/built-in.o
 .text.gpio_direction_output
                0x0000000000000000       0x58 drivers/gpio/built-in.o
 .text.dm_gpio_get_open_drain
                0x0000000000000000       0x60 drivers/gpio/built-in.o
 .text.dm_gpio_set_open_drain
                0x0000000000000000       0x6c drivers/gpio/built-in.o
 .text.dm_gpio_set_dir
                0x0000000000000000        0x8 drivers/gpio/built-in.o
 .text.gpio_get_value
                0x0000000000000000       0x24 drivers/gpio/built-in.o
 .text.gpio_set_value
                0x0000000000000000       0x34 drivers/gpio/built-in.o
 .text.gpio_get_bank_info
                0x0000000000000000       0x2c drivers/gpio/built-in.o
 .text.gpio_get_function
                0x0000000000000000        0xc drivers/gpio/built-in.o
 .text.gpio_get_raw_function
                0x0000000000000000        0xc drivers/gpio/built-in.o
 .text.gpio_get_status
                0x0000000000000000      0x130 drivers/gpio/built-in.o
 .text.gpio_claim_vector
                0x0000000000000000       0xac drivers/gpio/built-in.o
 .text.gpio_get_values_as_int
                0x0000000000000000       0x64 drivers/gpio/built-in.o
 .text.dm_gpio_get_values_as_int
                0x0000000000000000       0x70 drivers/gpio/built-in.o
 .text.gpio_get_list_count
                0x0000000000000000       0x24 drivers/gpio/built-in.o
 .text.gpio_free_list
                0x0000000000000000       0x5c drivers/gpio/built-in.o
 .text.gpio_free_list_nodev
                0x0000000000000000       0x10 drivers/gpio/built-in.o
 .text.gpio_request_list_by_name_nodev
                0x0000000000000000       0xa4 drivers/gpio/built-in.o
 .text.gpio_request_list_by_name
                0x0000000000000000        0x8 drivers/gpio/built-in.o
 .text.gpio_get_number
                0x0000000000000000       0x24 drivers/gpio/built-in.o
 .text.gpio_dev_request_index
                0x0000000000000000       0x5c drivers/gpio/built-in.o
 .rodata.gpio_direction_input.str1.1
                0x0000000000000000        0xa drivers/gpio/built-in.o
 .rodata.gpio_direction_output.str1.1
                0x0000000000000000        0xb drivers/gpio/built-in.o
 .rodata.dm_gpio_get_open_drain.str1.1
                0x0000000000000000        0xf drivers/gpio/built-in.o
 .rodata.dm_gpio_set_open_drain.str1.1
                0x0000000000000000        0xf drivers/gpio/built-in.o
 .rodata.gpio_get_status.str1.1
                0x0000000000000000       0x19 drivers/gpio/built-in.o
 .rodata.gpio_function
                0x0000000000000000       0x28 drivers/gpio/built-in.o
 .eh_frame      0x0000000000000000      0x810 drivers/gpio/built-in.o
 .data          0x0000000000000000        0x0 drivers/gpio/built-in.o
 .bss           0x0000000000000000        0x0 drivers/gpio/built-in.o
 .text          0x0000000000000000        0x0 drivers/i2c/built-in.o
 .text.i2c_dump_msgs
                0x0000000000000000       0xac drivers/i2c/built-in.o
 .text.dm_i2c_reg_read
                0x0000000000000000       0x24 drivers/i2c/built-in.o
 .text.dm_i2c_reg_write
                0x0000000000000000       0x20 drivers/i2c/built-in.o
 .text.dm_i2c_reg_clrset
                0x0000000000000000       0x64 drivers/i2c/built-in.o
 .text.i2c_get_chip
                0x0000000000000000      0x100 drivers/i2c/built-in.o
 .text.i2c_get_chip_for_busnum
                0x0000000000000000       0x54 drivers/i2c/built-in.o
 .text.dm_i2c_probe
                0x0000000000000000       0xb0 drivers/i2c/built-in.o
 .text.dm_i2c_get_bus_speed
                0x0000000000000000       0x48 drivers/i2c/built-in.o
 .text.i2c_set_chip_flags
                0x0000000000000000       0x60 drivers/i2c/built-in.o
 .text.i2c_get_chip_flags
                0x0000000000000000       0x2c drivers/i2c/built-in.o
 .text.i2c_set_chip_offset_len
                0x0000000000000000       0x38 drivers/i2c/built-in.o
 .text.i2c_get_chip_offset_len
                0x0000000000000000       0x18 drivers/i2c/built-in.o
 .text.i2c_deblock
                0x0000000000000000       0x20 drivers/i2c/built-in.o
 .rodata.i2c_dump_msgs.str1.1
                0x0000000000000000       0x1b drivers/i2c/built-in.o
 .eh_frame      0x0000000000000000      0x4a0 drivers/i2c/built-in.o
 .data          0x0000000000000000        0x0 drivers/i2c/built-in.o
 .bss           0x0000000000000000        0x0 drivers/i2c/built-in.o
 .text          0x0000000000000000        0x0 drivers/mtd/spi/built-in.o
 .text.spi_flash_read_dm
                0x0000000000000000       0x14 drivers/mtd/spi/built-in.o
 .text.spi_flash_write_dm
                0x0000000000000000       0x14 drivers/mtd/spi/built-in.o
 .text.spi_flash_erase_dm
                0x0000000000000000       0x14 drivers/mtd/spi/built-in.o
 .text.spl_flash_get_sw_write_prot
                0x0000000000000000       0x20 drivers/mtd/spi/built-in.o
 .text.spi_flash_free
                0x0000000000000000       0x10 drivers/mtd/spi/built-in.o
 .text.spi_flash_probe_bus_cs
                0x0000000000000000       0x98 drivers/mtd/spi/built-in.o
 .text.spi_flash_probe
                0x0000000000000000       0x2c drivers/mtd/spi/built-in.o
 .rodata.spi_flash_probe_bus_cs.str1.1
                0x0000000000000000       0x1e drivers/mtd/spi/built-in.o
 .eh_frame      0x0000000000000000       0xdc drivers/mtd/spi/built-in.o
 .data          0x0000000000000000        0x0 drivers/mtd/spi/built-in.o
 .bss           0x0000000000000000        0x0 drivers/mtd/spi/built-in.o
 .text          0x0000000000000000        0x0 drivers/net/built-in.o
 .text.rk1808_gmac_set_to_rgmii
                0x0000000000000000       0x48 drivers/net/built-in.o
 .text.rk3228_gmac_set_to_rgmii
                0x0000000000000000       0x4c drivers/net/built-in.o
 .text.rk3228_gmac_set_to_rmii
                0x0000000000000000       0x28 drivers/net/built-in.o
 .text.rk3228_gmac_fix_mac_speed
                0x0000000000000000       0x90 drivers/net/built-in.o
 .text.rk3288_gmac_set_to_rgmii
                0x0000000000000000       0x48 drivers/net/built-in.o
 .text.rk3288_gmac_fix_mac_speed
                0x0000000000000000       0x70 drivers/net/built-in.o
 .text.rk3308_gmac_set_to_rmii
                0x0000000000000000       0x28 drivers/net/built-in.o
 .text.rk3328_gmac_set_to_rgmii
                0x0000000000000000       0x4c drivers/net/built-in.o
 .text.rk3328_gmac_set_to_rmii
                0x0000000000000000       0x48 drivers/net/built-in.o
 .text.rk3328_gmac_fix_mac_speed
                0x0000000000000000       0xa8 drivers/net/built-in.o
 .text.rk3368_gmac_set_to_rgmii
                0x0000000000000000       0x4c drivers/net/built-in.o
 .text.rk3368_gmac_fix_mac_speed
                0x0000000000000000       0x70 drivers/net/built-in.o
 .text.rk3399_gmac_set_to_rgmii
                0x0000000000000000       0x50 drivers/net/built-in.o
 .text.rk3399_gmac_fix_mac_speed
                0x0000000000000000       0x74 drivers/net/built-in.o
 .text.rv1108_gmac_set_to_rmii
                0x0000000000000000       0x28 drivers/net/built-in.o
 .text.rv1108_set_rmii_speed
                0x0000000000000000       0x70 drivers/net/built-in.o
 .text.rk1808_gmac_fix_mac_speed
                0x0000000000000000       0x88 drivers/net/built-in.o
 .text.rk3308_gmac_fix_mac_speed
                0x0000000000000000       0xac drivers/net/built-in.o
 .text.rk3228_gmac_integrated_phy_powerup
                0x0000000000000000       0x98 drivers/net/built-in.o
 .text.rk3328_gmac_integrated_phy_powerup
                0x0000000000000000       0x98 drivers/net/built-in.o
 .rodata.rk1808_gmac_ops
                0x0000000000000000       0x28 drivers/net/built-in.o
 .rodata.rk3228_gmac_ops
                0x0000000000000000       0x28 drivers/net/built-in.o
 .rodata.rk3288_gmac_ops
                0x0000000000000000       0x28 drivers/net/built-in.o
 .rodata.rk3308_gmac_ops
                0x0000000000000000       0x28 drivers/net/built-in.o
 .rodata.rk3328_gmac_ops
                0x0000000000000000       0x28 drivers/net/built-in.o
 .rodata.rk3368_gmac_ops
                0x0000000000000000       0x28 drivers/net/built-in.o
 .rodata.rk3399_gmac_ops
                0x0000000000000000       0x28 drivers/net/built-in.o
 .rodata.rv1108_gmac_ops
                0x0000000000000000       0x28 drivers/net/built-in.o
 .eh_frame      0x0000000000000000      0x704 drivers/net/built-in.o
 .data          0x0000000000000000        0x0 drivers/net/built-in.o
 .bss           0x0000000000000000        0x0 drivers/net/built-in.o
 .text          0x0000000000000000        0x0 drivers/net/phy/built-in.o
 .text.phy_register
                0x0000000000000000       0x24 drivers/net/phy/built-in.o
 .text.miiphy_reset
                0x0000000000000000       0x30 drivers/net/phy/built-in.o
 .text.phy_connect
                0x0000000000000000       0x68 drivers/net/phy/built-in.o
 .rodata.phy_connect.str1.1
                0x0000000000000000       0x23 drivers/net/phy/built-in.o
 .eh_frame      0x0000000000000000      0x344 drivers/net/phy/built-in.o
 .data          0x0000000000000000        0x0 drivers/net/phy/built-in.o
 .bss           0x0000000000000000        0x0 drivers/net/phy/built-in.o
 .text          0x0000000000000000        0x0 drivers/power/built-in.o
 .eh_frame      0x0000000000000000      0x22c drivers/power/built-in.o
 .data          0x0000000000000000        0x0 drivers/power/built-in.o
 .bss           0x0000000000000000        0x0 drivers/power/built-in.o
 .text          0x0000000000000000        0x0 drivers/power/dvfs/built-in.o
 .eh_frame      0x0000000000000000      0x1d0 drivers/power/dvfs/built-in.o
 .data          0x0000000000000000        0x0 drivers/power/dvfs/built-in.o
 .bss           0x0000000000000000        0x0 drivers/power/dvfs/built-in.o
 .text          0x0000000000000000        0x0 drivers/power/fuel_gauge/built-in.o
 .text.fuel_gauge_get_temperature
                0x0000000000000000       0x4c drivers/power/fuel_gauge/built-in.o
 .text.charger_set_charger_voltage
                0x0000000000000000       0x4c drivers/power/fuel_gauge/built-in.o
 .text.charger_set_current
                0x0000000000000000       0x4c drivers/power/fuel_gauge/built-in.o
 .text.charger_set_iprechg_current
                0x0000000000000000       0x4c drivers/power/fuel_gauge/built-in.o
 .text.charger_set_enable
                0x0000000000000000       0x44 drivers/power/fuel_gauge/built-in.o
 .text.charger_set_disable
                0x0000000000000000       0x44 drivers/power/fuel_gauge/built-in.o
 .eh_frame      0x0000000000000000      0x234 drivers/power/fuel_gauge/built-in.o
 .data          0x0000000000000000        0x0 drivers/power/fuel_gauge/built-in.o
 .bss           0x0000000000000000        0x0 drivers/power/fuel_gauge/built-in.o
 .text          0x0000000000000000        0x0 drivers/power/io-domain/built-in.o
 .eh_frame      0x0000000000000000      0x1b0 drivers/power/io-domain/built-in.o
 .data          0x0000000000000000        0x0 drivers/power/io-domain/built-in.o
 .bss           0x0000000000000000        0x0 drivers/power/io-domain/built-in.o
 .text          0x0000000000000000        0x0 drivers/power/pmic/built-in.o
 .text.pmic_get
                0x0000000000000000       0x10 drivers/power/pmic/built-in.o
 .text.pmic_reg_count
                0x0000000000000000       0x44 drivers/power/pmic/built-in.o
 .eh_frame      0x0000000000000000      0x3a8 drivers/power/pmic/built-in.o
 .data          0x0000000000000000        0x0 drivers/power/pmic/built-in.o
 .bss           0x0000000000000000        0x0 drivers/power/pmic/built-in.o
 .text          0x0000000000000000        0x0 drivers/power/regulator/built-in.o
 .text.regulator_mode
                0x0000000000000000       0x3c drivers/power/regulator/built-in.o
 .text.regulator_get_suspend_value
                0x0000000000000000       0x44 drivers/power/regulator/built-in.o
 .text.regulator_set_value_force
                0x0000000000000000       0x4c drivers/power/regulator/built-in.o
 .text.regulator_get_current
                0x0000000000000000       0x44 drivers/power/regulator/built-in.o
 .text.regulator_get_suspend_enable
                0x0000000000000000       0x44 drivers/power/regulator/built-in.o
 .text.regulator_get_mode
                0x0000000000000000       0x44 drivers/power/regulator/built-in.o
 .text.regulator_set_mode
                0x0000000000000000       0x4c drivers/power/regulator/built-in.o
 .text.regulator_get_by_platname
                0x0000000000000000       0x7c drivers/power/regulator/built-in.o
 .text.regulator_autoset_by_name
                0x0000000000000000       0x3c drivers/power/regulator/built-in.o
 .text.regulator_list_autoset
                0x0000000000000000       0xa0 drivers/power/regulator/built-in.o
 .text.rk8xx_spl_configure_buck
                0x0000000000000000       0x40 drivers/power/regulator/built-in.o
 .text.rk818_spl_configure_usb_input_current
                0x0000000000000000       0x38 drivers/power/regulator/built-in.o
 .text.rk818_spl_configure_usb_chrg_shutdown
                0x0000000000000000       0x38 drivers/power/regulator/built-in.o
 .rodata.rk818_chrg_cur_input_array
                0x0000000000000000       0x18 drivers/power/regulator/built-in.o
 .rodata.rk818_chrg_shutdown_vsel_array
                0x0000000000000000       0x20 drivers/power/regulator/built-in.o
 .eh_frame      0x0000000000000000      0xbb8 drivers/power/regulator/built-in.o
 .data          0x0000000000000000        0x0 drivers/power/regulator/built-in.o
 .bss           0x0000000000000000        0x0 drivers/power/regulator/built-in.o
 .text          0x0000000000000000        0x0 drivers/serial/built-in.o
 .text.serial_setbrg
                0x0000000000000000       0x34 drivers/serial/built-in.o
 .text.serial_dev_putc
                0x0000000000000000       0x10 drivers/serial/built-in.o
 .text.serial_dev_puts
                0x0000000000000000        0xc drivers/serial/built-in.o
 .text.serial_dev_getc
                0x0000000000000000       0x10 drivers/serial/built-in.o
 .text.serial_dev_tstc
                0x0000000000000000       0x10 drivers/serial/built-in.o
 .text.serial_dev_setbrg
                0x0000000000000000       0x20 drivers/serial/built-in.o
 .text.serial_dev_clear
                0x0000000000000000        0xc drivers/serial/built-in.o
 .text.ns16550_calc_divisor
                0x0000000000000000       0x14 drivers/serial/built-in.o
 .text.NS16550_reinit
                0x0000000000000000       0x5c drivers/serial/built-in.o
 .text.NS16550_putc
                0x0000000000000000       0x34 drivers/serial/built-in.o
 .text.NS16550_getc
                0x0000000000000000       0x30 drivers/serial/built-in.o
 .text.NS16550_tstc
                0x0000000000000000       0x20 drivers/serial/built-in.o
 .text.debug_uart_setbrg
                0x0000000000000000       0x68 drivers/serial/built-in.o
 .text.printhex2
                0x0000000000000000       0x5c drivers/serial/built-in.o
 .text.printhex4
                0x0000000000000000       0x5c drivers/serial/built-in.o
 .text.printhex8
                0x0000000000000000       0x5c drivers/serial/built-in.o
 .text.printdec
                0x0000000000000000       0xac drivers/serial/built-in.o
 .eh_frame      0x0000000000000000      0x59c drivers/serial/built-in.o
 .data          0x0000000000000000        0x0 drivers/serial/built-in.o
 .bss           0x0000000000000000        0x0 drivers/serial/built-in.o
 .text          0x0000000000000000        0x0 drivers/spi/built-in.o
 .text.dm_spi_claim_bus
                0x0000000000000000      0x13c drivers/spi/built-in.o
 .text.dm_spi_release_bus
                0x0000000000000000       0x20 drivers/spi/built-in.o
 .text.dm_spi_xfer
                0x0000000000000000       0x40 drivers/spi/built-in.o
 .text.dm_spi_get_mmap
                0x0000000000000000       0x40 drivers/spi/built-in.o
 .text.spi_claim_bus
                0x0000000000000000        0x8 drivers/spi/built-in.o
 .text.spi_release_bus
                0x0000000000000000        0x8 drivers/spi/built-in.o
 .text.spi_xfer
                0x0000000000000000        0x8 drivers/spi/built-in.o
 .text.spi_write_then_read
                0x0000000000000000       0x7c drivers/spi/built-in.o
 .text.spi_chip_select
                0x0000000000000000       0x24 drivers/spi/built-in.o
 .text.spi_find_chip_select
                0x0000000000000000       0xac drivers/spi/built-in.o
 .text.spi_cs_info
                0x0000000000000000       0x2c drivers/spi/built-in.o
 .text.spi_cs_is_valid
                0x0000000000000000       0x44 drivers/spi/built-in.o
 .text.spi_find_bus_and_cs
                0x0000000000000000       0x68 drivers/spi/built-in.o
 .text.spi_get_bus_and_cs
                0x0000000000000000      0x1b0 drivers/spi/built-in.o
 .text.spi_setup_slave
                0x0000000000000000       0x30 drivers/spi/built-in.o
 .text.spi_free_slave
                0x0000000000000000       0x2c drivers/spi/built-in.o
 .rodata.dm_spi_claim_bus.str1.1
                0x0000000000000000       0x35 drivers/spi/built-in.o
 .rodata.spi_find_chip_select.str1.1
                0x0000000000000000       0x18 drivers/spi/built-in.o
 .rodata.spi_get_bus_and_cs.str1.1
                0x0000000000000000       0x64 drivers/spi/built-in.o
 .eh_frame      0x0000000000000000      0x2f4 drivers/spi/built-in.o
 .data          0x0000000000000000        0x0 drivers/spi/built-in.o
 .bss           0x0000000000000000        0x0 drivers/spi/built-in.o
 .text          0x0000000000000000        0x0 drivers/usb/common/built-in.o
 .text.usb_get_dr_mode
                0x0000000000000000       0x78 drivers/usb/common/built-in.o
 .text.usb_get_maximum_speed
                0x0000000000000000       0x78 drivers/usb/common/built-in.o
 .text.usb_get_phy_mode
                0x0000000000000000       0x7c drivers/usb/common/built-in.o
 .rodata.usb_get_dr_mode.str1.1
                0x0000000000000000       0x1f drivers/usb/common/built-in.o
 .rodata.usb_get_maximum_speed.str1.1
                0x0000000000000000       0x2b drivers/usb/common/built-in.o
 .rodata.usb_get_phy_mode.str1.1
                0x0000000000000000       0x19 drivers/usb/common/built-in.o
 .rodata.str1.1
                0x0000000000000000       0x51 drivers/usb/common/built-in.o
 .rodata.speed_names
                0x0000000000000000       0x30 drivers/usb/common/built-in.o
 .rodata.usb_dr_modes
                0x0000000000000000       0x20 drivers/usb/common/built-in.o
 .eh_frame      0x0000000000000000       0x98 drivers/usb/common/built-in.o
 .data          0x0000000000000000        0x0 drivers/usb/common/built-in.o
 .bss           0x0000000000000000        0x0 drivers/usb/common/built-in.o
 .comment       0x0000000000000000       0x5e drivers/usb/common/built-in.o
 .note.GNU-stack
                0x0000000000000000        0x0 drivers/usb/common/built-in.o
 .debug_aranges
                0x0000000000000000       0x50 drivers/usb/common/built-in.o
 .debug_info    0x0000000000000000     0x10b3 drivers/usb/common/built-in.o
 .debug_abbrev  0x0000000000000000      0x273 drivers/usb/common/built-in.o
 .debug_line    0x0000000000000000      0x29b drivers/usb/common/built-in.o
 .debug_str     0x0000000000000000      0xfd9 drivers/usb/common/built-in.o
 .debug_loc     0x0000000000000000      0x238 drivers/usb/common/built-in.o
 .debug_ranges  0x0000000000000000       0x40 drivers/usb/common/built-in.o
 .text          0x0000000000000000        0x0 drivers/usb/gadget/built-in.o
 .text.usb_gadget_config_buf
                0x0000000000000000       0xa4 drivers/usb/gadget/built-in.o
 .text.set_udc_gadget_private_data
                0x0000000000000000       0x10 drivers/usb/gadget/built-in.o
 .text.get_udc_gadget_private_data
                0x0000000000000000        0x8 drivers/usb/gadget/built-in.o
 .text.dfu_usb_get_reset
                0x0000000000000000       0x18 drivers/usb/gadget/built-in.o
 .text.otg_phy_init
                0x0000000000000000        0x4 drivers/usb/gadget/built-in.o
 .text.usb_function_deactivate
                0x0000000000000000       0x60 drivers/usb/gadget/built-in.o
 .text.usb_function_activate
                0x0000000000000000       0x50 drivers/usb/gadget/built-in.o
 .text.usb_string_ids_tab
                0x0000000000000000       0x38 drivers/usb/gadget/built-in.o
 .text.usb_string_ids_n
                0x0000000000000000       0x2c drivers/usb/gadget/built-in.o
 .text.board_usb_init
                0x0000000000000000        0x8 drivers/usb/gadget/built-in.o
 .text.board_usb_cleanup
                0x0000000000000000        0x8 drivers/usb/gadget/built-in.o
 .text.fb_set_reboot_flag
                0x0000000000000000        0x8 drivers/usb/gadget/built-in.o
 .eh_frame      0x0000000000000000     0x14c8 drivers/usb/gadget/built-in.o
 .data          0x0000000000000000        0x0 drivers/usb/gadget/built-in.o
 .bss           0x0000000000000000        0x0 drivers/usb/gadget/built-in.o
 .text          0x0000000000000000        0x0 drivers/usb/gadget/udc/built-in.o
 .data          0x0000000000000000        0x0 drivers/usb/gadget/udc/built-in.o
 .bss           0x0000000000000000        0x0 drivers/usb/gadget/udc/built-in.o
 .text          0x0000000000000000        0x0 drivers/usb/host/built-in.o
 .text.create_int_queue
                0x0000000000000000       0x40 drivers/usb/host/built-in.o
 .text.poll_int_queue
                0x0000000000000000       0x30 drivers/usb/host/built-in.o
 .text.destroy_int_queue
                0x0000000000000000       0x30 drivers/usb/host/built-in.o
 .text.usb_setup_ehci_gadget
                0x0000000000000000       0x7c drivers/usb/host/built-in.o
 .text.usb_detect_change
                0x0000000000000000       0xa8 drivers/usb/host/built-in.o
 .text.rh_check_port_status
                0x0000000000000000       0x5c drivers/usb/host/built-in.o
 .eh_frame      0x0000000000000000      0xb4c drivers/usb/host/built-in.o
 .data          0x0000000000000000        0x0 drivers/usb/host/built-in.o
 .bss           0x0000000000000000        0x0 drivers/usb/host/built-in.o
 .text          0x0000000000000000        0x0 env/built-in.o
 .text.set_board_env
                0x0000000000000000       0x7c env/built-in.o
 .text.env_import
                0x0000000000000000       0xc8 env/built-in.o
 .text.env_export
                0x0000000000000000       0x80 env/built-in.o
 .text.env_relocate
                0x0000000000000000       0x10 env/built-in.o
 .text.env_load
                0x0000000000000000       0x38 env/built-in.o
 .text.env_flags_parse_varaccess_from_binflags
                0x0000000000000000       0x60 env/built-in.o
 .rodata.set_board_env.str1.1
                0x0000000000000000       0x1b env/built-in.o
 .rodata.env_import.str1.1
                0x0000000000000000       0x3f env/built-in.o
 .rodata.env_export.str1.1
                0x0000000000000000       0x27 env/built-in.o
 .rodata.env_flags_parse_varaccess_from_binflags.str1.1
                0x0000000000000000       0x2c env/built-in.o
 .eh_frame      0x0000000000000000      0x568 env/built-in.o
 .data          0x0000000000000000        0x0 env/built-in.o
 .bss           0x0000000000000000        0x0 env/built-in.o
 .text          0x0000000000000000        0x0 fs/built-in.o
 .text.fs_uuid  0x0000000000000000       0x2c fs/built-in.o
 .text.do_fs_uuid
                0x0000000000000000       0xa0 fs/built-in.o
 .text.fat_register_device
                0x0000000000000000       0x80 fs/built-in.o
 .text.file_fat_read
                0x0000000000000000       0x2c fs/built-in.o
 .rodata.fat_register_device.str1.1
                0x0000000000000000       0x2b fs/built-in.o
 .eh_frame      0x0000000000000000      0xec4 fs/built-in.o
 .data          0x0000000000000000        0x0 fs/built-in.o
 .bss           0x0000000000000000        0x0 fs/built-in.o
 .bss.ext4fs_symlinknest
                0x0000000000000000        0x4 fs/built-in.o
 .bss.g_parent_inode
                0x0000000000000000        0x8 fs/built-in.o
 .text.fdt_nop_property
                0x0000000000000000       0x44 lib/built-in.o
 .text.fdt_nop_node
                0x0000000000000000       0x68 lib/built-in.o
 .text._fdt_sw_check_header
                0x0000000000000000       0x1c lib/built-in.o
 .text._fdt_grab_space
                0x0000000000000000       0x58 lib/built-in.o
 .text.fdt_create
                0x0000000000000000       0x70 lib/built-in.o
 .text.fdt_resize
                0x0000000000000000       0xe0 lib/built-in.o
 .text.fdt_add_reservemap_entry
                0x0000000000000000       0x74 lib/built-in.o
 .text.fdt_finish_reservemap
                0x0000000000000000        0xc lib/built-in.o
 .text.fdt_begin_node
                0x0000000000000000       0x84 lib/built-in.o
 .text.fdt_end_node
                0x0000000000000000       0x44 lib/built-in.o
 .text.fdt_property_placeholder
                0x0000000000000000      0x124 lib/built-in.o
 .text.fdt_property
                0x0000000000000000       0x50 lib/built-in.o
 .text.fdt_finish
                0x0000000000000000      0x110 lib/built-in.o
 .text.fdt_set_name
                0x0000000000000000       0xac lib/built-in.o
 .text.fdt_appendprop
                0x0000000000000000       0xec lib/built-in.o
 .text.fdt_create_empty_tree
                0x0000000000000000       0x78 lib/built-in.o
 .text.fdt_node_offset_by_prop_value
                0x0000000000000000       0xb4 lib/built-in.o
 .text.fdt_node_offset_by_phandle_node
                0x0000000000000000       0xa8 lib/built-in.o
 .text.fdt_add_region
                0x0000000000000000       0x78 lib/built-in.o
 .text.fdt_find_regions
                0x0000000000000000      0x34c lib/built-in.o
 .text.fdt_add_alias_regions
                0x0000000000000000      0x1b0 lib/built-in.o
 .text.fdt_next_region
                0x0000000000000000      0x4cc lib/built-in.o
 .text.fdt_first_region
                0x0000000000000000       0x2c lib/built-in.o
 .text.utf16_strlen
                0x0000000000000000       0x1c lib/built-in.o
 .text.utf16_strcpy
                0x0000000000000000       0x18 lib/built-in.o
 .text.utf16_strdup
                0x0000000000000000       0x50 lib/built-in.o
 .text.crc7     0x0000000000000000       0x30 lib/built-in.o
 .text.crc8     0x0000000000000000       0x48 lib/built-in.o
 .text.crc16_ccitt
                0x0000000000000000       0x38 lib/built-in.o
 .text.errno_str
                0x0000000000000000       0x24 lib/built-in.o
 .text.fdtdec_get_uint
                0x0000000000000000       0x40 lib/built-in.o
 .text.lmb_dump_all
                0x0000000000000000        0x4 lib/built-in.o
 .text.lmb_is_reserved
                0x0000000000000000       0x4c lib/built-in.o
 .text.board_lmb_reserve
                0x0000000000000000        0x4 lib/built-in.o
 .text.arch_lmb_reserve
                0x0000000000000000        0x4 lib/built-in.o
 .text.board_sysmem_reserve
                0x0000000000000000        0x8 lib/built-in.o
 .text.board_bidram_parse_fn
                0x0000000000000000        0x8 lib/built-in.o
 .text.board_bidram_reserve
                0x0000000000000000        0x8 lib/built-in.o
 .text.ldiv     0x0000000000000000       0x2c lib/built-in.o
 .text.rc4_encode
                0x0000000000000000       0xd8 lib/built-in.o
 .text.sha256_csum
                0x0000000000000000       0x44 lib/built-in.o
 .text.sha256_csum_wd
                0x0000000000000000       0x44 lib/built-in.o
 .text.merge    0x0000000000000000       0x8c lib/built-in.o
 .text.list_sort
                0x0000000000000000      0x1a0 lib/built-in.o
 .text.optee_get_shm_config
                0x0000000000000000       0x4c lib/built-in.o
 .text.TEEC_RegisterSharedMemory
                0x0000000000000000       0x78 lib/built-in.o
 .text.TEEC_RequestCancellation
                0x0000000000000000       0x24 lib/built-in.o
 .text.crypto_flush_cacheline
                0x0000000000000000       0x34 lib/built-in.o
 .text.trusty_read_vbootkey_hash
                0x0000000000000000       0x14 lib/built-in.o
 .text.trusty_check_security_level_flag
                0x0000000000000000       0x2c lib/built-in.o
 .text.trusty_write_oem_ns_otp
                0x0000000000000000      0x114 lib/built-in.o
 .text.trusty_read_oem_ns_otp
                0x0000000000000000      0x124 lib/built-in.o
 .text.trusty_write_oem_otp_key
                0x0000000000000000      0x114 lib/built-in.o
 .text.trusty_oem_otp_key_is_written
                0x0000000000000000       0xe8 lib/built-in.o
 .text.trusty_set_oem_hr_otp_read_lock
                0x0000000000000000       0xc8 lib/built-in.o
 .text.trusty_oem_otp_key_cipher
                0x0000000000000000      0x210 lib/built-in.o
 .text.TEEC_SMC_RequestCancellation
                0x0000000000000000        0x8 lib/built-in.o
 .text.OpteeRpcFree
                0x0000000000000000       0x1c lib/built-in.o
 .text.is_uuid_equal
                0x0000000000000000       0x58 lib/built-in.o
 .text.OpteeRpcCmdLoadTa
                0x0000000000000000       0xcc lib/built-in.o
 .text.OpteeRpcCmdFreeTa
                0x0000000000000000       0x48 lib/built-in.o
 .text.OpteeRpcCmdGetTime
                0x0000000000000000        0x8 lib/built-in.o
 .text.OpteeRpcCmdWaitMutex
                0x0000000000000000        0x8 lib/built-in.o
 .text.avb_crc32
                0x0000000000000000       0x40 lib/built-in.o
 .text.avb_property_descriptor_validate_and_byteswap
                0x0000000000000000      0x2f4 lib/built-in.o
 .text.property_lookup_desc_foreach
                0x0000000000000000      0x100 lib/built-in.o
 .text.avb_property_lookup
                0x0000000000000000       0x88 lib/built-in.o
 .text.avb_property_lookup_uint64
                0x0000000000000000      0x108 lib/built-in.o
 .text.abort    0x0000000000000000        0x4 lib/built-in.o
 .text.avb_print
                0x0000000000000000       0x10 lib/built-in.o
 .text.avb_slot_verify_result_to_string
                0x0000000000000000       0x64 lib/built-in.o
 .text.avb_htobe32
                0x0000000000000000        0x8 lib/built-in.o
 .text.avb_htobe64
                0x0000000000000000        0x8 lib/built-in.o
 .text.sha256_str
                0x0000000000000000       0x30 lib/built-in.o
 .text.sha512   0x0000000000000000       0x60 lib/built-in.o
 .text.verify_permanent_attributes
                0x0000000000000000       0xcc lib/built-in.o
 .text.verify_certificate
                0x0000000000000000      0x1c4 lib/built-in.o
 .text.verify_pik_certificate
                0x0000000000000000       0x94 lib/built-in.o
 .text.avb_atx_validate_vbmeta_public_key
                0x0000000000000000      0x394 lib/built-in.o
 .text.avb_atx_validate_unlock_credential
                0x0000000000000000      0x364 lib/built-in.o
 .text.load_top_level_vbmeta_header
                0x0000000000000000      0x4e0 lib/built-in.o
 .text.avb_user_verification_get
                0x0000000000000000       0xb0 lib/built-in.o
 .text.avb_user_verification_set
                0x0000000000000000      0x114 lib/built-in.o
 .text.avb_user_verity_get
                0x0000000000000000       0xb0 lib/built-in.o
 .text.avb_user_verity_set
                0x0000000000000000      0x114 lib/built-in.o
 .text.rk_avb_get_pub_key
                0x0000000000000000       0x48 lib/built-in.o
 .text.rk_avb_read_vbootkey_hash
                0x0000000000000000       0x34 lib/built-in.o
 .text.rk_avb_close_optee_client
                0x0000000000000000       0x30 lib/built-in.o
 .text.rk_auth_unlock
                0x0000000000000000       0x7c lib/built-in.o
 .text.rk_avb_update_stored_rollback_indexes_for_slot
                0x0000000000000000       0x70 lib/built-in.o
 .text.avb_ab_mark_slot_unbootable
                0x0000000000000000       0x5c lib/built-in.o
 .text.avb_ab_mark_slot_successful
                0x0000000000000000       0x84 lib/built-in.o
 .text.rk_get_lastboot
                0x0000000000000000       0x70 lib/built-in.o
 .text.rk_avb_ab_have_bootable_slot
                0x0000000000000000       0x28 lib/built-in.o
 .text.rk_avb_append_part_slot
                0x0000000000000000       0x94 lib/built-in.o
 .text.inflateInit_
                0x0000000000000000       0x10 lib/built-in.o
 .text.fdtdec_get_compatible
                0x0000000000000000       0x10 lib/built-in.o
 .text.fdtdec_get_uint64
                0x0000000000000000       0x40 lib/built-in.o
 .text.fdtdec_lookup
                0x0000000000000000       0x68 lib/built-in.o
 .text.fdtdec_next_compatible
                0x0000000000000000       0x10 lib/built-in.o
 .text.fdtdec_next_compatible_subnode
                0x0000000000000000       0x7c lib/built-in.o
 .text.fdtdec_next_alias
                0x0000000000000000       0xac lib/built-in.o
 .text.fdtdec_add_aliases_for_id
                0x0000000000000000      0x25c lib/built-in.o
 .text.fdtdec_find_aliases_for_id
                0x0000000000000000       0x60 lib/built-in.o
 .text.fdtdec_get_chosen_prop
                0x0000000000000000       0x44 lib/built-in.o
 .text.fdtdec_get_chosen_node
                0x0000000000000000       0x3c lib/built-in.o
 .text.fdtdec_check_fdt
                0x0000000000000000       0x18 lib/built-in.o
 .text.fdtdec_lookup_phandle
                0x0000000000000000       0x44 lib/built-in.o
 .text.decode_timing_property
                0x0000000000000000       0x8c lib/built-in.o
 .text.fdtdec_get_int_array_count
                0x0000000000000000       0x68 lib/built-in.o
 .text.fdtdec_locate_array
                0x0000000000000000       0x28 lib/built-in.o
 .text.fdtdec_get_bool
                0x0000000000000000       0x20 lib/built-in.o
 .text.fdtdec_get_child_count
                0x0000000000000000       0x44 lib/built-in.o
 .text.fdtdec_get_byte_array
                0x0000000000000000       0x48 lib/built-in.o
 .text.fdtdec_locate_byte_array
                0x0000000000000000       0x24 lib/built-in.o
 .text.fdtdec_get_config_bool
                0x0000000000000000       0x54 lib/built-in.o
 .text.fdtdec_decode_region
                0x0000000000000000       0x5c lib/built-in.o
 .text.fdtdec_get_addr
                0x0000000000000000        0x8 lib/built-in.o
 .text.fdt_get_named_resource
                0x0000000000000000       0x64 lib/built-in.o
 .text.fdtdec_decode_memory_region
                0x0000000000000000      0x130 lib/built-in.o
 .text.fdtdec_decode_display_timing
                0x0000000000000000      0x304 lib/built-in.o
 .text.fdtdec_setup_memory_size
                0x0000000000000000       0x5c lib/built-in.o
 .text.fdtdec_setup_memory_banksize
                0x0000000000000000      0x124 lib/built-in.o
 .text.print_freq
                0x0000000000000000      0x138 lib/built-in.o
 .text.crc32_wd_buf
                0x0000000000000000       0x3c lib/built-in.o
 .text.iter_div_u64_rem
                0x0000000000000000       0x28 lib/built-in.o
 .text.copy_from_user
                0x0000000000000000       0x18 lib/built-in.o
 .text.get_mem  0x0000000000000000       0x2c lib/built-in.o
 .text.kmem_cache_alloc
                0x0000000000000000        0xc lib/built-in.o
 .text.membuff_purge
                0x0000000000000000        0xc lib/built-in.o
 .text.membuff_putraw
                0x0000000000000000       0xb4 lib/built-in.o
 .text.membuff_putbyte
                0x0000000000000000       0x3c lib/built-in.o
 .text.membuff_getraw
                0x0000000000000000       0x80 lib/built-in.o
 .text.membuff_getbyte
                0x0000000000000000       0x3c lib/built-in.o
 .text.membuff_peekbyte
                0x0000000000000000       0x3c lib/built-in.o
 .text.membuff_get
                0x0000000000000000       0x94 lib/built-in.o
 .text.membuff_put
                0x0000000000000000       0x88 lib/built-in.o
 .text.membuff_isempty
                0x0000000000000000       0x10 lib/built-in.o
 .text.membuff_avail
                0x0000000000000000       0x54 lib/built-in.o
 .text.membuff_size
                0x0000000000000000       0x10 lib/built-in.o
 .text.membuff_makecontig
                0x0000000000000000       0xa4 lib/built-in.o
 .text.membuff_free
                0x0000000000000000       0x3c lib/built-in.o
 .text.membuff_readline
                0x0000000000000000       0xa8 lib/built-in.o
 .text.membuff_extend_by
                0x0000000000000000       0xe0 lib/built-in.o
 .text.membuff_init
                0x0000000000000000       0x10 lib/built-in.o
 .text.membuff_new
                0x0000000000000000       0x48 lib/built-in.o
 .text.membuff_uninit
                0x0000000000000000        0xc lib/built-in.o
 .text.membuff_dispose
                0x0000000000000000       0x28 lib/built-in.o
 .text.strswab  0x0000000000000000       0x3c lib/built-in.o
 .text.strlcpy  0x0000000000000000       0x50 lib/built-in.o
 .text.memscan  0x0000000000000000       0x24 lib/built-in.o
 .text.memchr_inv
                0x0000000000000000       0xe4 lib/built-in.o
 .text.table_compute_checksum
                0x0000000000000000       0x2c lib/built-in.o
 .text.get_ticks
                0x0000000000000000       0x44 lib/built-in.o
 .text.print_hex_dump
                0x0000000000000000        0x4 lib/built-in.o
 .text.print_hex_dump_bytes
                0x0000000000000000        0x4 lib/built-in.o
 .text.vsnprintf
                0x0000000000000000       0x50 lib/built-in.o
 .text.scnprintf
                0x0000000000000000       0x74 lib/built-in.o
 .text.__assert_fail
                0x0000000000000000       0x18 lib/built-in.o
 .text.print_grouped_ull
                0x0000000000000000       0x90 lib/built-in.o
 .text.str2off  0x0000000000000000       0x50 lib/built-in.o
 .text.str2long
                0x0000000000000000       0x50 lib/built-in.o
 .text.panic_str
                0x0000000000000000       0x18 lib/built-in.o
 .text.strmhz   0x0000000000000000       0x6c lib/built-in.o
 .rodata.fdt_create_empty_tree.str1.1
                0x0000000000000000        0x1 lib/built-in.o
 .rodata.fdt_find_regions
                0x0000000000000000       0x12 lib/built-in.o
 .rodata.fdt_add_alias_regions.str1.1
                0x0000000000000000        0x8 lib/built-in.o
 .rodata.fdt_next_region
                0x0000000000000000       0x12 lib/built-in.o
 .rodata.crc7_syndrome_table
                0x0000000000000000      0x100 lib/built-in.o
 .rodata.crc16_tab
                0x0000000000000000      0x200 lib/built-in.o
 .rodata.errno_str.str1.1
                0x0000000000000000        0x8 lib/built-in.o
 .rodata.errno_message
                0x0000000000000000      0x3e8 lib/built-in.o
 .rodata.sha256_der_prefix
                0x0000000000000000       0x13 lib/built-in.o
 .rodata.list_sort.str1.1
                0x0000000000000000       0x34 lib/built-in.o
 .rodata.iavb_crc32_tab
                0x0000000000000000      0x400 lib/built-in.o
 .rodata.avb_property_descriptor_validate_and_byteswap.str1.1
                0x0000000000000000       0xa8 lib/built-in.o
 .rodata.property_lookup_desc_foreach.str1.1
                0x0000000000000000       0x24 lib/built-in.o
 .rodata.avb_property_lookup_uint64.str1.1
                0x0000000000000000       0x17 lib/built-in.o
 .rodata.avb_slot_verify_result_to_string.str1.1
                0x0000000000000000       0x33 lib/built-in.o
 .rodata.CSWTCH.54
                0x0000000000000000       0x48 lib/built-in.o
 .rodata.verify_certificate.str1.1
                0x0000000000000000       0x85 lib/built-in.o
 .rodata.verify_pik_certificate.str1.1
                0x0000000000000000       0x41 lib/built-in.o
 .rodata.avb_atx_validate_unlock_credential.str1.1
                0x0000000000000000       0xe7 lib/built-in.o
 .rodata.load_top_level_vbmeta_header.str1.1
                0x0000000000000000      0x1f4 lib/built-in.o
 .rodata.avb_user_verification_get.str1.1
                0x0000000000000000       0x30 lib/built-in.o
 .rodata.avb_user_verification_set.str1.1
                0x0000000000000000       0x25 lib/built-in.o
 .rodata.avb_user_verity_get.str1.1
                0x0000000000000000       0x30 lib/built-in.o
 .rodata.avb_user_verity_set.str1.1
                0x0000000000000000       0x25 lib/built-in.o
 .rodata.rk_avb_read_vbootkey_hash.str1.1
                0x0000000000000000       0x22 lib/built-in.o
 .rodata.rk_avb_close_optee_client.str1.1
                0x0000000000000000       0x26 lib/built-in.o
 .rodata.avb_ab_mark_slot_successful.str1.1
                0x0000000000000000       0x2c lib/built-in.o
 .rodata.rk_avb_append_part_slot.str1.1
                0x0000000000000000       0x21 lib/built-in.o
 .rodata.z_errmsg
                0x0000000000000000       0x50 lib/built-in.o
 .rodata.fdtdec_next_alias.str1.1
                0x0000000000000000        0x7 lib/built-in.o
 .rodata.fdtdec_get_chosen_prop.str1.1
                0x0000000000000000        0x8 lib/built-in.o
 .rodata.fdtdec_decode_memory_region.str1.1
                0x0000000000000000       0x25 lib/built-in.o
 .rodata.fdtdec_decode_display_timing.str1.1
                0x0000000000000000       0xca lib/built-in.o
 .rodata.fdtdec_setup_memory_banksize.str1.1
                0x0000000000000000       0x13 lib/built-in.o
 .rodata.compat_names
                0x0000000000000000      0x148 lib/built-in.o
 .rodata.names.1
                0x0000000000000000        0x3 lib/built-in.o
 .rodata.hex_asc_upper
                0x0000000000000000       0x11 lib/built-in.o
 .rodata.__assert_fail.str1.1
                0x0000000000000000       0x22 lib/built-in.o
 .rodata.print_grouped_ull.str1.1
                0x0000000000000000        0xb lib/built-in.o
 .rodata.strmhz.str1.1
                0x0000000000000000        0xb lib/built-in.o
 .eh_frame      0x0000000000000000     0x6590 lib/built-in.o
 .data.cur      0x0000000000000000        0x4 lib/built-in.o
 .data.current  0x0000000000000000        0x8 lib/built-in.o
 .bss           0x0000000000000000        0x0 lib/built-in.o
 .text          0x0000000000000000        0x0 net/built-in.o
 .text.add_ip_checksums
                0x0000000000000000       0x3c net/built-in.o
 .text.eth_init_state_only
                0x0000000000000000       0x38 net/built-in.o
 .text.eth_is_active
                0x0000000000000000       0x34 net/built-in.o
 .text.net_get_udp_handler
                0x0000000000000000        0xc net/built-in.o
 .text.net_set_arp_handler
                0x0000000000000000       0x18 net/built-in.o
 .text.random_port
                0x0000000000000000       0x20 net/built-in.o
 .text.vlan_to_string
                0x0000000000000000       0x44 net/built-in.o
 .text.env_get_vlan
                0x0000000000000000       0x14 net/built-in.o
 .rodata.vlan_to_string.str1.1
                0x0000000000000000        0x8 net/built-in.o
 .eh_frame      0x0000000000000000     0x11a4 net/built-in.o
 .data          0x0000000000000000        0x0 net/built-in.o
 .data.tftp_timeout_ms
                0x0000000000000000        0x8 net/built-in.o
 .bss           0x0000000000000000        0x0 net/built-in.o
 .bss.net_busy_flag
                0x0000000000000000        0x4 net/built-in.o
 .text          0x0000000000000000        0x0 test/built-in.o
 .eh_frame      0x0000000000000000      0x470 test/built-in.o
 .data          0x0000000000000000        0x0 test/built-in.o
 .bss           0x0000000000000000        0x0 test/built-in.o
 .text          0x0000000000000000        0x0 test/dm/built-in.o
 .eh_frame      0x0000000000000000       0xc0 test/dm/built-in.o
 .data          0x0000000000000000        0x0 test/dm/built-in.o
 .bss           0x0000000000000000        0x0 test/dm/built-in.o

Memory Configuration

Name             Origin             Length             Attributes
*default*        0x0000000000000000 0xffffffffffffffff

Linker script and memory map

Address of section .text set to 0x200000
                0x0000000000000000                . = 0x0
                0x0000000000000000                . = ALIGN (0x8)

.text           0x0000000000200000    0xb080c
 *(.__image_copy_start)
 .__image_copy_start
                0x0000000000200000        0x0 arch/arm/lib/built-in.o
                0x0000000000200000                __image_copy_start
 arch/arm/cpu/armv8/start.o(.text*)
 .text          0x0000000000200000      0x1a8 arch/arm/cpu/armv8/start.o
                0x0000000000200000                _start
                0x0000000000200008                _TEXT_BASE
                0x0000000000200010                _end_ofs
                0x0000000000200018                _bss_start_ofs
                0x0000000000200020                _bss_end_ofs
                0x000000000020002c                save_boot_params_ret
                0x0000000000200104                apply_core_errata
                0x0000000000200128                lowlevel_init
                0x0000000000200148                smp_kick_all_cpus
                0x0000000000200154                c_runtime_cpu_setup
                0x000000000020018c                save_boot_params
 *(.text*)
 *fill*         0x00000000002001a8      0x658 
 .text          0x0000000000200800      0x6d4 arch/arm/cpu/armv8/built-in.o
                0x0000000000200800                vectors
                0x0000000000200cec                __arm_smccc_smc
                0x0000000000200d18                __arm_smccc_hvc
                0x0000000000200d48                cpu_suspend
                0x0000000000200de8                cpu_do_suspend
                0x0000000000200e54                cpu_resume
                0x0000000000200e74                cpu_do_resume
 .text.sdelay   0x0000000000200ed4        0xc arch/arm/cpu/armv8/built-in.o
                0x0000000000200ed4                sdelay
 .text.cleanup_before_linux
                0x0000000000200ee0       0x2c arch/arm/cpu/armv8/built-in.o
                0x0000000000200ee0                cleanup_before_linux
 .text.get_tbclk
                0x0000000000200f0c        0x8 arch/arm/cpu/armv8/built-in.o
                0x0000000000200f0c                get_tbclk
 .text.get_ticks
                0x0000000000200f14       0x10 arch/arm/cpu/armv8/built-in.o
                0x0000000000200f14                get_ticks
 .text.count_required_pts
                0x0000000000200f24       0xf8 arch/arm/cpu/armv8/built-in.o
 .text.create_table
                0x000000000020101c       0x70 arch/arm/cpu/armv8/built-in.o
 .text.split_block
                0x000000000020108c       0x90 arch/arm/cpu/armv8/built-in.o
 .text.get_tcr  0x000000000020111c       0xe4 arch/arm/cpu/armv8/built-in.o
                0x000000000020111c                get_tcr
 .text.find_pte
                0x0000000000201200       0x8c arch/arm/cpu/armv8/built-in.o
 .text.get_page_table_size
                0x000000000020128c       0x48 arch/arm/cpu/armv8/built-in.o
                0x000000000020128c                get_page_table_size
 .text.setup_pgtables
                0x00000000002012d4      0x16c arch/arm/cpu/armv8/built-in.o
                0x00000000002012d4                setup_pgtables
 .text.mmu_setup
                0x0000000000201440      0x13c arch/arm/cpu/armv8/built-in.o
                0x0000000000201440                mmu_setup
 .text.invalidate_dcache_all
                0x000000000020157c       0x14 arch/arm/cpu/armv8/built-in.o
                0x000000000020157c                invalidate_dcache_all
 .text.flush_dcache_all
                0x0000000000201590       0x14 arch/arm/cpu/armv8/built-in.o
                0x0000000000201590                flush_dcache_all
 .text.invalidate_dcache_range
                0x00000000002015a4        0x4 arch/arm/cpu/armv8/built-in.o
                0x00000000002015a4                invalidate_dcache_range
 .text.flush_dcache_range
                0x00000000002015a8        0x4 arch/arm/cpu/armv8/built-in.o
                0x00000000002015a8                flush_dcache_range
 .text.dcache_enable
                0x00000000002015ac      0x110 arch/arm/cpu/armv8/built-in.o
                0x00000000002015ac                dcache_enable
 .text.dcache_disable
                0x00000000002016bc       0x84 arch/arm/cpu/armv8/built-in.o
                0x00000000002016bc                dcache_disable
 .text.icache_disable
                0x0000000000201740       0x64 arch/arm/cpu/armv8/built-in.o
                0x0000000000201740                icache_disable
 .text.invalidate_icache_all
                0x00000000002017a4       0x14 arch/arm/cpu/armv8/built-in.o
                0x00000000002017a4                invalidate_icache_all
 .text.icache_enable
                0x00000000002017b8       0x74 arch/arm/cpu/armv8/built-in.o
                0x00000000002017b8                icache_enable
 .text.__asm_dcache_level
                0x000000000020182c       0x64 arch/arm/cpu/armv8/built-in.o
                0x000000000020182c                __asm_dcache_level
 .text.__asm_dcache_all
                0x0000000000201890       0x60 arch/arm/cpu/armv8/built-in.o
                0x0000000000201890                __asm_dcache_all
 .text.__asm_flush_dcache_all
                0x00000000002018f0        0x8 arch/arm/cpu/armv8/built-in.o
                0x00000000002018f0                __asm_flush_dcache_all
 .text.__asm_invalidate_dcache_all
                0x00000000002018f8        0x8 arch/arm/cpu/armv8/built-in.o
                0x00000000002018f8                __asm_invalidate_dcache_all
 .text.__asm_flush_dcache_range
                0x0000000000201900       0x3c arch/arm/cpu/armv8/built-in.o
                0x0000000000201900                __asm_flush_dcache_range
 .text.__asm_invalidate_dcache_range
                0x000000000020193c       0x34 arch/arm/cpu/armv8/built-in.o
                0x000000000020193c                __asm_invalidate_dcache_range
 .text.__asm_invalidate_icache_all
                0x0000000000201970        0xc arch/arm/cpu/armv8/built-in.o
                0x0000000000201970                __asm_invalidate_icache_all
 .text.__asm_invalidate_l3_dcache
                0x000000000020197c        0x8 arch/arm/cpu/armv8/built-in.o
                0x000000000020197c                __asm_invalidate_l3_dcache
 .text.__asm_flush_l3_dcache
                0x0000000000201984        0x8 arch/arm/cpu/armv8/built-in.o
                0x0000000000201984                __asm_flush_l3_dcache
 .text.__asm_invalidate_l3_icache
                0x000000000020198c        0x8 arch/arm/cpu/armv8/built-in.o
                0x000000000020198c                __asm_invalidate_l3_icache
 .text.__asm_invalidate_tlb_all
                0x0000000000201994       0x4c arch/arm/cpu/armv8/built-in.o
                0x0000000000201994                __asm_invalidate_tlb_all
 .text.armv8_switch_to_el2
                0x00000000002019e0       0xb8 arch/arm/cpu/armv8/built-in.o
                0x00000000002019e0                armv8_switch_to_el2
 .text.cpu_suspend_save
                0x0000000000201a98       0x2c arch/arm/cpu/armv8/built-in.o
                0x0000000000201a98                cpu_suspend_save
 *fill*         0x0000000000201ac4        0x4 
 .text          0x0000000000201ac8      0x1f0 arch/arm/lib/built-in.o
                0x0000000000201ac8                _main
                0x0000000000201b48                relocate_code
                0x0000000000201c20                gic_init_secure
                0x0000000000201c64                gic_init_secure_percpu
                0x0000000000201c88                gic_kick_secondary_cpus
                0x0000000000201c98                gic_wait_for_interrupt
 .text.arch_fixup_fdt
                0x0000000000201cb8       0xa0 arch/arm/lib/built-in.o
                0x0000000000201cb8                arch_fixup_fdt
 .text.boot_prep_linux
                0x0000000000201d58       0x58 arch/arm/lib/built-in.o
 .text.arch_lmb_reserve
                0x0000000000201db0       0x14 arch/arm/lib/built-in.o
                0x0000000000201db0                arch_lmb_reserve
 .text.update_os_arch_secondary_cores
                0x0000000000201dc4        0x4 arch/arm/lib/built-in.o
                0x0000000000201dc4                update_os_arch_secondary_cores
 .text.boot_jump_linux
                0x0000000000201dc8      0x118 arch/arm/lib/built-in.o
 .text.do_bootm_linux
                0x0000000000201ee0       0x7c arch/arm/lib/built-in.o
                0x0000000000201ee0                do_bootm_linux
 .text.boot_prep_vxworks
                0x0000000000201f5c       0x4c arch/arm/lib/built-in.o
                0x0000000000201f5c                boot_prep_vxworks
 .text.boot_jump_vxworks
                0x0000000000201fa8       0x10 arch/arm/lib/built-in.o
                0x0000000000201fa8                boot_jump_vxworks
 .text.arch_reserve_stacks
                0x0000000000201fb8       0x10 arch/arm/lib/built-in.o
                0x0000000000201fb8                arch_reserve_stacks
 .text.show_regs
                0x0000000000201fc8      0x25c arch/arm/lib/built-in.o
                0x0000000000201fc8                show_regs
 .text.do_bad_sync
                0x0000000000202224       0x30 arch/arm/lib/built-in.o
                0x0000000000202224                do_bad_sync
 .text.do_bad_irq
                0x0000000000202254       0x30 arch/arm/lib/built-in.o
                0x0000000000202254                do_bad_irq
 .text.do_bad_fiq
                0x0000000000202284       0x30 arch/arm/lib/built-in.o
                0x0000000000202284                do_bad_fiq
 .text.do_bad_error
                0x00000000002022b4       0x30 arch/arm/lib/built-in.o
                0x00000000002022b4                do_bad_error
 .text.do_sync  0x00000000002022e4       0x30 arch/arm/lib/built-in.o
                0x00000000002022e4                do_sync
 .text.do_fiq   0x0000000000202314       0x30 arch/arm/lib/built-in.o
                0x0000000000202314                do_fiq
 .text.do_error
                0x0000000000202344       0x30 arch/arm/lib/built-in.o
                0x0000000000202344                do_error
 .text.dump_core_stack
                0x0000000000202374       0xdc arch/arm/lib/built-in.o
                0x0000000000202374                dump_core_stack
 .text.flush_cache
                0x0000000000202450        0x8 arch/arm/lib/built-in.o
                0x0000000000202450                flush_cache
 .text          0x0000000000202458       0x28 arch/arm/mach-rockchip/built-in.o
                0x0000000000202458                armv8_el2_to_aarch32
 .text.fit_board_verify_required_sigs
                0x0000000000202480       0x4c arch/arm/mach-rockchip/built-in.o
                0x0000000000202480                fit_board_verify_required_sigs
 .text.rockchip_rockusb_get_chip_info
                0x00000000002024cc       0x20 arch/arm/mach-rockchip/built-in.o
                0x00000000002024cc                rockchip_rockusb_get_chip_info
 .text.misc_require_recovery
                0x00000000002024ec      0x130 arch/arm/mach-rockchip/built-in.o
 .text.get_bcb_recovery_msg
                0x000000000020261c       0x24 arch/arm/mach-rockchip/built-in.o
                0x000000000020261c                get_bcb_recovery_msg
 .text.rockchip_get_boot_mode
                0x0000000000202640      0x2ec arch/arm/mach-rockchip/built-in.o
                0x0000000000202640                rockchip_get_boot_mode
 .text.setup_boot_mode
                0x000000000020292c       0xf0 arch/arm/mach-rockchip/built-in.o
                0x000000000020292c                setup_boot_mode
 .text.bootdev_init
                0x0000000000202a1c       0x80 arch/arm/mach-rockchip/built-in.o
 .text.crypto_csum.isra.0
                0x0000000000202a9c       0x68 arch/arm/mach-rockchip/built-in.o
 .text.rk_board_early_fdt_fixup
                0x0000000000202b04       0x20 arch/arm/mach-rockchip/built-in.o
                0x0000000000202b0c                rk_board_early_fdt_fixup
 .text.rk_board_scan_bootdev
                0x0000000000202b24       0x14 arch/arm/mach-rockchip/built-in.o
                0x0000000000202b24                rk_board_scan_bootdev
 .text.boot_devtype_init
                0x0000000000202b38      0x108 arch/arm/mach-rockchip/built-in.o
 .text.rockchip_get_bootdev
                0x0000000000202c40      0x2d8 arch/arm/mach-rockchip/built-in.o
                0x0000000000202c40                rockchip_get_bootdev
 .text.rockchip_dnl_key_pressed
                0x0000000000202f18       0x18 arch/arm/mach-rockchip/built-in.o
                0x0000000000202f18                rockchip_dnl_key_pressed
 .text.setup_download_mode
                0x0000000000202f30       0xd8 arch/arm/mach-rockchip/built-in.o
                0x0000000000202f30                setup_download_mode
 .text.rockchip_read_dtb_file
                0x0000000000203008      0x18c arch/arm/mach-rockchip/built-in.o
                0x0000000000203008                rockchip_read_dtb_file
 .text.rockchip_ram_read_dtb_file
                0x0000000000203194      0x168 arch/arm/mach-rockchip/built-in.o
                0x0000000000203194                rockchip_ram_read_dtb_file
 .text.rockchip_set_serialno.isra.0
                0x00000000002032fc      0x15c arch/arm/mach-rockchip/built-in.o
 .text.rk_board_late_init
                0x0000000000203458        0x8 arch/arm/mach-rockchip/built-in.o
                0x0000000000203458                rk_board_late_init
 .text.rk_board_fdt_fixup
                0x0000000000203460      0x7f4 arch/arm/mach-rockchip/built-in.o
                0x0000000000203468                rk_board_fdt_fixup
 .text.rk_board_dm_fdt_fixup
                0x0000000000203c54        0x8 arch/arm/mach-rockchip/built-in.o
                0x0000000000203c54                rk_board_dm_fdt_fixup
 .text.set_armclk_rate
                0x0000000000203c5c       0x94 arch/arm/mach-rockchip/built-in.o
                0x0000000000203c64                set_armclk_rate
 .text.rk_board_init
                0x0000000000203cf0       0x44 arch/arm/mach-rockchip/built-in.o
                0x0000000000203cf8                rk_board_init
 .text.fb_set_reboot_flag
                0x0000000000203d34       0x38 arch/arm/mach-rockchip/built-in.o
                0x0000000000203d34                fb_set_reboot_flag
 .text.board_late_init
                0x0000000000203d6c      0x428 arch/arm/mach-rockchip/built-in.o
                0x0000000000203d6c                board_late_init
 .text.board_init
                0x0000000000204194       0xe0 arch/arm/mach-rockchip/built-in.o
                0x0000000000204194                board_init
 .text.interrupt_debugger_init
                0x0000000000204274        0x8 arch/arm/mach-rockchip/built-in.o
                0x0000000000204274                interrupt_debugger_init
 .text.board_fdt_fixup
                0x000000000020427c       0x34 arch/arm/mach-rockchip/built-in.o
                0x000000000020427c                board_fdt_fixup
 .text.arch_preboot_os
                0x00000000002042b0       0x48 arch/arm/mach-rockchip/built-in.o
                0x00000000002042b0                arch_preboot_os
 .text.enable_caches
                0x00000000002042f8       0x14 arch/arm/mach-rockchip/built-in.o
                0x00000000002042f8                enable_caches
 .text.board_lmb_reserve
                0x000000000020430c       0xa4 arch/arm/mach-rockchip/built-in.o
                0x000000000020430c                board_lmb_reserve
 .text.board_bidram_reserve
                0x00000000002043b0       0x58 arch/arm/mach-rockchip/built-in.o
                0x00000000002043b0                board_bidram_reserve
 .text.board_sysmem_reserve
                0x0000000000204408        0x8 arch/arm/mach-rockchip/built-in.o
                0x0000000000204408                board_sysmem_reserve
 .text.board_bidram_parse_fn
                0x0000000000204410        0xc arch/arm/mach-rockchip/built-in.o
                0x0000000000204410                board_bidram_parse_fn
 .text.board_init_f_boot_flags
                0x000000000020441c       0x20 arch/arm/mach-rockchip/built-in.o
                0x000000000020441c                board_init_f_boot_flags
 .text.board_usb_init
                0x000000000020443c       0xb0 arch/arm/mach-rockchip/built-in.o
                0x000000000020443c                board_usb_init
 .text.board_usb_cleanup
                0x00000000002044ec        0x8 arch/arm/mach-rockchip/built-in.o
                0x00000000002044ec                board_usb_cleanup
 .text.bootm_board_start
                0x00000000002044f4       0xd0 arch/arm/mach-rockchip/built-in.o
                0x00000000002044f4                bootm_board_start
 .text.bootm_image_populate_dtb
                0x00000000002045c4       0x58 arch/arm/mach-rockchip/built-in.o
                0x00000000002045c4                bootm_image_populate_dtb
 .text.board_do_bootm
                0x000000000020461c      0x160 arch/arm/mach-rockchip/built-in.o
                0x000000000020461c                board_do_bootm
 .text.autoboot_command_fail_handle
                0x000000000020477c        0x4 arch/arm/mach-rockchip/built-in.o
                0x000000000020477c                autoboot_command_fail_handle
 .text.board_quiesce_devices
                0x0000000000204780       0x60 arch/arm/mach-rockchip/built-in.o
                0x0000000000204780                board_quiesce_devices
 .text.board_fdt_chosen_bootargs
                0x00000000002047e0      0x1f0 arch/arm/mach-rockchip/built-in.o
                0x00000000002047e0                board_fdt_chosen_bootargs
 .text.ft_verify_fdt
                0x00000000002049d0      0x2a4 arch/arm/mach-rockchip/built-in.o
                0x00000000002049d0                ft_verify_fdt
 .text.iomem_show
                0x0000000000204c74       0xc0 arch/arm/mach-rockchip/built-in.o
                0x0000000000204c74                iomem_show
 .text.iomem_show_by_match
                0x0000000000204d34      0x120 arch/arm/mach-rockchip/built-in.o
 .text.do_iomem_by_match
                0x0000000000204e54       0xb8 arch/arm/mach-rockchip/built-in.o
 .text.is_hotkey
                0x0000000000204f0c       0x84 arch/arm/mach-rockchip/built-in.o
                0x0000000000204f0c                is_hotkey
 .text.hotkey_run
                0x0000000000204f90       0xe0 arch/arm/mach-rockchip/built-in.o
                0x0000000000204f90                hotkey_run
 .text.init_kernel_dtb
                0x0000000000205070      0x5a4 arch/arm/mach-rockchip/built-in.o
                0x0000000000205070                init_kernel_dtb
 .text.__invoke_sip_fn_smc
                0x0000000000205614       0x50 arch/arm/mach-rockchip/built-in.o
 .text.psci_system_suspend
                0x0000000000205664       0x34 arch/arm/mach-rockchip/built-in.o
                0x0000000000205664                psci_system_suspend
 .text.sip_smc_dram
                0x0000000000205698       0x28 arch/arm/mach-rockchip/built-in.o
                0x0000000000205698                sip_smc_dram
 .text.sip_smc_request_share_mem
                0x00000000002056c0       0x28 arch/arm/mach-rockchip/built-in.o
                0x00000000002056c0                sip_smc_request_share_mem
 .text.sip_smc_hdcp_config
                0x00000000002056e8       0x30 arch/arm/mach-rockchip/built-in.o
                0x00000000002056e8                sip_smc_hdcp_config
 .text.vendor_ops
                0x0000000000205718      0x110 arch/arm/mach-rockchip/built-in.o
 .text.vendor_test_reset
                0x0000000000205828       0xec arch/arm/mach-rockchip/built-in.o
 .text.flash_vendor_dev_ops_register
                0x0000000000205914       0x28 arch/arm/mach-rockchip/built-in.o
                0x0000000000205914                flash_vendor_dev_ops_register
 .text.vendor_storage_init
                0x000000000020593c      0x240 arch/arm/mach-rockchip/built-in.o
                0x000000000020593c                vendor_storage_init
 .text.vendor_storage_fixup
                0x0000000000205b7c       0x74 arch/arm/mach-rockchip/built-in.o
                0x0000000000205b7c                vendor_storage_fixup
 .text.vendor_storage_read
                0x0000000000205bf0       0xa8 arch/arm/mach-rockchip/built-in.o
                0x0000000000205bf0                vendor_storage_read
 .text.vendor_storage_write
                0x0000000000205c98      0x210 arch/arm/mach-rockchip/built-in.o
                0x0000000000205c98                vendor_storage_write
 .text.vendor_storage_test
                0x0000000000205ea8      0x4b0 arch/arm/mach-rockchip/built-in.o
                0x0000000000205ea8                vendor_storage_test
 .text.vendor_handle_hdcp
                0x0000000000206358      0x13c arch/arm/mach-rockchip/built-in.o
                0x0000000000206358                vendor_handle_hdcp
 .text.do_dump_resource
                0x0000000000206494       0xb4 arch/arm/mach-rockchip/built-in.o
 .text.resource_check_header
                0x0000000000206548       0x14 arch/arm/mach-rockchip/built-in.o
 .text.resource_add_file
                0x000000000020655c       0xe4 arch/arm/mach-rockchip/built-in.o
 .text.resource_default
                0x0000000000206640       0x54 arch/arm/mach-rockchip/built-in.o
 .text.resource_setup_list.isra.0
                0x0000000000206694       0xbc arch/arm/mach-rockchip/built-in.o
 .text.resource_setup_ram_list
                0x0000000000206750       0x64 arch/arm/mach-rockchip/built-in.o
                0x0000000000206750                resource_setup_ram_list
 .text.resource_scan
                0x00000000002067b4      0x400 arch/arm/mach-rockchip/built-in.o
 .text.resource_get_file
                0x0000000000206bb4       0x68 arch/arm/mach-rockchip/built-in.o
 .text.rockchip_read_resource_file
                0x0000000000206c1c       0xf0 arch/arm/mach-rockchip/built-in.o
                0x0000000000206c1c                rockchip_read_resource_file
 .text.rockchip_read_resource_dtb
                0x0000000000206d0c       0xa8 arch/arm/mach-rockchip/built-in.o
                0x0000000000206d0c                rockchip_read_resource_dtb
 .text.param_parse_atf_mem
                0x0000000000206db4       0x88 arch/arm/mach-rockchip/built-in.o
                0x0000000000206db4                param_parse_atf_mem
 .text.param_parse_optee_mem
                0x0000000000206e3c       0xd8 arch/arm/mach-rockchip/built-in.o
                0x0000000000206e3c                param_parse_optee_mem
 .text.param_parse_common_resv_mem
                0x0000000000206f14        0xc arch/arm/mach-rockchip/built-in.o
                0x0000000000206f14                param_parse_common_resv_mem
 .text.param_parse_assign_bootdev
                0x0000000000206f20       0x6c arch/arm/mach-rockchip/built-in.o
                0x0000000000206f20                param_parse_assign_bootdev
 .text.param_parse_atags_bootdev
                0x0000000000206f8c      0x100 arch/arm/mach-rockchip/built-in.o
                0x0000000000206f8c                param_parse_atags_bootdev
 .text.param_parse_ddr_mem
                0x000000000020708c      0x168 arch/arm/mach-rockchip/built-in.o
                0x000000000020708c                param_parse_ddr_mem
 .text.param_parse_pre_serial
                0x00000000002071f4       0x9c arch/arm/mach-rockchip/built-in.o
                0x00000000002071f4                param_parse_pre_serial
 .text.param_parse_pubkey_fuse_programmed
                0x0000000000207290       0x58 arch/arm/mach-rockchip/built-in.o
                0x0000000000207290                param_parse_pubkey_fuse_programmed
 .text.rockchip_sdram_size
                0x00000000002072e8      0x19c arch/arm/mach-rockchip/built-in.o
                0x00000000002072e8                rockchip_sdram_size
 .text.dram_init_banksize
                0x0000000000207484       0x18 arch/arm/mach-rockchip/built-in.o
                0x0000000000207484                dram_init_banksize
 .text.dram_init
                0x000000000020749c       0x34 arch/arm/mach-rockchip/built-in.o
                0x000000000020749c                dram_init
 .text.board_get_usable_ram_top
                0x00000000002074d0       0x18 arch/arm/mach-rockchip/built-in.o
                0x00000000002074d0                board_get_usable_ram_top
 .text.rockchip_get_clk
                0x00000000002074e8       0x14 arch/arm/mach-rockchip/built-in.o
                0x00000000002074e8                rockchip_get_clk
 .text.fixup_pcfg_drive_strength
                0x00000000002074fc       0x98 arch/arm/mach-rockchip/built-in.o
 .text.arch_cpu_init
                0x0000000000207594      0x118 arch/arm/mach-rockchip/built-in.o
                0x0000000000207594                arch_cpu_init
 .text.board_debug_uart_init
                0x00000000002076ac       0x50 arch/arm/mach-rockchip/built-in.o
                0x00000000002076ac                board_debug_uart_init
 .text.do_board_download
                0x00000000002076fc       0x4c arch/arm/mach-rockchip/built-in.o
                0x00000000002076fc                do_board_download
 .text.js_hash  0x0000000000207748       0x4c arch/arm/mach-rockchip/built-in.o
 .text.atags_bad_magic
                0x0000000000207794       0x54 arch/arm/mach-rockchip/built-in.o
                0x0000000000207794                atags_bad_magic
 .text.atags_overflow
                0x00000000002077e8       0x48 arch/arm/mach-rockchip/built-in.o
                0x00000000002077e8                atags_overflow
 .text.atags_is_available
                0x0000000000207830       0x1c arch/arm/mach-rockchip/built-in.o
                0x0000000000207830                atags_is_available
 .text.atags_get_tag
                0x000000000020784c       0x9c arch/arm/mach-rockchip/built-in.o
                0x000000000020784c                atags_get_tag
 .text.atags_destroy
                0x00000000002078e8       0x28 arch/arm/mach-rockchip/built-in.o
                0x00000000002078e8                atags_destroy
 .text.do_reboot_brom
                0x0000000000207910       0x40 cmd/built-in.o
 .text.do_go_exec
                0x0000000000207950       0x10 cmd/built-in.o
                0x0000000000207950                do_go_exec
 .text.do_go    0x0000000000207960       0x88 cmd/built-in.o
 .text.do_bootm
                0x00000000002079e8      0x12c cmd/built-in.o
                0x00000000002079e8                do_bootm
 .text.do_bootd
                0x0000000000207b14       0x2c cmd/built-in.o
                0x0000000000207b14                do_bootd
 .text.bootm_maybe_autostart
                0x0000000000207b40       0x74 cmd/built-in.o
                0x0000000000207b40                bootm_maybe_autostart
 .text.do_help  0x0000000000207bb4       0x3c cmd/built-in.o
 .text.do_version
                0x0000000000207bf0       0x40 cmd/built-in.o
 .text.blk_common_cmd
                0x0000000000207c30      0x3c8 cmd/built-in.o
                0x0000000000207c30                blk_common_cmd
 .text.do_blk   0x0000000000207ff8       0xf4 cmd/built-in.o
 .text.source   0x00000000002080ec      0x1d4 cmd/built-in.o
                0x00000000002080ec                source
 .text.do_source
                0x00000000002082c0       0x7c cmd/built-in.o
 .text.print_num
                0x000000000020833c       0x14 cmd/built-in.o
 .text.do_bdinfo
                0x0000000000208350      0x144 cmd/built-in.o
 .text.do_avb_version
                0x0000000000208494       0x38 cmd/built-in.o
                0x0000000000208494                do_avb_version
 .text.do_avb_verify_partition
                0x00000000002084cc       0xa0 cmd/built-in.o
                0x00000000002084cc                do_avb_verify_partition
 .text.do_boot_avb
                0x000000000020856c       0x94 cmd/built-in.o
 .text.do_boot_android
                0x0000000000208600       0xf8 cmd/built-in.o
 .text.do_avb_read_rollback_index
                0x00000000002086f8       0xa8 cmd/built-in.o
                0x00000000002086f8                do_avb_read_rollback_index
 .text.do_avb_read_is_device_unlocked
                0x00000000002087a0       0xa8 cmd/built-in.o
                0x00000000002087a0                do_avb_read_is_device_unlocked
 .text.do_avb_write_is_device_unlocked
                0x0000000000208848       0x98 cmd/built-in.o
                0x0000000000208848                do_avb_write_is_device_unlocked
 .text.do_avb_get_size_of_partition
                0x00000000002088e0       0x9c cmd/built-in.o
                0x00000000002088e0                do_avb_get_size_of_partition
 .text.do_avb_get_get_unique_guid_for_partition
                0x000000000020897c       0xa0 cmd/built-in.o
                0x000000000020897c                do_avb_get_get_unique_guid_for_partition
 .text.do_perm_attr_test
                0x0000000000208a1c       0xd4 cmd/built-in.o
                0x0000000000208a1c                do_perm_attr_test
 .text.do_avb_write_rollback_index
                0x0000000000208af0       0xc0 cmd/built-in.o
                0x0000000000208af0                do_avb_write_rollback_index
 .text.do_avb_read
                0x0000000000208bb0      0x144 cmd/built-in.o
                0x0000000000208bb0                do_avb_read
 .text.do_android_print_hdr
                0x0000000000208cf4       0xbc cmd/built-in.o
 .text.read_rockchip_image
                0x0000000000208db0       0xfc cmd/built-in.o
 .text.do_boot_rockchip
                0x0000000000208eac      0x238 cmd/built-in.o
 .text.do_booti
                0x00000000002090e4      0x16c cmd/built-in.o
                0x00000000002090e4                do_booti
 .text.do_coninfo
                0x0000000000209250       0xdc cmd/built-in.o
 .text.do_charge_display
                0x000000000020932c      0x10c cmd/built-in.o
 .text.dump_hash
                0x0000000000209438       0x74 cmd/built-in.o
 .text.do_crypto_csum
                0x00000000002094ac      0x260 cmd/built-in.o
 .text.do_dtimg
                0x000000000020970c       0x94 cmd/built-in.o
 .text.dtimg_get_fdt.part.0
                0x00000000002097a0      0x104 cmd/built-in.o
 .text.do_dtimg_start
                0x00000000002098a4       0x1c cmd/built-in.o
 .text.do_dtimg_dump
                0x00000000002098c0       0x80 cmd/built-in.o
 .text.do_dtimg_size
                0x0000000000209940       0x1c cmd/built-in.o
 .text.do_echo  0x000000000020995c       0xd4 cmd/built-in.o
 .text.do_exit  0x0000000000209a30       0x40 cmd/built-in.o
 .text.do_ext4_size
                0x0000000000209a70        0x8 cmd/built-in.o
                0x0000000000209a70                do_ext4_size
 .text.do_ext4_load
                0x0000000000209a78        0x8 cmd/built-in.o
                0x0000000000209a78                do_ext4_load
 .text.do_ext4_ls
                0x0000000000209a80        0x8 cmd/built-in.o
                0x0000000000209a80                do_ext4_ls
 .text.do_ext2load
                0x0000000000209a88        0x8 cmd/built-in.o
                0x0000000000209a88                do_ext2load
 .text.do_ext2ls
                0x0000000000209a90        0x8 cmd/built-in.o
 .text.do_fat_size
                0x0000000000209a98        0x8 cmd/built-in.o
                0x0000000000209a98                do_fat_size
 .text.do_fat_fsload
                0x0000000000209aa0        0x8 cmd/built-in.o
                0x0000000000209aa0                do_fat_fsload
 .text.do_fat_ls
                0x0000000000209aa8        0x8 cmd/built-in.o
 .text.do_fat_fsinfo
                0x0000000000209ab0       0x94 cmd/built-in.o
 .text.do_fat_fswrite
                0x0000000000209b44      0x120 cmd/built-in.o
 .text.fdt_valid
                0x0000000000209c64       0xcc cmd/built-in.o
 .text.is_printable_string
                0x0000000000209d30       0x84 cmd/built-in.o
 .text.print_data.part.0
                0x0000000000209db4      0x1b4 cmd/built-in.o
 .text.set_working_fdt_addr
                0x0000000000209f68       0x18 cmd/built-in.o
                0x0000000000209f68                set_working_fdt_addr
 .text.do_fdt   0x0000000000209f80      0xf80 cmd/built-in.o
 .text.do_size_wrapper
                0x000000000020af00        0x8 cmd/built-in.o
 .text.do_load_wrapper
                0x000000000020af08        0x8 cmd/built-in.o
 .text.do_save_wrapper
                0x000000000020af10        0x8 cmd/built-in.o
 .text.do_ls_wrapper
                0x000000000020af18        0x8 cmd/built-in.o
 .text.do_fstype_wrapper
                0x000000000020af20        0x4 cmd/built-in.o
 .text.do_download
                0x000000000020af24       0x50 cmd/built-in.o
 .text.do_mem_md
                0x000000000020af74       0xf4 cmd/built-in.o
 .text.do_mem_base
                0x000000000020b068       0x4c cmd/built-in.o
 .text.do_mem_crc
                0x000000000020b0b4       0x30 cmd/built-in.o
 .text.do_mem_loop
                0x000000000020b0e4      0x128 cmd/built-in.o
 .text.do_mem_cmp
                0x000000000020b20c      0x1a4 cmd/built-in.o
 .text.mod_mem.part.0
                0x000000000020b3b0      0x1b4 cmd/built-in.o
 .text.do_mem_mm
                0x000000000020b564       0x1c cmd/built-in.o
 .text.do_mem_nm
                0x000000000020b580       0x1c cmd/built-in.o
 .text.do_mem_mw
                0x000000000020b59c      0x108 cmd/built-in.o
 .text.do_mem_cp
                0x000000000020b6a4       0xc0 cmd/built-in.o
 .text.extract_range
                0x000000000020b764       0xfc cmd/built-in.o
 .text.do_mii   0x000000000020b860      0x8dc cmd/built-in.o
 .text.do_mdio  0x000000000020c13c      0x4a0 cmd/built-in.o
 .text.init_mmc_device
                0x000000000020c5dc       0x64 cmd/built-in.o
 .text.do_mmc_rescan
                0x000000000020c640       0x28 cmd/built-in.o
 .text.do_mmcrpmb
                0x000000000020c668      0x120 cmd/built-in.o
 .text.do_mmcops
                0x000000000020c788       0xd4 cmd/built-in.o
 .text.do_mmc_dev
                0x000000000020c85c      0x14c cmd/built-in.o
 .text.do_mmc_setdsr
                0x000000000020c9a8       0xbc cmd/built-in.o
 .text.do_mmcrpmb_counter
                0x000000000020ca64       0x50 cmd/built-in.o
 .text.do_mmcrpmb_write
                0x000000000020cab4      0x104 cmd/built-in.o
 .text.do_mmcrpmb_read
                0x000000000020cbb8      0x11c cmd/built-in.o
 .text.do_mmcrpmb_key
                0x000000000020ccd4       0xa0 cmd/built-in.o
 .text.do_mmc_testefuse
                0x000000000020cd74       0x50 cmd/built-in.o
 .text.do_mmc_hwpartition
                0x000000000020cdc4      0x4f4 cmd/built-in.o
 .text.do_mmc_list
                0x000000000020d2b8       0x1c cmd/built-in.o
 .text.do_mmcinfo
                0x000000000020d2d4      0x3c0 cmd/built-in.o
 .text.do_mmc_test_secure_storage
                0x000000000020d694       0xec cmd/built-in.o
 .text.do_mmc_part
                0x000000000020d780       0x64 cmd/built-in.o
 .text.do_mmc_erase
                0x000000000020d7e4      0x104 cmd/built-in.o
 .text.do_mmc_write
                0x000000000020d8e8      0x124 cmd/built-in.o
 .text.do_mmc_read
                0x000000000020da0c       0xfc cmd/built-in.o
 .text.init_rpmb
                0x000000000020db08       0xb0 cmd/built-in.o
                0x000000000020db08                init_rpmb
 .text.finish_rpmb
                0x000000000020dbb8       0x30 cmd/built-in.o
                0x000000000020dbb8                finish_rpmb
 .text.do_readcounter
                0x000000000020dbe8       0x2c cmd/built-in.o
                0x000000000020dbe8                do_readcounter
 .text.do_programkey
                0x000000000020dc14       0x2c cmd/built-in.o
                0x000000000020dc14                do_programkey
 .text.do_authenticatedread
                0x000000000020dc40       0x34 cmd/built-in.o
                0x000000000020dc40                do_authenticatedread
 .text.do_authenticatedwrite
                0x000000000020dc74       0x2c cmd/built-in.o
                0x000000000020dc74                do_authenticatedwrite
 .text.do_returnmmc
                0x000000000020dca0        0xc cmd/built-in.o
                0x000000000020dca0                do_returnmmc
 .text.netboot_common
                0x000000000020dcac      0x270 cmd/built-in.o
 .text.do_bootp
                0x000000000020df1c        0xc cmd/built-in.o
 .text.do_dhcp  0x000000000020df28        0xc cmd/built-in.o
 .text.do_nfs   0x000000000020df34        0xc cmd/built-in.o
 .text.do_tftpb
                0x000000000020df40       0x58 cmd/built-in.o
                0x000000000020df40                do_tftpb
 .text.do_ping  0x000000000020df98       0x7c cmd/built-in.o
 .text.do_part_list
                0x000000000020e014      0x18c cmd/built-in.o
 .text.do_part_start
                0x000000000020e1a0       0xdc cmd/built-in.o
 .text.do_part_size
                0x000000000020e27c       0xdc cmd/built-in.o
 .text.do_part  0x000000000020e358      0x128 cmd/built-in.o
 .text.eol_or_eof
                0x000000000020e480       0x24 cmd/built-in.o
 .text.do_pxe   0x000000000020e4a4       0x90 cmd/built-in.o
 .text.label_print
                0x000000000020e534       0x1c cmd/built-in.o
 .text.do_get_tftp
                0x000000000020e550       0x3c cmd/built-in.o
 .text.from_env
                0x000000000020e58c       0x3c cmd/built-in.o
 .text.label_destroy
                0x000000000020e5c8       0x68 cmd/built-in.o
 .text.destroy_pxe_menu
                0x000000000020e630       0x68 cmd/built-in.o
 .text.do_get_any
                0x000000000020e698       0x44 cmd/built-in.o
 .text.do_get_fat
                0x000000000020e6dc       0x40 cmd/built-in.o
 .text.do_get_ext2
                0x000000000020e71c       0x40 cmd/built-in.o
 .text.format_mac_pxe.constprop.0
                0x000000000020e75c       0x6c cmd/built-in.o
 .text.get_relfile
                0x000000000020e7c8      0x138 cmd/built-in.o
 .text.get_pxe_file
                0x000000000020e900       0x60 cmd/built-in.o
 .text.get_pxelinux_path
                0x000000000020e960       0x98 cmd/built-in.o
 .text.do_pxe_get
                0x000000000020e9f8      0x168 cmd/built-in.o
 .text.get_relfile_envaddr
                0x000000000020eb60       0x5c cmd/built-in.o
 .text.get_string.isra.0
                0x000000000020ebbc       0xdc cmd/built-in.o
 .text.get_token
                0x000000000020ec98      0x12c cmd/built-in.o
 .text.parse_sliteral
                0x000000000020edc4       0x6c cmd/built-in.o
 .text.parse_integer
                0x000000000020ee30       0x84 cmd/built-in.o
 .text.parse_pxefile_top
                0x000000000020eeb4      0x3fc cmd/built-in.o
 .text.handle_include
                0x000000000020f2b0       0xc4 cmd/built-in.o
 .text.parse_pxefile
                0x000000000020f374       0x7c cmd/built-in.o
 .text.label_boot
                0x000000000020f3f0      0x56c cmd/built-in.o
 .text.handle_pxe_menu
                0x000000000020f95c      0x188 cmd/built-in.o
 .text.do_pxe_boot
                0x000000000020fae4       0xf0 cmd/built-in.o
 .text.do_sysboot
                0x000000000020fbd4      0x208 cmd/built-in.o
 .text.rkusb_fini
                0x000000000020fddc       0x6c cmd/built-in.o
 .text.rkusb_erase_sector
                0x000000000020fe48       0x20 cmd/built-in.o
 .text.rkusb_write_sector
                0x000000000020fe68       0x6c cmd/built-in.o
 .text.do_rkusb
                0x000000000020fed4      0x448 cmd/built-in.o
 .text.rkusb_read_sector
                0x000000000021031c       0x5c cmd/built-in.o
 .text.do_rknand
                0x0000000000210378       0x6c cmd/built-in.o
 .text.do_false
                0x00000000002103e4        0x8 cmd/built-in.o
 .text.do_true  0x00000000002103ec        0x8 cmd/built-in.o
 .text.do_test  0x00000000002103f4      0x360 cmd/built-in.o
 .text.usb_get_class_desc
                0x0000000000210754       0xac cmd/built-in.o
 .text.usb_display_class_sub
                0x0000000000210800      0x18c cmd/built-in.o
 .text.usb_display_desc
                0x000000000021098c      0x14c cmd/built-in.o
 .text.usb_show_tree_graph
                0x0000000000210ad8      0x230 cmd/built-in.o
 .text.usb_show_subtree
                0x0000000000210d08       0x38 cmd/built-in.o
 .text.usb_for_each_root_dev
                0x0000000000210d40       0x68 cmd/built-in.o
 .text.usb_display_string
                0x0000000000210da8       0x4c cmd/built-in.o
 .text.usb_display_config
                0x0000000000210df4      0x254 cmd/built-in.o
 .text.usb_show_info
                0x0000000000211048       0x78 cmd/built-in.o
 .text.usb_find_device
                0x00000000002110c0       0xb0 cmd/built-in.o
 .text.do_usbboot
                0x0000000000211170        0xc cmd/built-in.o
 .text.do_usb_start
                0x000000000021117c       0x30 cmd/built-in.o
 .text.usb_show_tree
                0x00000000002111ac        0xc cmd/built-in.o
                0x00000000002111ac                usb_show_tree
 .text.do_usb   0x00000000002111b8      0x3ec cmd/built-in.o
 .text.common_diskboot
                0x00000000002115a4      0x2a4 cmd/built-in.o
                0x00000000002115a4                common_diskboot
 .text.do_fastboot
                0x0000000000211848      0x168 cmd/built-in.o
 .text.ums_fini
                0x00000000002119b0       0x70 cmd/built-in.o
 .text.ums_write_sector
                0x0000000000211a20       0x20 cmd/built-in.o
 .text.ums_read_sector
                0x0000000000211a40       0x20 cmd/built-in.o
 .text.do_usb_mass_storage
                0x0000000000211a60      0x354 cmd/built-in.o
 .text.extract_val
                0x0000000000211db4       0xa0 cmd/built-in.o
 .text.extract_env
                0x0000000000211e54       0xf8 cmd/built-in.o
 .text.set_gpt_info.constprop.0
                0x0000000000211f4c      0x46c cmd/built-in.o
 .text.do_gpt   0x00000000002123b8      0x2dc cmd/built-in.o
 .text.test_secure_storage_default
                0x0000000000212694      0x240 cmd/built-in.o
                0x0000000000212694                test_secure_storage_default
 .text.test_secure_storage_security_partition
                0x00000000002128d4      0x230 cmd/built-in.o
                0x00000000002128d4                test_secure_storage_security_partition
 .text.do_dvfs  0x0000000000212b04       0x9c cmd/built-in.o
 .text.do_rkimg_test
                0x0000000000212ba0      0x170 cmd/built-in.o
 .text.do_dump_atags
                0x0000000000212d10      0x868 cmd/built-in.o
 .text.do_env_delete
                0x0000000000213578       0xc4 cmd/built-in.o
 .text.do_env_save
                0x000000000021363c       0x30 cmd/built-in.o
 .text.do_env   0x000000000021366c       0x84 cmd/built-in.o
 .text.env_print
                0x00000000002136f0       0xc4 cmd/built-in.o
 .text.do_env_print
                0x00000000002137b4       0xe0 cmd/built-in.o
 .text.do_env_import
                0x0000000000213894      0x254 cmd/built-in.o
 .text.do_env_default
                0x0000000000213ae8       0x84 cmd/built-in.o
 .text.do_env_exists
                0x0000000000213b6c       0x60 cmd/built-in.o
 .text._do_env_set.constprop.0
                0x0000000000213bcc      0x1b8 cmd/built-in.o
 .text.do_env_set
                0x0000000000213d84       0x20 cmd/built-in.o
 .text.get_env_id
                0x0000000000213da4        0xc cmd/built-in.o
                0x0000000000213da4                get_env_id
 .text.env_set  0x0000000000213db0       0x58 cmd/built-in.o
                0x0000000000213db0                env_set
 .text.env_set_ulong
                0x0000000000213e08       0x2c cmd/built-in.o
                0x0000000000213e08                env_set_ulong
 .text.env_set_hex
                0x0000000000213e34       0x3c cmd/built-in.o
                0x0000000000213e34                env_set_hex
 .text.do_env_export
                0x0000000000213e70      0x224 cmd/built-in.o
 .text.envmatch
                0x0000000000214094       0x7c cmd/built-in.o
                0x0000000000214094                envmatch
 .text.env_get_f
                0x0000000000214110       0xe8 cmd/built-in.o
                0x0000000000214110                env_get_f
 .text.env_get  0x00000000002141f8       0x70 cmd/built-in.o
                0x00000000002141f8                env_get
 .text.env_update_extract_subset
                0x0000000000214268      0x13c cmd/built-in.o
                0x0000000000214268                env_update_extract_subset
 .text.env_exist
                0x00000000002143a4      0x150 cmd/built-in.o
                0x00000000002143a4                env_exist
 .text.env_delete
                0x00000000002144f4       0x9c cmd/built-in.o
                0x00000000002144f4                env_delete
 .text.env_get_hex
                0x0000000000214590       0x44 cmd/built-in.o
                0x0000000000214590                env_get_hex
 .text.env_get_ulong
                0x00000000002145d4       0x40 cmd/built-in.o
                0x00000000002145d4                env_get_ulong
 .text.do_env_edit.part.0
                0x0000000000214614       0xb4 cmd/built-in.o
 .text.do_env_edit
                0x00000000002146c8       0x28 cmd/built-in.o
 .text.env_append.isra.0
                0x00000000002146f0       0xf8 cmd/built-in.o
 .text.env_update_filter
                0x00000000002147e8      0x408 cmd/built-in.o
                0x00000000002147e8                env_update_filter
 .text.env_update
                0x0000000000214bf0        0x8 cmd/built-in.o
                0x0000000000214bf0                env_update
 .text.do_env_update
                0x0000000000214bf8       0x18 cmd/built-in.o
 .text.board_init_f_alloc_reserve
                0x0000000000214c10       0x10 common/built-in.o
                0x0000000000214c10                board_init_f_alloc_reserve
 .text.board_init_f_init_reserve
                0x0000000000214c20       0x30 common/built-in.o
                0x0000000000214c20                board_init_f_init_reserve
 .text.show_boot_progress
                0x0000000000214c50        0x8 common/built-in.o
                0x0000000000214c50                show_boot_progress
 .text.main_loop
                0x0000000000214c58       0x68 common/built-in.o
                0x0000000000214c58                main_loop
 .text.mdelay   0x0000000000214cc0       0x30 common/built-in.o
 .text.dummy    0x0000000000214cf0        0x4 common/built-in.o
 .text.get_version
                0x0000000000214cf4        0x8 common/built-in.o
                0x0000000000214cf4                get_version
 .text.jumptable_init
                0x0000000000214cfc      0x1f0 common/built-in.o
                0x0000000000214cfc                jumptable_init
 .text.hash_command
                0x0000000000214eec       0xd0 common/built-in.o
                0x0000000000214eec                hash_command
 .text.b_reset  0x0000000000214fbc       0x18 common/built-in.o
 .text.static_get
                0x0000000000214fd4       0x1c common/built-in.o
 .text.static_peek
                0x0000000000214ff0        0xc common/built-in.o
 .text.mapset   0x0000000000214ffc       0x20 common/built-in.o
 .text.syntax_err
                0x000000000021501c        0xc common/built-in.o
 .text.xmalloc  0x0000000000215028       0x28 common/built-in.o
 .text.new_pipe
                0x0000000000215050       0x24 common/built-in.o
 .text.xrealloc
                0x0000000000215074       0x28 common/built-in.o
 .text.is_assignment
                0x000000000021509c       0x50 common/built-in.o
 .text.do_showvar
                0x00000000002150ec      0x10c common/built-in.o
 .text.b_addchr
                0x00000000002151f8       0x94 common/built-in.o
 .text.done_command.isra.0
                0x000000000021528c       0x90 common/built-in.o
 .text.done_pipe.isra.0
                0x000000000021531c       0x48 common/built-in.o
 .text.done_word
                0x0000000000215364      0x28c common/built-in.o
 .text.free_pipe_list.isra.0
                0x00000000002155f0       0xd0 common/built-in.o
 .text.file_get
                0x00000000002156c0      0x1e4 common/built-in.o
 .text.b_addqchr.isra.0
                0x00000000002158a4       0x58 common/built-in.o
 .text.file_peek
                0x00000000002158fc        0xc common/built-in.o
 .text.get_local_var
                0x0000000000215908       0x9c common/built-in.o
                0x0000000000215908                get_local_var
 .text.set_local_var
                0x00000000002159a4      0x1a0 common/built-in.o
                0x00000000002159a4                set_local_var
 .text.insert_var_value_sub
                0x0000000000215b44      0x2b0 common/built-in.o
 .text.parse_string_outer
                0x0000000000215df4       0xe4 common/built-in.o
                0x0000000000215df4                parse_string_outer
 .text.run_list_real
                0x0000000000215ed8      0x728 common/built-in.o
 .text.parse_stream_outer
                0x0000000000216600      0x66c common/built-in.o
 .text.parse_file_outer
                0x0000000000216c6c       0x40 common/built-in.o
                0x0000000000216c6c                parse_file_outer
 .text.u_boot_hush_start
                0x0000000000216cac       0x58 common/built-in.o
                0x0000000000216cac                u_boot_hush_start
 .text.bootdelay_process
                0x0000000000216d04       0xcc common/built-in.o
                0x0000000000216d04                bootdelay_process
 .text.autoboot_command
                0x0000000000216dd0      0x114 common/built-in.o
                0x0000000000216dd0                autoboot_command
 .text.log_init
                0x0000000000216ee4       0x10 common/built-in.o
 .text.display_text_info
                0x0000000000216ef4        0x8 common/built-in.o
 .text.setup_mon_len
                0x0000000000216efc       0x20 common/built-in.o
 .text.reserve_round_4k
                0x0000000000216f1c       0x14 common/built-in.o
 .text.reserve_uboot
                0x0000000000216f30       0x2c common/built-in.o
 .text.reserve_malloc
                0x0000000000216f5c       0x1c common/built-in.o
 .text.reserve_global_data
                0x0000000000216f78       0x1c common/built-in.o
 .text.reserve_fdt
                0x0000000000216f94       0xac common/built-in.o
 .text.reserve_mmu
                0x0000000000217040       0x4c common/built-in.o
                0x0000000000217040                reserve_mmu
 .text.reloc_fdt
                0x000000000021708c       0x4c common/built-in.o
 .text.announce_serial
                0x00000000002170d8       0x5c common/built-in.o
 .text.setup_reloc
                0x0000000000217134       0xac common/built-in.o
 .text.announce_dram_init
                0x00000000002171e0       0x20 common/built-in.o
 .text.reserve_board
                0x0000000000217200       0x48 common/built-in.o
 .text.reserve_video
                0x0000000000217248       0x2c common/built-in.o
 .text.initf_dm
                0x0000000000217274        0x8 common/built-in.o
 .text.initf_bootstage
                0x000000000021727c       0x1c common/built-in.o
 .text.init_baud_rate
                0x0000000000217298       0x4c common/built-in.o
 .text.arch_cpu_init_dm
                0x00000000002172e4        0x8 common/built-in.o
                0x00000000002172e4                arch_cpu_init_dm
 .text.mach_cpu_init
                0x00000000002172ec        0x8 common/built-in.o
                0x00000000002172ec                mach_cpu_init
 .text.reserve_trace
                0x00000000002172f4        0x8 common/built-in.o
 .text.setup_machine
                0x00000000002172fc        0x8 common/built-in.o
 .text.reserve_bootstage
                0x0000000000217304        0x8 common/built-in.o
 .text.display_new_sp
                0x000000000021730c        0x8 common/built-in.o
 .text.reloc_bootstage
                0x0000000000217314        0x8 common/built-in.o
 .text.initf_console_record
                0x000000000021731c        0x8 common/built-in.o
 .text.reserve_arch
                0x0000000000217324        0x8 common/built-in.o
                0x0000000000217324                reserve_arch
 .text.board_add_ram_info
                0x000000000021732c        0x4 common/built-in.o
                0x000000000021732c                board_add_ram_info
 .text.show_dram_config
                0x0000000000217330       0x68 common/built-in.o
 .text.setup_dest_addr
                0x0000000000217398       0x48 common/built-in.o
 .text.reserve_stacks
                0x00000000002173e0       0x1c common/built-in.o
 .text.board_init_f
                0x00000000002173fc       0x2c common/built-in.o
                0x00000000002173fc                board_init_f
 .text.initr_trace
                0x0000000000217428        0x8 common/built-in.o
 .text.initr_reloc
                0x0000000000217430       0x18 common/built-in.o
 .text.initr_reloc_global_data
                0x0000000000217448       0x24 common/built-in.o
 .text.initr_announce
                0x000000000021746c       0x10 common/built-in.o
 .text.run_main_loop
                0x000000000021747c       0x10 common/built-in.o
 .text.initr_net
                0x000000000021748c       0x24 common/built-in.o
 .text.initr_ethaddr
                0x00000000002174b0       0x28 common/built-in.o
 .text.initr_jumptable
                0x00000000002174d8       0x18 common/built-in.o
 .text.initr_serial
                0x00000000002174f0       0x18 common/built-in.o
 .text.initr_env_nowhere
                0x0000000000217508       0x1c common/built-in.o
 .text.initr_dm
                0x0000000000217524       0x14 common/built-in.o
 .text.initr_of_live
                0x0000000000217538        0xc common/built-in.o
 .text.initr_enable_interrupts
                0x0000000000217544       0x18 common/built-in.o
 .text.initr_bootstage
                0x000000000021755c       0x1c common/built-in.o
 .text.initr_malloc
                0x0000000000217578       0x28 common/built-in.o
 .text.initr_caches
                0x00000000002175a0       0x90 common/built-in.o
 .text.bootstage_relocate
                0x0000000000217630        0x8 common/built-in.o
 .text.initr_barrier
                0x0000000000217638        0x8 common/built-in.o
 .text.initr_console_record
                0x0000000000217640        0x8 common/built-in.o
 .text.power_init_board
                0x0000000000217648        0x8 common/built-in.o
                0x0000000000217648                power_init_board
 .text.initr_mmc
                0x0000000000217650        0x8 common/built-in.o
 .text.board_initr_caches_fixup
                0x0000000000217658        0x8 common/built-in.o
                0x0000000000217658                board_initr_caches_fixup
 .text.cpu_secondary_init_r
                0x0000000000217660        0x4 common/built-in.o
                0x0000000000217660                cpu_secondary_init_r
 .text.initr_secondary_cpu
                0x0000000000217664       0x18 common/built-in.o
 .text.board_init_r
                0x000000000021767c       0x24 common/built-in.o
                0x000000000021767c                board_init_r
 .text.checkboard
                0x00000000002176a0        0x8 common/built-in.o
                0x00000000002176a0                checkboard
 .text.show_board_info
                0x00000000002176a8       0x4c common/built-in.o
                0x00000000002176a8                show_board_info
 .text.bootm_find_images
                0x00000000002176f4       0xd8 common/built-in.o
                0x00000000002176f4                bootm_find_images
 .text.bootm_parse_comp
                0x00000000002177cc       0x5c common/built-in.o
                0x00000000002177cc                bootm_parse_comp
 .text.bootm_decomp_image
                0x0000000000217828      0x238 common/built-in.o
                0x0000000000217828                bootm_decomp_image
 .text.bootm_disable_interrupts
                0x0000000000217a60       0x4c common/built-in.o
                0x0000000000217a60                bootm_disable_interrupts
 .text.do_bootm_states
                0x0000000000217aac      0x954 common/built-in.o
                0x0000000000217aac                do_bootm_states
 .text.copy_args
                0x0000000000218400       0x6c common/built-in.o
 .text.do_bootm_rtems
                0x000000000021846c       0x7c common/built-in.o
 .text.do_bootm_plan9
                0x00000000002184e8       0xe4 common/built-in.o
 .text.do_bootm_netbsd
                0x00000000002185cc      0x144 common/built-in.o
 .text.do_bootm_standalone
                0x0000000000218710       0x74 common/built-in.o
 .text.do_bootvx_fdt
                0x0000000000218784      0x118 common/built-in.o
                0x0000000000218784                do_bootvx_fdt
 .text.do_bootm_vxworks
                0x000000000021889c       0x58 common/built-in.o
 .text.boot_selected_os
                0x00000000002188f4       0x80 common/built-in.o
                0x00000000002188f4                boot_selected_os
 .text.bootm_os_get_boot_func
                0x0000000000218974       0x10 common/built-in.o
                0x0000000000218974                bootm_os_get_boot_func
 .text.of_bus_default_map
                0x0000000000218984       0xa4 common/built-in.o
 .text.fdt_pack_reg
                0x0000000000218a28       0xd8 common/built-in.o
 .text.of_bus_default_translate
                0x0000000000218b00       0xb8 common/built-in.o
 .text.fdt_support_default_count_cells
                0x0000000000218bb8       0x70 common/built-in.o
                0x0000000000218bb8                fdt_support_default_count_cells
 .text.fdt_find_and_setprop
                0x0000000000218c28       0x94 common/built-in.o
                0x0000000000218c28                fdt_find_and_setprop
 .text.fdt_find_or_add_subnode
                0x0000000000218cbc       0x74 common/built-in.o
                0x0000000000218cbc                fdt_find_or_add_subnode
 .text.fdt_setprop_uxx
                0x0000000000218d30       0x38 common/built-in.o
                0x0000000000218d30                fdt_setprop_uxx
 .text.fdt_root
                0x0000000000218d68       0x98 common/built-in.o
                0x0000000000218d68                fdt_root
 .text.fdt_initrd
                0x0000000000218e00      0x16c common/built-in.o
                0x0000000000218e00                fdt_initrd
 .text.fdt_chosen
                0x0000000000218f6c       0xb8 common/built-in.o
                0x0000000000218f6c                fdt_chosen
 .text.do_fixup_by_path
                0x0000000000219024       0x4c common/built-in.o
                0x0000000000219024                do_fixup_by_path
 .text.do_fixup_by_path_u32
                0x0000000000219070       0x28 common/built-in.o
                0x0000000000219070                do_fixup_by_path_u32
 .text.fdt_fixup_memory_banks
                0x0000000000219098      0x164 common/built-in.o
                0x0000000000219098                fdt_fixup_memory_banks
 .text.fdt_fixup_memory
                0x00000000002191fc       0x24 common/built-in.o
                0x00000000002191fc                fdt_fixup_memory
 .text.fdt_update_reserved_memory
                0x0000000000219220       0xa0 common/built-in.o
                0x0000000000219220                fdt_update_reserved_memory
 .text.fdt_fixup_ethernet
                0x00000000002192c0      0x1ac common/built-in.o
                0x00000000002192c0                fdt_fixup_ethernet
 .text.fdt_shrink_to_minimum
                0x000000000021946c       0xc8 common/built-in.o
                0x000000000021946c                fdt_shrink_to_minimum
 .text.fdt_increase_size
                0x0000000000219534       0x14 common/built-in.o
                0x0000000000219534                fdt_increase_size
 .text.fdt_translate_address
                0x0000000000219548      0x264 common/built-in.o
                0x0000000000219548                fdt_translate_address
 .text.fdt_get_base_address
                0x00000000002197ac       0x4c common/built-in.o
                0x00000000002197ac                fdt_get_base_address
 .text.fdt_overlay_apply_verbose
                0x00000000002197f8       0x80 common/built-in.o
                0x00000000002197f8                fdt_overlay_apply_verbose
 .text.miiphy_get_dev_by_name
                0x0000000000219878       0x68 common/built-in.o
                0x0000000000219878                miiphy_get_dev_by_name
 .text.miiphy_init
                0x00000000002198e0       0x1c common/built-in.o
                0x00000000002198e0                miiphy_init
 .text.mdio_alloc
                0x00000000002198fc       0x3c common/built-in.o
                0x00000000002198fc                mdio_alloc
 .text.mdio_free
                0x0000000000219938        0x4 common/built-in.o
                0x0000000000219938                mdio_free
 .text.mdio_register
                0x000000000021993c       0x8c common/built-in.o
                0x000000000021993c                mdio_register
 .text.mdio_unregister
                0x00000000002199c8       0x30 common/built-in.o
                0x00000000002199c8                mdio_unregister
 .text.mdio_list_devices
                0x00000000002199f8       0xc8 common/built-in.o
                0x00000000002199f8                mdio_list_devices
 .text.miiphy_set_current_dev
                0x0000000000219ac0       0x48 common/built-in.o
                0x0000000000219ac0                miiphy_set_current_dev
 .text.miiphy_get_active_dev
                0x0000000000219b08       0x60 common/built-in.o
 .text.mdio_get_current_dev
                0x0000000000219b68        0xc common/built-in.o
                0x0000000000219b68                mdio_get_current_dev
 .text.mdio_phydev_for_ethname
                0x0000000000219b74       0xa0 common/built-in.o
                0x0000000000219b74                mdio_phydev_for_ethname
 .text.miiphy_get_current_dev
                0x0000000000219c14       0x14 common/built-in.o
                0x0000000000219c14                miiphy_get_current_dev
 .text.miiphy_read
                0x0000000000219c28       0x5c common/built-in.o
                0x0000000000219c28                miiphy_read
 .text.miiphy_write
                0x0000000000219c84       0x60 common/built-in.o
                0x0000000000219c84                miiphy_write
 .text.miiphy_listdev
                0x0000000000219ce4       0x90 common/built-in.o
                0x0000000000219ce4                miiphy_listdev
 .text.miiphy_info
                0x0000000000219d74       0xa0 common/built-in.o
                0x0000000000219d74                miiphy_info
 .text.miiphy_speed
                0x0000000000219e14       0xc8 common/built-in.o
                0x0000000000219e14                miiphy_speed
 .text.miiphy_duplex
                0x0000000000219edc       0xc8 common/built-in.o
                0x0000000000219edc                miiphy_duplex
 .text.miiphy_is_1000base_x
                0x0000000000219fa4        0x8 common/built-in.o
                0x0000000000219fa4                miiphy_is_1000base_x
 .text.usb_set_maxpacket_ep
                0x0000000000219fac       0x84 common/built-in.o
 .text.usb_int_msg
                0x000000000021a030        0x4 common/built-in.o
                0x000000000021a030                usb_int_msg
 .text.usb_control_msg
                0x000000000021a034       0xbc common/built-in.o
                0x000000000021a034                usb_control_msg
 .text.usb_get_descriptor
                0x000000000021a0f0       0x5c common/built-in.o
 .text.get_descriptor_len
                0x000000000021a14c       0xa4 common/built-in.o
 .text.usb_setup_descriptor
                0x000000000021a1f0       0xec common/built-in.o
 .text.usb_get_string
                0x000000000021a2dc       0xa4 common/built-in.o
 .text.usb_string_sub
                0x000000000021a380      0x114 common/built-in.o
 .text.usb_bulk_msg
                0x000000000021a494       0x78 common/built-in.o
                0x000000000021a494                usb_bulk_msg
 .text.usb_maxpacket
                0x000000000021a50c       0x1c common/built-in.o
                0x000000000021a50c                usb_maxpacket
 .text.usb_clear_halt
                0x000000000021a528       0x9c common/built-in.o
                0x000000000021a528                usb_clear_halt
 .text.usb_get_configuration_len
                0x000000000021a5c4       0x78 common/built-in.o
                0x000000000021a5c4                usb_get_configuration_len
 .text.usb_get_configuration_no
                0x000000000021a63c       0x40 common/built-in.o
                0x000000000021a63c                usb_get_configuration_no
 .text.usb_set_interface
                0x000000000021a67c       0xb0 common/built-in.o
                0x000000000021a67c                usb_set_interface
 .text.usb_string
                0x000000000021a72c      0x118 common/built-in.o
                0x000000000021a72c                usb_string
 .text.usb_select_config
                0x000000000021a844      0x50c common/built-in.o
                0x000000000021a844                usb_select_config
 .text.usb_setup_device
                0x000000000021ad50      0x124 common/built-in.o
                0x000000000021ad50                usb_setup_device
 .text.usb_device_has_child_on_port
                0x000000000021ae74        0x8 common/built-in.o
                0x000000000021ae74                usb_device_has_child_on_port
 .text.usb_find_usb2_hub_address_port
                0x000000000021ae7c       0x90 common/built-in.o
                0x000000000021ae7c                usb_find_usb2_hub_address_port
 .text.usb_set_port_feature
                0x000000000021af0c       0x4c common/built-in.o
 .text.usb_get_hub_descriptor
                0x000000000021af58       0x64 common/built-in.o
 .text.usb_clear_port_feature.isra.0
                0x000000000021afbc       0x4c common/built-in.o
 .text.usb_hub_reset_devices
                0x000000000021b008        0x4 common/built-in.o
                0x000000000021b008                usb_hub_reset_devices
 .text.usb_hub_is_root_hub
                0x000000000021b00c       0x20 common/built-in.o
                0x000000000021b00c                usb_hub_is_root_hub
 .text.usb_get_port_status
                0x000000000021b02c       0xc8 common/built-in.o
                0x000000000021b02c                usb_get_port_status
 .text.usb_hub_port_connect_change
                0x000000000021b0f4      0x17c common/built-in.o
                0x000000000021b0f4                usb_hub_port_connect_change
 .text.usb_hub_configure
                0x000000000021b270      0x59c common/built-in.o
 .text.usb_hub_scan
                0x000000000021b80c       0x14 common/built-in.o
                0x000000000021b80c                usb_hub_scan
 .text.usb_hub_post_probe
                0x000000000021b820        0x4 common/built-in.o
 .text.usb_stor_irq
                0x000000000021b824       0x18 common/built-in.o
 .text.usb_stor_BBB_reset
                0x000000000021b83c      0x110 common/built-in.o
 .text.usb_stor_CB_reset
                0x000000000021b94c       0xe8 common/built-in.o
 .text.usb_stor_CB_comdat
                0x000000000021ba34      0x1ec common/built-in.o
 .text.usb_stor_CBI_get_status
                0x000000000021bc20       0xe0 common/built-in.o
 .text.usb_stor_CB_transport
                0x000000000021bd00      0x1fc common/built-in.o
 .text.usb_request_sense.constprop.0.isra.0
                0x000000000021befc       0x88 common/built-in.o
 .text.usb_stor_write
                0x000000000021bf84      0x170 common/built-in.o
 .text.usb_stor_read
                0x000000000021c0f4      0x170 common/built-in.o
 .text.usb_stor_BBB_clear_endpt_stall.isra.0
                0x000000000021c264       0x4c common/built-in.o
 .text.usb_stor_BBB_transport
                0x000000000021c2b0      0x268 common/built-in.o
 .text.usb_stor_info
                0x000000000021c518       0x88 common/built-in.o
                0x000000000021c518                usb_stor_info
 .text.usb_stor_reset
                0x000000000021c5a0        0xc common/built-in.o
                0x000000000021c5a0                usb_stor_reset
 .text.usb_stor_scan
                0x000000000021c5ac       0x4c common/built-in.o
                0x000000000021c5ac                usb_stor_scan
 .text.usb_storage_probe
                0x000000000021c5f8      0x260 common/built-in.o
                0x000000000021c5f8                usb_storage_probe
 .text.usb_stor_get_info
                0x000000000021c858      0x2ec common/built-in.o
                0x000000000021c858                usb_stor_get_info
 .text.usb_mass_storage_probe
                0x000000000021cb44      0x198 common/built-in.o
 .text.iomux_doenv
                0x000000000021ccdc      0x1cc common/built-in.o
                0x000000000021ccdc                iomux_doenv
 .text.snip     0x000000000021cea8       0x6c common/built-in.o
 .text.edid_check_info
                0x000000000021cf14       0x64 common/built-in.o
                0x000000000021cf14                edid_check_info
 .text.edid_get_drm_mode
                0x000000000021cf78      0x1c8 common/built-in.o
                0x000000000021cf78                edid_get_drm_mode
 .text.edid_get_timing
                0x000000000021d140      0x2a8 common/built-in.o
                0x000000000021d140                edid_get_timing
 .text.edid_print_info
                0x000000000021d3e8      0x5f4 common/built-in.o
                0x000000000021d3e8                edid_print_info
 .text.menu_display_statusline
                0x000000000021d9dc        0x4 common/built-in.o
                0x000000000021d9dc                menu_display_statusline
 .text.menu_default_set
                0x000000000021d9e0       0x94 common/built-in.o
                0x000000000021d9e0                menu_default_set
 .text.menu_get_choice
                0x000000000021da74      0x1dc common/built-in.o
                0x000000000021da74                menu_get_choice
 .text.menu_item_add
                0x000000000021dc50       0xd8 common/built-in.o
                0x000000000021dc50                menu_item_add
 .text.menu_create
                0x000000000021dd28       0xa4 common/built-in.o
                0x000000000021dd28                menu_create
 .text.menu_destroy
                0x000000000021ddcc       0x80 common/built-in.o
                0x000000000021ddcc                menu_destroy
 .text.cread_add_char
                0x000000000021de4c      0x100 common/built-in.o
 .text.delete_char
                0x000000000021df4c      0x108 common/built-in.o
 .text.cli_readline_into_buffer
                0x000000000021e054      0x8bc common/built-in.o
                0x000000000021e054                cli_readline_into_buffer
 .text.cli_readline
                0x000000000021e910       0x14 common/built-in.o
                0x000000000021e910                cli_readline
 .text.cli_simple_process_macros
                0x000000000021e924      0x210 common/built-in.o
                0x000000000021e924                cli_simple_process_macros
 .text.bounce_buffer_start
                0x000000000021eb34       0x88 common/built-in.o
                0x000000000021eb34                bounce_buffer_start
 .text.bounce_buffer_stop
                0x000000000021ebbc       0x5c common/built-in.o
                0x000000000021ebbc                bounce_buffer_stop
 .text.console_tstc
                0x000000000021ec18       0x98 common/built-in.o
 .text.console_putc
                0x000000000021ecb0       0x70 common/built-in.o
 .text.on_console
                0x000000000021ed20       0xc0 common/built-in.o
 .text.serial_printf
                0x000000000021ede0       0xb4 common/built-in.o
                0x000000000021ede0                serial_printf
 .text.putc     0x000000000021ee94       0x40 common/built-in.o
                0x000000000021ee94                putc
 .text.puts     0x000000000021eed4       0x30 common/built-in.o
                0x000000000021eed4                puts
 .text.tstc     0x000000000021ef04       0x30 common/built-in.o
                0x000000000021ef04                tstc
 .text.fgetc.part.0
                0x000000000021ef34       0x50 common/built-in.o
 .text.getc     0x000000000021ef84       0x30 common/built-in.o
                0x000000000021ef84                getc
 .text.flushc   0x000000000021efb4       0x14 common/built-in.o
                0x000000000021efb4                flushc
 .text.ctrlc    0x000000000021efc8       0x54 common/built-in.o
                0x000000000021efc8                ctrlc
 .text.confirm_yesno
                0x000000000021f01c       0xd8 common/built-in.o
                0x000000000021f01c                confirm_yesno
 .text.disable_ctrlc
                0x000000000021f0f4       0x14 common/built-in.o
                0x000000000021f0f4                disable_ctrlc
 .text.had_ctrlc
                0x000000000021f108        0xc common/built-in.o
                0x000000000021f108                had_ctrlc
 .text.clear_ctrlc
                0x000000000021f114        0xc common/built-in.o
                0x000000000021f114                clear_ctrlc
 .text.search_device
                0x000000000021f120       0x34 common/built-in.o
                0x000000000021f120                search_device
 .text.console_assign
                0x000000000021f154       0xd8 common/built-in.o
                0x000000000021f154                console_assign
 .text.console_announce_r
                0x000000000021f22c       0xb8 common/built-in.o
                0x000000000021f22c                console_announce_r
 .text.console_init_f
                0x000000000021f2e4       0x10 common/built-in.o
                0x000000000021f2e4                console_init_f
 .text.console_init_r
                0x000000000021f2f4      0x19c common/built-in.o
                0x000000000021f2f4                console_init_r
 .text.sbrk     0x000000000021f490       0x74 common/built-in.o
                0x000000000021f490                sbrk
 .text.mem_malloc_init
                0x000000000021f504       0x20 common/built-in.o
                0x000000000021f504                mem_malloc_init
 .text.malloc_trim
                0x000000000021f524       0xd8 common/built-in.o
                0x000000000021f524                malloc_trim
 .text.free     0x000000000021f5fc      0x21c common/built-in.o
                0x000000000021f5fc                free
 .text.malloc   0x000000000021f818      0x62c common/built-in.o
                0x000000000021f818                malloc
 .text.calloc   0x000000000021fe44       0xe4 common/built-in.o
                0x000000000021fe44                calloc
 .text.realloc  0x000000000021ff28      0x460 common/built-in.o
                0x000000000021ff28                realloc
 .text.memalign
                0x0000000000220388      0x190 common/built-in.o
                0x0000000000220388                memalign
 .text.initf_malloc
                0x0000000000220518       0x18 common/built-in.o
                0x0000000000220518                initf_malloc
 .text.malloc_simple
                0x0000000000220530       0x38 common/built-in.o
                0x0000000000220530                malloc_simple
 .text.on_loadaddr
                0x0000000000220568       0x3c common/built-in.o
 .text.image_get_load
                0x00000000002205a4       0x38 common/built-in.o
                0x00000000002205a4                image_get_load
 .text.image_get_ep
                0x00000000002205dc       0x38 common/built-in.o
                0x00000000002205dc                image_get_ep
 .text.image_check_hcrc
                0x0000000000220614       0x50 common/built-in.o
                0x0000000000220614                image_check_hcrc
 .text.image_check_dcrc
                0x0000000000220664       0x44 common/built-in.o
                0x0000000000220664                image_check_dcrc
 .text.image_multi_count
                0x00000000002206a8       0x24 common/built-in.o
                0x00000000002206a8                image_multi_count
 .text.image_multi_getimg
                0x00000000002206cc       0x84 common/built-in.o
                0x00000000002206cc                image_multi_getimg
 .text.env_get_bootm_low
                0x0000000000220750       0x30 common/built-in.o
                0x0000000000220750                env_get_bootm_low
 .text.env_get_bootm_size
                0x0000000000220780       0x78 common/built-in.o
                0x0000000000220780                env_get_bootm_size
 .text.env_get_bootm_mapsize
                0x00000000002207f8       0x30 common/built-in.o
                0x00000000002207f8                env_get_bootm_mapsize
 .text.memmove_wd
                0x0000000000220828       0x10 common/built-in.o
                0x0000000000220828                memmove_wd
 .text.genimg_print_size
                0x0000000000220838       0x38 common/built-in.o
                0x0000000000220838                genimg_print_size
 .text.get_table_entry
                0x0000000000220870       0x20 common/built-in.o
                0x0000000000220870                get_table_entry
 .text.get_table_entry_name
                0x0000000000220890       0x28 common/built-in.o
                0x0000000000220890                get_table_entry_name
 .text.genimg_get_os_name
                0x00000000002208b8       0x18 common/built-in.o
                0x00000000002208b8                genimg_get_os_name
 .text.genimg_get_arch_name
                0x00000000002208d0       0x18 common/built-in.o
                0x00000000002208d0                genimg_get_arch_name
 .text.genimg_get_type_name
                0x00000000002208e8       0x18 common/built-in.o
                0x00000000002208e8                genimg_get_type_name
 .text.genimg_get_comp_name
                0x0000000000220900       0x18 common/built-in.o
                0x0000000000220900                genimg_get_comp_name
 .text.image_print_contents
                0x0000000000220918      0x1e4 common/built-in.o
                0x0000000000220918                image_print_contents
 .text.get_table_entry_id
                0x0000000000220afc       0x50 common/built-in.o
                0x0000000000220afc                get_table_entry_id
 .text.genimg_get_os_id
                0x0000000000220b4c       0x18 common/built-in.o
                0x0000000000220b4c                genimg_get_os_id
 .text.genimg_get_arch_id
                0x0000000000220b64       0x18 common/built-in.o
                0x0000000000220b64                genimg_get_arch_id
 .text.genimg_get_type_id
                0x0000000000220b7c       0x18 common/built-in.o
                0x0000000000220b7c                genimg_get_type_id
 .text.genimg_get_comp_id
                0x0000000000220b94       0x18 common/built-in.o
                0x0000000000220b94                genimg_get_comp_id
 .text.genimg_get_kernel_addr_fit
                0x0000000000220bac       0x78 common/built-in.o
                0x0000000000220bac                genimg_get_kernel_addr_fit
 .text.genimg_get_kernel_addr
                0x0000000000220c24       0x20 common/built-in.o
                0x0000000000220c24                genimg_get_kernel_addr
 .text.genimg_get_format
                0x0000000000220c44       0x5c common/built-in.o
                0x0000000000220c44                genimg_get_format
 .text.genimg_has_config
                0x0000000000220ca0       0x10 common/built-in.o
                0x0000000000220ca0                genimg_has_config
 .text.boot_get_ramdisk
                0x0000000000220cb0      0x3b4 common/built-in.o
                0x0000000000220cb0                boot_get_ramdisk
 .text.boot_ramdisk_high
                0x0000000000221064      0x154 common/built-in.o
                0x0000000000221064                boot_ramdisk_high
 .text.boot_get_setup
                0x00000000002211b8        0x4 common/built-in.o
                0x00000000002211b8                boot_get_setup
 .text.boot_get_loadable
                0x00000000002211bc      0x19c common/built-in.o
                0x00000000002211bc                boot_get_loadable
 .text.image_setup_linux
                0x0000000000221358       0x60 common/built-in.o
                0x0000000000221358                image_setup_linux
 .text.android_image_get_kernel_addr
                0x00000000002213b8       0x6c common/built-in.o
 .text.android_image_get_comp_addr
                0x0000000000221424       0x8c common/built-in.o
 .text.image_load.constprop.0
                0x00000000002214b0      0x950 common/built-in.o
 .text.android_image_get_comp
                0x0000000000221e00        0xc common/built-in.o
                0x0000000000221e00                android_image_get_comp
 .text.android_image_get_kernel
                0x0000000000221e0c      0x208 common/built-in.o
                0x0000000000221e0c                android_image_get_kernel
 .text.android_image_check_header
                0x0000000000222014       0x14 common/built-in.o
                0x0000000000222014                android_image_check_header
 .text.android_image_separate
                0x0000000000222028      0x164 common/built-in.o
 .text.android_image_separate_v34
                0x000000000022218c      0x12c common/built-in.o
 .text.extract_boot_image_v34_header
                0x00000000002222b8      0x11c common/built-in.o
 .text.android_image_get_end
                0x00000000002223d4      0x168 common/built-in.o
                0x00000000002223d4                android_image_get_end
 .text.android_image_get_kload
                0x000000000022253c        0x4 common/built-in.o
                0x000000000022253c                android_image_get_kload
 .text.android_image_get_ramdisk
                0x0000000000222540      0x1f8 common/built-in.o
                0x0000000000222540                android_image_get_ramdisk
 .text.android_image_set_decomp
                0x0000000000222738       0x84 common/built-in.o
                0x0000000000222738                android_image_set_decomp
 .text.android_image_memcpy_separate
                0x00000000002227bc       0xe8 common/built-in.o
                0x00000000002227bc                android_image_memcpy_separate
 .text.populate_boot_info
                0x00000000002228a4      0x6e0 common/built-in.o
                0x00000000002228a4                populate_boot_info
 .text.populate_andr_img_hdr
                0x0000000000222f84      0x328 common/built-in.o
                0x0000000000222f84                populate_andr_img_hdr
 .text.android_bcb_msg_sector_offset
                0x00000000002232ac       0xf0 common/built-in.o
                0x00000000002232ac                android_bcb_msg_sector_offset
 .text.android_image_init_resource
                0x000000000022339c      0x1c0 common/built-in.o
                0x000000000022339c                android_image_init_resource
 .text.android_image_load
                0x000000000022355c      0x1b4 common/built-in.o
                0x000000000022355c                android_image_load
 .text.android_print_contents
                0x0000000000223710      0x540 common/built-in.o
                0x0000000000223710                android_print_contents
 .text.android_bootloader_message_write
                0x0000000000223c50       0x8c common/built-in.o
 .text.get_partition_size
                0x0000000000223cdc       0xa4 common/built-in.o
 .text.avb_image_distribute_prepare.constprop.0
                0x0000000000223d80      0x108 common/built-in.o
 .text.android_slot_verify
                0x0000000000223e88      0x640 common/built-in.o
 .text.android_bootloader_message_load
                0x00000000002244c8       0x84 common/built-in.o
                0x00000000002244c8                android_bootloader_message_load
 .text.android_bcb_write
                0x000000000022454c       0xbc common/built-in.o
                0x000000000022454c                android_bcb_write
 .text.android_bootloader_boot_kernel
                0x0000000000224608      0x274 common/built-in.o
                0x0000000000224608                android_bootloader_boot_kernel
 .text.android_assemble_cmdline
                0x000000000022487c      0x1f0 common/built-in.o
                0x000000000022487c                android_assemble_cmdline
 .text.android_image_verify_resource
                0x0000000000224a6c      0x318 common/built-in.o
                0x0000000000224a6c                android_image_verify_resource
 .text.board_select_fdt_index
                0x0000000000224d84        0x8 common/built-in.o
                0x0000000000224d84                board_select_fdt_index
 .text.android_fdt_overlay_apply
                0x0000000000224d8c      0x3b4 common/built-in.o
                0x0000000000224d8c                android_fdt_overlay_apply
 .text.android_image_load_by_partname
                0x0000000000225140       0x7c common/built-in.o
                0x0000000000225140                android_image_load_by_partname
 .text.android_bootloader_boot_flow
                0x00000000002251bc      0x2a4 common/built-in.o
                0x00000000002251bc                android_bootloader_boot_flow
 .text.fdt_error
                0x0000000000225460       0x38 common/built-in.o
 .text.boot_mem_rsv_regions
                0x0000000000225498      0x150 common/built-in.o
                0x0000000000225498                boot_mem_rsv_regions
 .text.boot_fdt_add_mem_rsv_regions
                0x00000000002255e8       0xb0 common/built-in.o
                0x00000000002255e8                boot_fdt_add_mem_rsv_regions
 .text.boot_fdt_add_sysmem_rsv_regions
                0x0000000000225698      0x190 common/built-in.o
                0x0000000000225698                boot_fdt_add_sysmem_rsv_regions
 .text.boot_relocate_fdt
                0x0000000000225828      0x1cc common/built-in.o
                0x0000000000225828                boot_relocate_fdt
 .text.boot_get_fdt
                0x00000000002259f4      0x380 common/built-in.o
                0x00000000002259f4                boot_get_fdt
 .text.image_setup_libfdt
                0x0000000000225d74      0x114 common/built-in.o
                0x0000000000225d74                image_setup_libfdt
 .text.fit_image_get_address
                0x0000000000225e88       0x84 common/built-in.o
 .text.fit_parse_conf
                0x0000000000225f0c       0x78 common/built-in.o
                0x0000000000225f0c                fit_parse_conf
 .text.fit_parse_subimage
                0x0000000000225f84       0x78 common/built-in.o
                0x0000000000225f84                fit_parse_subimage
 .text.fit_get_desc
                0x0000000000225ffc       0x38 common/built-in.o
                0x0000000000225ffc                fit_get_desc
 .text.fit_image_get_node
                0x0000000000226034       0x48 common/built-in.o
                0x0000000000226034                fit_image_get_node
 .text.fit_image_get_os
                0x000000000022607c       0x4c common/built-in.o
                0x000000000022607c                fit_image_get_os
 .text.fit_image_get_arch
                0x00000000002260c8       0x4c common/built-in.o
                0x00000000002260c8                fit_image_get_arch
 .text.fit_image_get_type
                0x0000000000226114       0x4c common/built-in.o
                0x0000000000226114                fit_image_get_type
 .text.fit_image_get_comp
                0x0000000000226160       0x4c common/built-in.o
                0x0000000000226160                fit_image_get_comp
 .text.fit_image_get_load
                0x00000000002261ac       0x10 common/built-in.o
                0x00000000002261ac                fit_image_get_load
 .text.fit_image_get_entry
                0x00000000002261bc       0x10 common/built-in.o
                0x00000000002261bc                fit_image_get_entry
 .text.fit_image_get_data_offset
                0x00000000002261cc       0x48 common/built-in.o
                0x00000000002261cc                fit_image_get_data_offset
 .text.fit_image_get_data_position
                0x0000000000226214       0x48 common/built-in.o
                0x0000000000226214                fit_image_get_data_position
 .text.fit_image_get_data_size
                0x000000000022625c       0x48 common/built-in.o
                0x000000000022625c                fit_image_get_data_size
 .text.fit_image_get_data
                0x00000000002262a4       0xdc common/built-in.o
                0x00000000002262a4                fit_image_get_data
 .text.fit_image_hash_get_algo
                0x0000000000226380       0x38 common/built-in.o
                0x0000000000226380                fit_image_hash_get_algo
 .text.fit_image_hash_get_value
                0x00000000002263b8       0x50 common/built-in.o
                0x00000000002263b8                fit_image_hash_get_value
 .text.fit_image_print_data
                0x0000000000226408      0x15c common/built-in.o
 .text.fit_image_print
                0x0000000000226564      0x38c common/built-in.o
                0x0000000000226564                fit_image_print
 .text.fit_get_end
                0x00000000002268f0       0x10 common/built-in.o
                0x00000000002268f0                fit_get_end
 .text.fit_calculate_hash
                0x0000000000226900       0x7c common/built-in.o
                0x0000000000226900                fit_calculate_hash
 .text.fit_image_check_hash
                0x000000000022697c      0x18c common/built-in.o
                0x000000000022697c                fit_image_check_hash
 .text.fit_image_verify_with_data
                0x0000000000226b08      0x134 common/built-in.o
                0x0000000000226b08                fit_image_verify_with_data
 .text.fit_image_verify
                0x0000000000226c3c       0x90 common/built-in.o
                0x0000000000226c3c                fit_image_verify
 .text.fit_image_check_os
                0x0000000000226ccc       0x3c common/built-in.o
                0x0000000000226ccc                fit_image_check_os
 .text.fit_image_check_arch
                0x0000000000226d08       0x64 common/built-in.o
                0x0000000000226d08                fit_image_check_arch
 .text.fit_image_check_type
                0x0000000000226d6c       0x3c common/built-in.o
                0x0000000000226d6c                fit_image_check_type
 .text.fit_image_check_comp
                0x0000000000226da8       0x3c common/built-in.o
                0x0000000000226da8                fit_image_check_comp
 .text.fit_check_format
                0x0000000000226de4       0x54 common/built-in.o
                0x0000000000226de4                fit_check_format
 .text.fit_conf_get_node
                0x0000000000226e38       0xdc common/built-in.o
                0x0000000000226e38                fit_conf_get_node
 .text.fit_conf_get_prop_node_index
                0x0000000000226f14       0x3c common/built-in.o
                0x0000000000226f14                fit_conf_get_prop_node_index
 .text.fit_conf_get_prop_node
                0x0000000000226f50        0x8 common/built-in.o
                0x0000000000226f50                fit_conf_get_prop_node
 .text.fit_conf_print
                0x0000000000226f58      0x234 common/built-in.o
                0x0000000000226f58                fit_conf_print
 .text.fit_print_contents
                0x000000000022718c      0x210 common/built-in.o
                0x000000000022718c                fit_print_contents
 .text.fit_get_node_from_config
                0x000000000022739c       0x54 common/built-in.o
                0x000000000022739c                fit_get_node_from_config
 .text.fit_image_load_index
                0x00000000002273f0      0x5cc common/built-in.o
                0x00000000002273f0                fit_image_load_index
 .text.fit_image_load
                0x00000000002279bc       0x38 common/built-in.o
                0x00000000002279bc                fit_image_load
 .text.boot_get_setup_fit
                0x00000000002279f4       0x78 common/built-in.o
                0x00000000002279f4                boot_get_setup_fit
 .text.boot_get_fdt_fit
                0x0000000000227a6c      0x2f8 common/built-in.o
                0x0000000000227a6c                boot_get_fdt_fit
 .text.get_effective_memsize
                0x0000000000227d64        0x8 common/built-in.o
                0x0000000000227d64                get_effective_memsize
 .text.stdio_serial_clear
                0x0000000000227d6c        0x4 common/built-in.o
 .text.stdio_serial_tstc
                0x0000000000227d70        0x4 common/built-in.o
 .text.stdio_serial_getc
                0x0000000000227d74        0x4 common/built-in.o
 .text.stdio_serial_puts
                0x0000000000227d78        0x8 common/built-in.o
 .text.stdio_serial_putc
                0x0000000000227d80        0x8 common/built-in.o
 .text.stdio_get_list
                0x0000000000227d88       0x10 common/built-in.o
                0x0000000000227d88                stdio_get_list
 .text.stdio_get_by_name
                0x0000000000227d98       0xfc common/built-in.o
                0x0000000000227d98                stdio_get_by_name
 .text.stdio_clone
                0x0000000000227e94       0x4c common/built-in.o
                0x0000000000227e94                stdio_clone
 .text.stdio_register_dev
                0x0000000000227ee0       0x58 common/built-in.o
                0x0000000000227ee0                stdio_register_dev
 .text.stdio_register
                0x0000000000227f38        0x8 common/built-in.o
                0x0000000000227f38                stdio_register
 .text.stdio_init_tables
                0x0000000000227f40       0x18 common/built-in.o
                0x0000000000227f40                stdio_init_tables
 .text.stdio_add_devices
                0x0000000000227f58       0x84 common/built-in.o
                0x0000000000227f58                stdio_add_devices
 .text.android_dt_check_header
                0x0000000000227fdc       0x18 common/built-in.o
                0x0000000000227fdc                android_dt_check_header
 .text.android_dt_get_fdt_by_index
                0x0000000000227ff4       0x7c common/built-in.o
                0x0000000000227ff4                android_dt_get_fdt_by_index
 .text.android_dt_print_contents
                0x0000000000228070      0x240 common/built-in.o
                0x0000000000228070                android_dt_print_contents
 .text.write_sparse_image
                0x00000000002282b0      0x44c common/built-in.o
                0x00000000002282b0                write_sparse_image
 .text.fb_mmc_sparse_reserve
                0x00000000002286fc        0x8 common/built-in.o
 .text.fb_mmc_blk_write
                0x0000000000228704       0xdc common/built-in.o
 .text.fb_mmc_sparse_write
                0x00000000002287e0        0xc common/built-in.o
 .text.part_get_info_by_name_or_alias
                0x00000000002287ec       0x7c common/built-in.o
 .text.fb_mmc_flash_write
                0x0000000000228868      0x6a0 common/built-in.o
                0x0000000000228868                fb_mmc_flash_write
 .text.fb_mmc_erase
                0x0000000000228f08      0x180 common/built-in.o
                0x0000000000228f08                fb_mmc_erase
 .text.fb_mmc_get_erase_grp_size
                0x0000000000229088       0x38 common/built-in.o
                0x0000000000229088                fb_mmc_get_erase_grp_size
 .text.fastboot_fail
                0x00000000002290c0       0x58 common/built-in.o
                0x00000000002290c0                fastboot_fail
 .text.fastboot_okay
                0x0000000000229118       0x58 common/built-in.o
                0x0000000000229118                fastboot_okay
 .text.timed_send_info
                0x0000000000229170        0x4 common/built-in.o
                0x0000000000229170                timed_send_info
 .text.run_command
                0x0000000000229174       0x14 common/built-in.o
                0x0000000000229174                run_command
 .text.run_command_list
                0x0000000000229188       0x90 common/built-in.o
                0x0000000000229188                run_command_list
 .text.do_run   0x0000000000229218       0x88 common/built-in.o
                0x0000000000229218                do_run
 .text.cli_process_fdt
                0x00000000002292a0       0x50 common/built-in.o
                0x00000000002292a0                cli_process_fdt
 .text.cli_secure_boot_cmd
                0x00000000002292f0       0x74 common/built-in.o
                0x00000000002292f0                cli_secure_boot_cmd
 .text.cli_loop
                0x0000000000229364       0x10 common/built-in.o
                0x0000000000229364                cli_loop
 .text.cli_init
                0x0000000000229374        0x4 common/built-in.o
                0x0000000000229374                cli_init
 .text.find_cmd_tbl
                0x0000000000229378       0xc0 common/built-in.o
                0x0000000000229378                find_cmd_tbl
 .text.find_cmd
                0x0000000000229438       0x28 common/built-in.o
                0x0000000000229438                find_cmd
 .text.cmd_usage
                0x0000000000229460       0x68 common/built-in.o
                0x0000000000229460                cmd_usage
 .text._do_help
                0x00000000002294c8      0x188 common/built-in.o
                0x00000000002294c8                _do_help
 .text.var_complete
                0x0000000000229650       0x80 common/built-in.o
                0x0000000000229650                var_complete
 .text.cmd_auto_complete
                0x00000000002296d0      0x494 common/built-in.o
                0x00000000002296d0                cmd_auto_complete
 .text.cmd_get_data_size
                0x0000000000229b64       0x6c common/built-in.o
                0x0000000000229b64                cmd_get_data_size
 .text.cmd_process
                0x0000000000229bd0      0x10c common/built-in.o
                0x0000000000229bd0                cmd_process
 .text.cmd_process_error
                0x0000000000229cdc       0x38 common/built-in.o
                0x0000000000229cdc                cmd_process_error
 .text.write_to_security_storage
                0x0000000000229d14      0x1c8 common/built-in.o
                0x0000000000229d14                write_to_security_storage
 .text.rk_send_keybox_to_ta
                0x0000000000229edc      0x228 common/built-in.o
                0x0000000000229edc                rk_send_keybox_to_ta
 .text.read_raw_data_from_secure_storage
                0x000000000022a104       0x88 common/built-in.o
                0x000000000022a104                read_raw_data_from_secure_storage
 .text.new_strstr
                0x000000000022a18c       0x7c common/built-in.o
                0x000000000022a18c                new_strstr
 .text.write_keybox_to_secure_storage
                0x000000000022a208      0x230 common/built-in.o
                0x000000000022a208                write_keybox_to_secure_storage
 .text.read_from_keymaster
                0x000000000022a438      0x184 common/built-in.o
                0x000000000022a438                read_from_keymaster
 .text.write_to_keymaster
                0x000000000022a5bc      0x17c common/built-in.o
                0x000000000022a5bc                write_to_keymaster
 .text.copy_from_buf
                0x000000000022a738       0x3c common/built-in.o
 .text.free_cert_chain
                0x000000000022a774       0x64 common/built-in.o
 .text.copy_blob_from_buf
                0x000000000022a7d8       0x7c common/built-in.o
 .text.copy_cert_chain_from_buf
                0x000000000022a854       0xd8 common/built-in.o
 .text.write_key
                0x000000000022a92c       0xac common/built-in.o
 .text.write_cert.isra.0
                0x000000000022a9d8       0x98 common/built-in.o
 .text.write_cert_chain_length.isra.0
                0x000000000022aa70       0x88 common/built-in.o
 .text.load_attestation_key
                0x000000000022aaf8      0x3e0 common/built-in.o
                0x000000000022aaf8                load_attestation_key
 .text.read_key_data
                0x000000000022aed8      0x140 common/built-in.o
                0x000000000022aed8                read_key_data
 .text.write_attestation_key_to_secure_storage
                0x000000000022b018      0x1bc common/built-in.o
                0x000000000022b018                write_attestation_key_to_secure_storage
 .text.part_driver_lookup_type
                0x000000000022b1d4       0xa4 disk/built-in.o
 .text.part_get_info_by_name_option
                0x000000000022b278       0xa8 disk/built-in.o
 .text.blk_get_dev
                0x000000000022b320       0x38 disk/built-in.o
                0x000000000022b320                blk_get_dev
 .text.dev_print
                0x000000000022b358      0x1d0 disk/built-in.o
                0x000000000022b358                dev_print
 .text.part_init
                0x000000000022b528       0x7c disk/built-in.o
                0x000000000022b528                part_init
 .text.part_print
                0x000000000022b5a4      0x160 disk/built-in.o
                0x000000000022b5a4                part_print
 .text.part_get_type
                0x000000000022b704       0x44 disk/built-in.o
                0x000000000022b704                part_get_type
 .text.part_get_info
                0x000000000022b748       0x68 disk/built-in.o
                0x000000000022b748                part_get_info
 .text.part_get_info_whole_disk
                0x000000000022b7b0       0x54 disk/built-in.o
                0x000000000022b7b0                part_get_info_whole_disk
 .text.blk_get_device_by_str
                0x000000000022b804      0x164 disk/built-in.o
                0x000000000022b804                blk_get_device_by_str
 .text.blk_get_device_part_str
                0x000000000022b968      0x358 disk/built-in.o
                0x000000000022b968                blk_get_device_part_str
 .text.part_get_info_by_name
                0x000000000022bcc0        0x8 disk/built-in.o
                0x000000000022bcc0                part_get_info_by_name
 .text.part_set_generic_name
                0x000000000022bcc8       0x48 disk/built-in.o
                0x000000000022bcc8                part_set_generic_name
 .text.test_block_type
                0x000000000022bd10       0x80 disk/built-in.o
 .text.print_partition_extended
                0x000000000022bd90      0x238 disk/built-in.o
 .text.part_print_dos
                0x000000000022bfc8       0x3c disk/built-in.o
                0x000000000022bfc8                part_print_dos
 .text.part_test_dos
                0x000000000022c004       0x84 disk/built-in.o
 .text.part_get_info_extended
                0x000000000022c088      0x298 disk/built-in.o
 .text.part_get_info_dos
                0x000000000022c320       0x1c disk/built-in.o
                0x000000000022c320                part_get_info_dos
 .text.is_valid_dos_buf
                0x000000000022c33c       0x1c disk/built-in.o
                0x000000000022c33c                is_valid_dos_buf
 .text.write_mbr_partition
                0x000000000022c358       0x80 disk/built-in.o
                0x000000000022c358                write_mbr_partition
 .text.print_efiname
                0x000000000022c3d8       0x54 disk/built-in.o
 .text.validate_gpt_entries
                0x000000000022c42c       0xa8 disk/built-in.o
 .text.validate_gpt_header
                0x000000000022c4d4      0x250 disk/built-in.o
 .text.is_gpt_valid
                0x000000000022c724      0x274 disk/built-in.o
 .text.set_protective_mbr
                0x000000000022c998       0xec disk/built-in.o
 .text.is_pte_valid
                0x000000000022ca84       0x64 disk/built-in.o
 .text.gpt_entry_modify
                0x000000000022cae8      0x168 disk/built-in.o
 .text.part_efi_repair
                0x000000000022cc50      0x480 disk/built-in.o
 .text.part_test_efi
                0x000000000022d0d0      0x1f4 disk/built-in.o
 .text.part_print_efi
                0x000000000022d2c4      0x274 disk/built-in.o
                0x000000000022d2c4                part_print_efi
 .text.part_get_info_efi
                0x000000000022d538      0x2b4 disk/built-in.o
                0x000000000022d538                part_get_info_efi
 .text.get_disk_guid
                0x000000000022d7ec       0xe0 disk/built-in.o
                0x000000000022d7ec                get_disk_guid
 .text.write_gpt_table
                0x000000000022d8cc      0x404 disk/built-in.o
                0x000000000022d8cc                write_gpt_table
 .text.gpt_fill_pte
                0x000000000022dcd0      0x3a8 disk/built-in.o
                0x000000000022dcd0                gpt_fill_pte
 .text.gpt_fill_header
                0x000000000022e078      0x250 disk/built-in.o
                0x000000000022e078                gpt_fill_header
 .text.gpt_restore
                0x000000000022e2c8      0x150 disk/built-in.o
                0x000000000022e2c8                gpt_restore
 .text.gpt_verify_headers
                0x000000000022e418       0x98 disk/built-in.o
                0x000000000022e418                gpt_verify_headers
 .text.gpt_verify_partitions
                0x000000000022e4b0      0x1f4 disk/built-in.o
                0x000000000022e4b0                gpt_verify_partitions
 .text.is_valid_gpt_buf
                0x000000000022e6a4      0x148 disk/built-in.o
                0x000000000022e6a4                is_valid_gpt_buf
 .text.write_mbr_and_gpt_partitions
                0x000000000022e7ec      0x45c disk/built-in.o
                0x000000000022e7ec                write_mbr_and_gpt_partitions
 .text.rkparm_init_param.constprop.0
                0x000000000022ec48      0x240 disk/built-in.o
 .text.part_get_info_rkparm
                0x000000000022ee88      0x12c disk/built-in.o
 .text.part_print_rkparm
                0x000000000022efb4       0xbc disk/built-in.o
 .text.part_test_rkparm
                0x000000000022f070       0x50 disk/built-in.o
 .text.clk_request
                0x000000000022f0c0       0x2c drivers/built-in.o
                0x000000000022f0c0                clk_request
 .text.clk_get_by_indexed_prop
                0x000000000022f0ec       0xb0 drivers/built-in.o
 .text.clk_get_by_index
                0x000000000022f19c       0x14 drivers/built-in.o
                0x000000000022f19c                clk_get_by_index
 .text.clk_get_by_name
                0x000000000022f1b0       0x50 drivers/built-in.o
                0x000000000022f1b0                clk_get_by_name
 .text.clk_free
                0x000000000022f200       0x24 drivers/built-in.o
                0x000000000022f200                clk_free
 .text.clk_get_rate
                0x000000000022f224       0x24 drivers/built-in.o
                0x000000000022f224                clk_get_rate
 .text.clk_set_rate
                0x000000000022f248       0x24 drivers/built-in.o
                0x000000000022f248                clk_set_rate
 .text.clk_set_phase
                0x000000000022f26c       0x24 drivers/built-in.o
                0x000000000022f26c                clk_set_phase
 .text.clk_set_parent
                0x000000000022f290       0x24 drivers/built-in.o
                0x000000000022f290                clk_set_parent
 .text.clk_set_defaults
                0x000000000022f2b4      0x17c drivers/built-in.o
                0x000000000022f2b4                clk_set_defaults
 .text.clk_enable
                0x000000000022f430       0x24 drivers/built-in.o
                0x000000000022f430                clk_enable
 .text.clk_disable
                0x000000000022f454       0x24 drivers/built-in.o
                0x000000000022f454                clk_disable
 .text.clk_release_all
                0x000000000022f478       0x7c drivers/built-in.o
                0x000000000022f478                clk_release_all
 .text.clks_probe
                0x000000000022f4f4       0x88 drivers/built-in.o
                0x000000000022f4f4                clks_probe
 .text.clk_fixed_rate_ofdata_to_platdata
                0x000000000022f57c       0x40 drivers/built-in.o
 .text.clk_fixed_rate_get_rate
                0x000000000022f5bc       0x2c drivers/built-in.o
 .text.px30_mmc_get_clk
                0x000000000022f5e8       0x84 drivers/built-in.o
 .text.px30_mmc_set_clk
                0x000000000022f66c       0xac drivers/built-in.o
 .text.px30_bus_get_clk
                0x000000000022f718       0x88 drivers/built-in.o
 .text.px30_peri_get_clk
                0x000000000022f7a0       0x48 drivers/built-in.o
 .text.px30_otp_get_clk
                0x000000000022f7e8       0xb8 drivers/built-in.o
 .text.px30_crypto_get_clk
                0x000000000022f8a0       0x48 drivers/built-in.o
 .text.px30_pclk_pmu_set_pmuclk
                0x000000000022f8e8       0x44 drivers/built-in.o
 .text.px30_i2c_get_clk
                0x000000000022f92c       0x8c drivers/built-in.o
 .text.px30_pwm_get_clk
                0x000000000022f9b8       0x60 drivers/built-in.o
 .text.px30_spi_get_clk
                0x000000000022fa18       0x60 drivers/built-in.o
 .text.px30_bus_set_clk
                0x000000000022fa78       0xe0 drivers/built-in.o
 .text.px30_peri_set_clk
                0x000000000022fb58       0x70 drivers/built-in.o
 .text.rkclk_set_pll
                0x000000000022fbc8      0x278 drivers/built-in.o
 .text.px30_clk_ofdata_to_platdata
                0x000000000022fe40       0x34 drivers/built-in.o
 .text.px30_pmuclk_ofdata_to_platdata
                0x000000000022fe74       0x34 drivers/built-in.o
 .text.px30_clk_bind
                0x000000000022fea8       0x9c drivers/built-in.o
 .text.rkclk_pll_get_rate
                0x000000000022ff44       0x90 drivers/built-in.o
 .text.px30_vop_get_clk
                0x000000000022ffd4       0x94 drivers/built-in.o
 .text.px30_clk_set_pll_rate.constprop.0.isra.0
                0x0000000000230068       0x54 drivers/built-in.o
 .text.px30_clk_set_parent
                0x00000000002300bc       0x64 drivers/built-in.o
 .text.px30_clk_get_pll_rate.isra.0
                0x0000000000230120       0x28 drivers/built-in.o
 .text.px30_armclk_set_clk.isra.0
                0x0000000000230148      0x118 drivers/built-in.o
 .text.px30_clk_probe
                0x0000000000230260      0x108 drivers/built-in.o
 .text.px30_i2s_get_clk.isra.0
                0x0000000000230368       0x5c drivers/built-in.o
 .text.px30_i2s_set_clk.isra.0
                0x00000000002303c4       0xd8 drivers/built-in.o
 .text.px30_nandc_set_clk.isra.0
                0x000000000023049c       0x38 drivers/built-in.o
 .text.px30_i2s1_mclk_set_clk.isra.0
                0x00000000002304d4       0x90 drivers/built-in.o
 .text.px30_sfc_set_clk.isra.0
                0x0000000000230564       0x44 drivers/built-in.o
 .text.px30_clk_set_rate
                0x00000000002305a8      0x714 drivers/built-in.o
 .text.px30_clk_get_rate
                0x0000000000230cbc      0x234 drivers/built-in.o
 .text.px30_gpll_set_pmuclk
                0x0000000000230ef0      0x2e4 drivers/built-in.o
 .text.px30_pmuclk_set_rate
                0x00000000002311d4       0x60 drivers/built-in.o
 .text.px30_pmuclk_probe
                0x0000000000231234      0x190 drivers/built-in.o
 .text.px30_pmuclk_get_rate
                0x00000000002313c4       0x74 drivers/built-in.o
 .text.rockchip_mmc_get_phase
                0x0000000000231438       0x9c drivers/built-in.o
                0x0000000000231438                rockchip_mmc_get_phase
 .text.px30_clk_get_phase
                0x00000000002314d4       0x20 drivers/built-in.o
 .text.rockchip_mmc_set_phase
                0x00000000002314f4       0xc0 drivers/built-in.o
                0x00000000002314f4                rockchip_mmc_set_phase
 .text.px30_clk_set_phase
                0x00000000002315b4       0x20 drivers/built-in.o
 .text.soc_clk_dump
                0x00000000002315d4      0x184 drivers/built-in.o
                0x00000000002315d4                soc_clk_dump
 .text.alloc_priv
                0x0000000000231758       0x64 drivers/built-in.o
 .text.device_bind_common.constprop.0
                0x00000000002317bc      0x478 drivers/built-in.o
 .text.device_bind_with_driver_data
                0x0000000000231c34       0x14 drivers/built-in.o
                0x0000000000231c34                device_bind_with_driver_data
 .text.device_bind
                0x0000000000231c48       0x1c drivers/built-in.o
                0x0000000000231c48                device_bind
 .text.device_bind_by_name
                0x0000000000231c64       0x84 drivers/built-in.o
                0x0000000000231c64                device_bind_by_name
 .text.device_probe
                0x0000000000231ce8      0x264 drivers/built-in.o
                0x0000000000231ce8                device_probe
 .text.dev_get_platdata
                0x0000000000231f4c       0x40 drivers/built-in.o
                0x0000000000231f4c                dev_get_platdata
 .text.dev_get_parent_platdata
                0x0000000000231f8c       0x40 drivers/built-in.o
                0x0000000000231f8c                dev_get_parent_platdata
 .text.dev_get_uclass_platdata
                0x0000000000231fcc       0x40 drivers/built-in.o
                0x0000000000231fcc                dev_get_uclass_platdata
 .text.dev_get_priv
                0x000000000023200c       0x40 drivers/built-in.o
                0x000000000023200c                dev_get_priv
 .text.dev_get_uclass_priv
                0x000000000023204c       0x40 drivers/built-in.o
                0x000000000023204c                dev_get_uclass_priv
 .text.dev_get_parent_priv
                0x000000000023208c       0x40 drivers/built-in.o
                0x000000000023208c                dev_get_parent_priv
 .text.device_find_first_child
                0x00000000002320cc       0x20 drivers/built-in.o
                0x00000000002320cc                device_find_first_child
 .text.device_find_next_child
                0x00000000002320ec       0x28 drivers/built-in.o
                0x00000000002320ec                device_find_next_child
 .text.dev_get_parent
                0x0000000000232114        0x8 drivers/built-in.o
                0x0000000000232114                dev_get_parent
 .text.dev_get_driver_data
                0x000000000023211c        0x8 drivers/built-in.o
                0x000000000023211c                dev_get_driver_data
 .text.dev_get_driver_ops
                0x0000000000232124       0x10 drivers/built-in.o
                0x0000000000232124                dev_get_driver_ops
 .text.device_get_uclass_id
                0x0000000000232134       0x10 drivers/built-in.o
                0x0000000000232134                device_get_uclass_id
 .text.device_has_active_children
                0x0000000000232144       0x3c drivers/built-in.o
                0x0000000000232144                device_has_active_children
 .text.device_is_last_sibling
                0x0000000000232180       0x24 drivers/built-in.o
                0x0000000000232180                device_is_last_sibling
 .text.device_set_name_alloced
                0x00000000002321a4       0x10 drivers/built-in.o
                0x00000000002321a4                device_set_name_alloced
 .text.device_set_name
                0x00000000002321b4       0x44 drivers/built-in.o
                0x00000000002321b4                device_set_name
 .text.device_is_compatible
                0x00000000002321f8       0x64 drivers/built-in.o
                0x00000000002321f8                device_is_compatible
 .text.devfdt_get_addr_index
                0x000000000023225c       0xbc drivers/built-in.o
                0x000000000023225c                devfdt_get_addr_index
 .text.devfdt_get_addr_size_index
                0x0000000000232318       0x48 drivers/built-in.o
                0x0000000000232318                devfdt_get_addr_size_index
 .text.lists_driver_lookup_name
                0x0000000000232360       0x78 drivers/built-in.o
                0x0000000000232360                lists_driver_lookup_name
 .text.lists_uclass_lookup
                0x00000000002323d8       0x44 drivers/built-in.o
                0x00000000002323d8                lists_uclass_lookup
 .text.lists_bind_drivers
                0x000000000023241c       0xb0 drivers/built-in.o
                0x000000000023241c                lists_bind_drivers
 .text.device_bind_driver_to_node
                0x00000000002324cc       0x68 drivers/built-in.o
                0x00000000002324cc                device_bind_driver_to_node
 .text.device_bind_driver
                0x0000000000232534       0x14 drivers/built-in.o
                0x0000000000232534                device_bind_driver
 .text.lists_bind_fdt
                0x0000000000232548      0x188 drivers/built-in.o
                0x0000000000232548                lists_bind_fdt
 .text.dm_scan_fdt_node
                0x00000000002326d0       0xd0 drivers/built-in.o
 .text.dm_scan_fdt_live.isra.0
                0x00000000002327a0      0x108 drivers/built-in.o
 .text.dm_root  0x00000000002328a8       0x38 drivers/built-in.o
                0x00000000002328a8                dm_root
 .text.dm_get_translation_offset
                0x00000000002328e0       0x1c drivers/built-in.o
                0x00000000002328e0                dm_get_translation_offset
 .text.dm_init  0x00000000002328fc       0x80 drivers/built-in.o
                0x00000000002328fc                dm_init
 .text.dm_remove_devices_flags
                0x000000000023297c       0x2c drivers/built-in.o
                0x000000000023297c                dm_remove_devices_flags
 .text.dm_scan_platdata
                0x00000000002329a8       0x34 drivers/built-in.o
                0x00000000002329a8                dm_scan_platdata
 .text.dm_scan_fdt_dev
                0x00000000002329dc       0x58 drivers/built-in.o
                0x00000000002329dc                dm_scan_fdt_dev
 .text.dm_scan_fdt
                0x0000000000232a34       0x34 drivers/built-in.o
                0x0000000000232a34                dm_scan_fdt
 .text.dm_extended_scan_fdt
                0x0000000000232a68       0x60 drivers/built-in.o
                0x0000000000232a68                dm_extended_scan_fdt
 .text.dm_scan_other
                0x0000000000232ac8        0x8 drivers/built-in.o
                0x0000000000232ac8                dm_scan_other
 .text.dm_init_and_scan
                0x0000000000232ad0       0x54 drivers/built-in.o
                0x0000000000232ad0                dm_init_and_scan
 .text.uclass_find
                0x0000000000232b24       0x4c drivers/built-in.o
                0x0000000000232b24                uclass_find
 .text.uclass_get
                0x0000000000232b70      0x128 drivers/built-in.o
                0x0000000000232b70                uclass_get
 .text.uclass_find_device
                0x0000000000232c98       0x78 drivers/built-in.o
                0x0000000000232c98                uclass_find_device
 .text.uclass_find_first_device
                0x0000000000232d10       0x48 drivers/built-in.o
                0x0000000000232d10                uclass_find_first_device
 .text.uclass_find_next_device
                0x0000000000232d58       0x28 drivers/built-in.o
                0x0000000000232d58                uclass_find_next_device
 .text.uclass_find_device_by_name
                0x0000000000232d80       0x98 drivers/built-in.o
                0x0000000000232d80                uclass_find_device_by_name
 .text.uclass_find_device_by_seq
                0x0000000000232e18       0x90 drivers/built-in.o
                0x0000000000232e18                uclass_find_device_by_seq
 .text.uclass_find_device_by_ofnode
                0x0000000000232ea8       0x80 drivers/built-in.o
                0x0000000000232ea8                uclass_find_device_by_ofnode
 .text.uclass_get_device_by_driver
                0x0000000000232f28       0x7c drivers/built-in.o
                0x0000000000232f28                uclass_get_device_by_driver
 .text.uclass_get_device_tail
                0x0000000000232fa4       0x40 drivers/built-in.o
                0x0000000000232fa4                uclass_get_device_tail
 .text.uclass_get_device
                0x0000000000232fe4       0x38 drivers/built-in.o
                0x0000000000232fe4                uclass_get_device
 .text.uclass_get_device_by_name
                0x000000000023301c       0x38 drivers/built-in.o
                0x000000000023301c                uclass_get_device_by_name
 .text.uclass_get_device_by_seq
                0x0000000000233054       0x68 drivers/built-in.o
                0x0000000000233054                uclass_get_device_by_seq
 .text.uclass_get_device_by_ofnode
                0x00000000002330bc       0x38 drivers/built-in.o
                0x00000000002330bc                uclass_get_device_by_ofnode
 .text.uclass_get_device_by_phandle_id
                0x00000000002330f4       0x98 drivers/built-in.o
                0x00000000002330f4                uclass_get_device_by_phandle_id
 .text.uclass_get_device_by_phandle
                0x000000000023318c       0xbc drivers/built-in.o
                0x000000000023318c                uclass_get_device_by_phandle
 .text.uclass_first_device
                0x0000000000233248       0x44 drivers/built-in.o
                0x0000000000233248                uclass_first_device
 .text.uclass_first_device_err
                0x000000000023328c       0x34 drivers/built-in.o
                0x000000000023328c                uclass_first_device_err
 .text.uclass_next_device
                0x00000000002332c0       0x44 drivers/built-in.o
                0x00000000002332c0                uclass_next_device
 .text.uclass_bind_device
                0x0000000000233304       0x70 drivers/built-in.o
                0x0000000000233304                uclass_bind_device
 .text.uclass_unbind_device
                0x0000000000233374       0x4c drivers/built-in.o
                0x0000000000233374                uclass_unbind_device
 .text.uclass_resolve_seq
                0x00000000002333c0       0xb8 drivers/built-in.o
                0x00000000002333c0                uclass_resolve_seq
 .text.uclass_pre_probe_device
                0x0000000000233478       0x68 drivers/built-in.o
                0x0000000000233478                uclass_pre_probe_device
 .text.uclass_post_probe_device
                0x00000000002334e0       0x20 drivers/built-in.o
                0x00000000002334e0                uclass_post_probe_device
 .text.uclass_pre_remove_device
                0x0000000000233500       0x20 drivers/built-in.o
                0x0000000000233500                uclass_pre_remove_device
 .text.dm_warn  0x0000000000233520       0x78 drivers/built-in.o
                0x0000000000233520                dm_warn
 .text.dm_fdt_pre_reloc
                0x0000000000233598       0x78 drivers/built-in.o
                0x0000000000233598                dm_fdt_pre_reloc
 .text.device_unbind
                0x0000000000233610      0x11c drivers/built-in.o
                0x0000000000233610                device_unbind
 .text.device_free
                0x000000000023372c       0x80 drivers/built-in.o
                0x000000000023372c                device_free
 .text.device_remove
                0x00000000002337ac      0x174 drivers/built-in.o
                0x00000000002337ac                device_remove
 .text.simple_bus_post_bind
                0x0000000000233920       0x5c drivers/built-in.o
 .text.show_devices
                0x000000000023397c      0x168 drivers/built-in.o
 .text.dm_dump_all
                0x0000000000233ae4       0x54 drivers/built-in.o
                0x0000000000233ae4                dm_dump_all
 .text.dm_dump_uclass
                0x0000000000233b38      0x170 drivers/built-in.o
                0x0000000000233b38                dm_dump_uclass
 .text.regmap_init_mem
                0x0000000000233ca8      0x138 drivers/built-in.o
                0x0000000000233ca8                regmap_init_mem
 .text.regmap_get_range
                0x0000000000233de0       0x24 drivers/built-in.o
                0x0000000000233de0                regmap_get_range
 .text.regmap_read
                0x0000000000233e04       0x1c drivers/built-in.o
                0x0000000000233e04                regmap_read
 .text.regmap_write
                0x0000000000233e20       0x18 drivers/built-in.o
                0x0000000000233e20                regmap_write
 .text.syscon_pre_probe
                0x0000000000233e38       0x28 drivers/built-in.o
 .text.syscon_get_regmap
                0x0000000000233e60       0x3c drivers/built-in.o
                0x0000000000233e60                syscon_get_regmap
 .text.syscon_regmap_lookup_by_phandle
                0x0000000000233e9c       0x44 drivers/built-in.o
                0x0000000000233e9c                syscon_regmap_lookup_by_phandle
 .text.syscon_get_by_driver_data
                0x0000000000233ee0       0x74 drivers/built-in.o
                0x0000000000233ee0                syscon_get_by_driver_data
 .text.syscon_get_regmap_by_driver_data
                0x0000000000233f54       0x30 drivers/built-in.o
                0x0000000000233f54                syscon_get_regmap_by_driver_data
 .text.syscon_get_first_range
                0x0000000000233f84       0x28 drivers/built-in.o
                0x0000000000233f84                syscon_get_first_range
 .text.of_find_property
                0x0000000000233fac       0x74 drivers/built-in.o
                0x0000000000233fac                of_find_property
 .text.of_find_property_value_of_size
                0x0000000000234020       0x54 drivers/built-in.o
 .text.of_find_all_nodes
                0x0000000000234074       0x28 drivers/built-in.o
                0x0000000000234074                of_find_all_nodes
 .text.of_get_property
                0x000000000023409c       0x1c drivers/built-in.o
                0x000000000023409c                of_get_property
 .text.of_n_addr_cells
                0x00000000002340b8       0x5c drivers/built-in.o
                0x00000000002340b8                of_n_addr_cells
 .text.of_n_size_cells
                0x0000000000234114       0x5c drivers/built-in.o
                0x0000000000234114                of_n_size_cells
 .text.of_simple_addr_cells
                0x0000000000234170       0x34 drivers/built-in.o
                0x0000000000234170                of_simple_addr_cells
 .text.of_simple_size_cells
                0x00000000002341a4       0x34 drivers/built-in.o
                0x00000000002341a4                of_simple_size_cells
 .text.of_device_is_compatible
                0x00000000002341d8      0x110 drivers/built-in.o
                0x00000000002341d8                of_device_is_compatible
 .text.of_device_is_available
                0x00000000002342e8       0x60 drivers/built-in.o
                0x00000000002342e8                of_device_is_available
 .text.of_get_parent
                0x0000000000234348        0xc drivers/built-in.o
                0x0000000000234348                of_get_parent
 .text.of_find_node_opts_by_path
                0x0000000000234354      0x1a0 drivers/built-in.o
                0x0000000000234354                of_find_node_opts_by_path
 .text.of_find_node_by_phandle
                0x00000000002344f4       0x54 drivers/built-in.o
                0x00000000002344f4                of_find_node_by_phandle
 .text.of_read_u32
                0x0000000000234548       0x48 drivers/built-in.o
                0x0000000000234548                of_read_u32
 .text.__of_parse_phandle_with_args.constprop.0
                0x0000000000234590      0x16c drivers/built-in.o
 .text.of_property_read_u64
                0x00000000002346fc       0x44 drivers/built-in.o
                0x00000000002346fc                of_property_read_u64
 .text.of_read_u32_array
                0x0000000000234740       0x58 drivers/built-in.o
                0x0000000000234740                of_read_u32_array
 .text.of_write_u32_array
                0x0000000000234798       0x58 drivers/built-in.o
                0x0000000000234798                of_write_u32_array
 .text.of_property_match_string
                0x00000000002347f0       0xa4 drivers/built-in.o
                0x00000000002347f0                of_property_match_string
 .text.of_property_read_string_helper
                0x0000000000234894       0xcc drivers/built-in.o
                0x0000000000234894                of_property_read_string_helper
 .text.of_parse_phandle
                0x0000000000234960       0x3c drivers/built-in.o
                0x0000000000234960                of_parse_phandle
 .text.of_parse_phandle_with_args
                0x000000000023499c       0x10 drivers/built-in.o
                0x000000000023499c                of_parse_phandle_with_args
 .text.of_count_phandle_with_args
                0x00000000002349ac        0xc drivers/built-in.o
                0x00000000002349ac                of_count_phandle_with_args
 .text.of_alias_scan
                0x00000000002349b8      0x230 drivers/built-in.o
                0x00000000002349b8                of_alias_scan
 .text.of_alias_get_id
                0x0000000000234be8       0x6c drivers/built-in.o
                0x0000000000234be8                of_alias_get_id
 .text.of_alias_get_dev
                0x0000000000234c54       0x6c drivers/built-in.o
                0x0000000000234c54                of_alias_get_dev
 .text.of_alias_dump
                0x0000000000234cc0       0xc8 drivers/built-in.o
                0x0000000000234cc0                of_alias_dump
 .text.of_bus_default_map
                0x0000000000234d88       0xa4 drivers/built-in.o
 .text.of_bus_default_get_flags
                0x0000000000234e2c        0x8 drivers/built-in.o
 .text.of_bus_default_count_cells
                0x0000000000234e34       0x48 drivers/built-in.o
 .text.of_bus_default_translate
                0x0000000000234e7c       0xb8 drivers/built-in.o
 .text.of_match_bus
                0x0000000000234f34       0x60 drivers/built-in.o
 .text.of_get_address
                0x0000000000234f94      0x148 drivers/built-in.o
                0x0000000000234f94                of_get_address
 .text.of_translate_address
                0x00000000002350dc      0x228 drivers/built-in.o
                0x00000000002350dc                of_translate_address
 .text.of_address_to_resource
                0x0000000000235304       0xcc drivers/built-in.o
                0x0000000000235304                of_address_to_resource
 .text.dev_read_u32_default
                0x00000000002353d0        0x8 drivers/built-in.o
                0x00000000002353d0                dev_read_u32_default
 .text.dev_read_string
                0x00000000002353d8        0x8 drivers/built-in.o
                0x00000000002353d8                dev_read_string
 .text.dev_read_bool
                0x00000000002353e0        0x8 drivers/built-in.o
                0x00000000002353e0                dev_read_bool
 .text.dev_read_subnode
                0x00000000002353e8        0x8 drivers/built-in.o
                0x00000000002353e8                dev_read_subnode
 .text.dev_read_first_subnode
                0x00000000002353f0        0x8 drivers/built-in.o
                0x00000000002353f0                dev_read_first_subnode
 .text.dev_read_size
                0x00000000002353f8        0x8 drivers/built-in.o
                0x00000000002353f8                dev_read_size
 .text.dev_read_addr_index
                0x0000000000235400       0x2c drivers/built-in.o
                0x0000000000235400                dev_read_addr_index
 .text.dev_read_addr
                0x000000000023542c        0x8 drivers/built-in.o
                0x000000000023542c                dev_read_addr
 .text.dev_read_addr_ptr
                0x0000000000235434       0x20 drivers/built-in.o
                0x0000000000235434                dev_read_addr_ptr
 .text.dev_read_addr_size
                0x0000000000235454        0x8 drivers/built-in.o
                0x0000000000235454                dev_read_addr_size
 .text.dev_read_name
                0x000000000023545c       0x28 drivers/built-in.o
                0x000000000023545c                dev_read_name
 .text.dev_read_stringlist_search
                0x0000000000235484        0x8 drivers/built-in.o
                0x0000000000235484                dev_read_stringlist_search
 .text.dev_read_string_index
                0x000000000023548c        0x8 drivers/built-in.o
                0x000000000023548c                dev_read_string_index
 .text.dev_read_phandle_with_args
                0x0000000000235494        0x8 drivers/built-in.o
                0x0000000000235494                dev_read_phandle_with_args
 .text.dev_count_phandle_with_args
                0x000000000023549c        0x8 drivers/built-in.o
                0x000000000023549c                dev_count_phandle_with_args
 .text.dev_read_simple_addr_cells
                0x00000000002354a4        0x8 drivers/built-in.o
                0x00000000002354a4                dev_read_simple_addr_cells
 .text.dev_read_simple_size_cells
                0x00000000002354ac        0x8 drivers/built-in.o
                0x00000000002354ac                dev_read_simple_size_cells
 .text.dev_read_phandle
                0x00000000002354b4       0x34 drivers/built-in.o
                0x00000000002354b4                dev_read_phandle
 .text.dev_read_prop
                0x00000000002354e8        0x8 drivers/built-in.o
                0x00000000002354e8                dev_read_prop
 .text.dev_read_alias_seq
                0x00000000002354f0       0x70 drivers/built-in.o
                0x00000000002354f0                dev_read_alias_seq
 .text.dev_read_u32_array
                0x0000000000235560       0x28 drivers/built-in.o
                0x0000000000235560                dev_read_u32_array
 .text.dev_write_u32_array
                0x0000000000235588       0x28 drivers/built-in.o
                0x0000000000235588                dev_write_u32_array
 .text.dev_read_resource
                0x00000000002355b0        0x8 drivers/built-in.o
                0x00000000002355b0                dev_read_resource
 .text.ofnode_read_u32
                0x00000000002355b8       0x90 drivers/built-in.o
                0x00000000002355b8                ofnode_read_u32
 .text.ofnode_read_u32_default
                0x0000000000235648       0x28 drivers/built-in.o
                0x0000000000235648                ofnode_read_u32_default
 .text.ofnode_read_s32_default
                0x0000000000235670       0x28 drivers/built-in.o
                0x0000000000235670                ofnode_read_s32_default
 .text.ofnode_read_u64
                0x0000000000235698       0x4c drivers/built-in.o
                0x0000000000235698                ofnode_read_u64
 .text.ofnode_read_string
                0x00000000002356e4       0xa0 drivers/built-in.o
                0x00000000002356e4                ofnode_read_string
 .text.ofnode_find_subnode
                0x0000000000235784       0x8c drivers/built-in.o
                0x0000000000235784                ofnode_find_subnode
 .text.ofnode_read_u32_array
                0x0000000000235810       0x44 drivers/built-in.o
                0x0000000000235810                ofnode_read_u32_array
 .text.ofnode_write_u32_array
                0x0000000000235854       0x44 drivers/built-in.o
                0x0000000000235854                ofnode_write_u32_array
 .text.ofnode_first_subnode
                0x0000000000235898       0x58 drivers/built-in.o
                0x0000000000235898                ofnode_first_subnode
 .text.ofnode_next_subnode
                0x00000000002358f0       0x58 drivers/built-in.o
                0x00000000002358f0                ofnode_next_subnode
 .text.ofnode_get_parent
                0x0000000000235948       0x50 drivers/built-in.o
                0x0000000000235948                ofnode_get_parent
 .text.ofnode_get_name
                0x0000000000235998       0x74 drivers/built-in.o
                0x0000000000235998                ofnode_get_name
 .text.ofnode_get_by_phandle
                0x0000000000235a0c       0x30 drivers/built-in.o
                0x0000000000235a0c                ofnode_get_by_phandle
 .text.ofnode_read_size
                0x0000000000235a3c       0x6c drivers/built-in.o
                0x0000000000235a3c                ofnode_read_size
 .text.ofnode_get_addr_index
                0x0000000000235aa8       0xa0 drivers/built-in.o
                0x0000000000235aa8                ofnode_get_addr_index
 .text.ofnode_stringlist_search
                0x0000000000235b48       0x68 drivers/built-in.o
                0x0000000000235b48                ofnode_stringlist_search
 .text.ofnode_read_string_index
                0x0000000000235bb0       0x88 drivers/built-in.o
                0x0000000000235bb0                ofnode_read_string_index
 .text.ofnode_parse_phandle_with_args
                0x0000000000235c38       0xd0 drivers/built-in.o
                0x0000000000235c38                ofnode_parse_phandle_with_args
 .text.ofnode_count_phandle_with_args
                0x0000000000235d08       0x48 drivers/built-in.o
                0x0000000000235d08                ofnode_count_phandle_with_args
 .text.ofnode_path
                0x0000000000235d50       0x40 drivers/built-in.o
                0x0000000000235d50                ofnode_path
 .text.ofnode_get_property
                0x0000000000235d90       0x3c drivers/built-in.o
                0x0000000000235d90                ofnode_get_property
 .text.ofnode_read_bool
                0x0000000000235dcc       0x28 drivers/built-in.o
                0x0000000000235dcc                ofnode_read_bool
 .text.ofnode_is_available
                0x0000000000235df4       0x4c drivers/built-in.o
                0x0000000000235df4                ofnode_is_available
 .text.ofnode_get_addr_size
                0x0000000000235e40       0xec drivers/built-in.o
                0x0000000000235e40                ofnode_get_addr_size
 .text.ofnode_read_simple_addr_cells
                0x0000000000235f2c       0x34 drivers/built-in.o
                0x0000000000235f2c                ofnode_read_simple_addr_cells
 .text.ofnode_read_simple_size_cells
                0x0000000000235f60       0x34 drivers/built-in.o
                0x0000000000235f60                ofnode_read_simple_size_cells
 .text.ofnode_pre_reloc
                0x0000000000235f94       0x64 drivers/built-in.o
                0x0000000000235f94                ofnode_pre_reloc
 .text.ofnode_read_resource
                0x0000000000235ff8       0x9c drivers/built-in.o
                0x0000000000235ff8                ofnode_read_resource
 .text.ofnode_read_resource_byname
                0x0000000000236094       0x4c drivers/built-in.o
                0x0000000000236094                ofnode_read_resource_byname
 .text.crypto_algo_nbits
                0x00000000002360e0      0x104 drivers/built-in.o
                0x00000000002360e0                crypto_algo_nbits
 .text.crypto_get_device
                0x00000000002361e4       0x78 drivers/built-in.o
                0x00000000002361e4                crypto_get_device
 .text.crypto_sha_init
                0x000000000023625c       0x38 drivers/built-in.o
                0x000000000023625c                crypto_sha_init
 .text.crypto_sha_update
                0x0000000000236294       0x30 drivers/built-in.o
                0x0000000000236294                crypto_sha_update
 .text.crypto_sha_final
                0x00000000002362c4       0xe8 drivers/built-in.o
                0x00000000002362c4                crypto_sha_final
 .text.crypto_sha_csum
                0x00000000002363ac       0x78 drivers/built-in.o
                0x00000000002363ac                crypto_sha_csum
 .text.crypto_v3_dynamic_cap
                0x0000000000236424       0x64 drivers/built-in.o
 .text.hw_hash_clean_ctx
                0x0000000000236488       0x44 drivers/built-in.o
 .text.rockchip_crypto_capability
                0x00000000002364cc       0x24 drivers/built-in.o
 .text.rk_hash_direct_calc
                0x00000000002364f0      0x168 drivers/built-in.o
 .text.rockchip_crypto_ofdata_to_platdata
                0x0000000000236658      0x16c drivers/built-in.o
 .text.rk_crypto_do_enable_clk.isra.0
                0x00000000002367c4       0xb8 drivers/built-in.o
 .text.rk_crypto_disable_clk.isra.0
                0x000000000023687c        0x8 drivers/built-in.o
 .text.rockchip_crypto_probe
                0x0000000000236884      0x188 drivers/built-in.o
 .text.rockchip_crypto_rsa_verify
                0x0000000000236a0c      0x174 drivers/built-in.o
 .text.rockchip_crypto_sha_init
                0x0000000000236b80      0x220 drivers/built-in.o
 .text.rk_hash_update
                0x0000000000236da0       0x68 drivers/built-in.o
                0x0000000000236da0                rk_hash_update
 .text.rockchip_crypto_sha_update
                0x0000000000236e08       0xb4 drivers/built-in.o
 .text.rk_hash_final
                0x0000000000236ebc      0x160 drivers/built-in.o
                0x0000000000236ebc                rk_hash_final
 .text.rockchip_crypto_sha_final
                0x000000000023701c       0x88 drivers/built-in.o
 .text.crypto_flush_cacheline
                0x00000000002370a4       0x2c drivers/built-in.o
                0x00000000002370a4                crypto_flush_cacheline
 .text.crypto_hash_cache_alloc
                0x00000000002370d0       0x74 drivers/built-in.o
                0x00000000002370d0                crypto_hash_cache_alloc
 .text.crypto_hash_cache_free
                0x0000000000237144       0x34 drivers/built-in.o
                0x0000000000237144                crypto_hash_cache_free
 .text.crypto_hash_update_with_cache
                0x0000000000237178      0x1e0 drivers/built-in.o
                0x0000000000237178                crypto_hash_update_with_cache
 .text.mpa_highest_bit_index
                0x0000000000237358       0x5c drivers/built-in.o
 .text.rk_check_size
                0x00000000002373b4       0x34 drivers/built-in.o
 .text.rk_pka_ram_ctrl_enable
                0x00000000002373e8       0x18 drivers/built-in.o
                0x00000000002373e8                rk_pka_ram_ctrl_enable
 .text.rk_pka_ram_ctrl_disable
                0x0000000000237400       0x18 drivers/built-in.o
                0x0000000000237400                rk_pka_ram_ctrl_disable
 .text.rk_pka_wait_on_ram_ready
                0x0000000000237418       0x18 drivers/built-in.o
                0x0000000000237418                rk_pka_wait_on_ram_ready
 .text.rk_pka_wait_on_pipe_ready
                0x0000000000237430       0x18 drivers/built-in.o
                0x0000000000237430                rk_pka_wait_on_pipe_ready
 .text.rk_pka_wait_on_done
                0x0000000000237448       0x18 drivers/built-in.o
                0x0000000000237448                rk_pka_wait_on_done
 .text.rk_pka_get_status_div_byzero
                0x0000000000237460       0x30 drivers/built-in.o
                0x0000000000237460                rk_pka_get_status_div_byzero
 .text.rk_pka_read_regsize
                0x0000000000237490       0x38 drivers/built-in.o
                0x0000000000237490                rk_pka_read_regsize
 .text.rk_pka_get_regaddr
                0x00000000002374c8       0x20 drivers/built-in.o
                0x00000000002374c8                rk_pka_get_regaddr
 .text.rk_pka_read_regaddr
                0x00000000002374e8       0x38 drivers/built-in.o
                0x00000000002374e8                rk_pka_read_regaddr
 .text.rk_pka_make_full_opcode
                0x0000000000237520       0x48 drivers/built-in.o
                0x0000000000237520                rk_pka_make_full_opcode
 .text.rk_pka_hw_load_block2pka_mem
                0x0000000000237568       0x38 drivers/built-in.o
                0x0000000000237568                rk_pka_hw_load_block2pka_mem
 .text.rk_pka_hw_clear_pka_mem
                0x00000000002375a0       0x38 drivers/built-in.o
                0x00000000002375a0                rk_pka_hw_clear_pka_mem
 .text.rk_pka_hw_read_block_from_pka_mem
                0x00000000002375d8       0x38 drivers/built-in.o
                0x00000000002375d8                rk_pka_hw_read_block_from_pka_mem
 .text.rk_pka_exec_operation
                0x0000000000237610       0xac drivers/built-in.o
                0x0000000000237610                rk_pka_exec_operation
 .text.rk_pka_set_sizes_tab
                0x00000000002376bc       0xb0 drivers/built-in.o
                0x00000000002376bc                rk_pka_set_sizes_tab
 .text.rk_pka_set_map_tab
                0x000000000023776c      0x104 drivers/built-in.o
                0x000000000023776c                rk_pka_set_map_tab
 .text.rk_pka_clear_block_of_regs
                0x0000000000237870       0xe8 drivers/built-in.o
                0x0000000000237870                rk_pka_clear_block_of_regs
 .text.rk_pka_init
                0x0000000000237958       0xd0 drivers/built-in.o
                0x0000000000237958                rk_pka_init
 .text.rk_pka_finish
                0x0000000000237a28       0x40 drivers/built-in.o
                0x0000000000237a28                rk_pka_finish
 .text.rk_pka_copy_data_into_reg
                0x0000000000237a68       0xa4 drivers/built-in.o
                0x0000000000237a68                rk_pka_copy_data_into_reg
 .text.rk_pka_copy_data_from_reg
                0x0000000000237b0c       0x4c drivers/built-in.o
                0x0000000000237b0c                rk_pka_copy_data_from_reg
 .text.rk_pka_div_long_num
                0x0000000000237b58      0x180 drivers/built-in.o
                0x0000000000237b58                rk_pka_div_long_num
 .text.rk_pka_calcNp_and_initmodop
                0x0000000000237cd8      0x118 drivers/built-in.o
                0x0000000000237cd8                rk_pka_calcNp_and_initmodop
 .text.rk_calcNp_and_initmodop
                0x0000000000237df0       0xa0 drivers/built-in.o
                0x0000000000237df0                rk_calcNp_and_initmodop
 .text.rk_mpa_alloc
                0x0000000000237e90       0xd4 drivers/built-in.o
                0x0000000000237e90                rk_mpa_alloc
 .text.rk_mpa_free
                0x0000000000237f64       0x4c drivers/built-in.o
                0x0000000000237f64                rk_mpa_free
 .text.rk_mod   0x0000000000237fb0      0x14c drivers/built-in.o
                0x0000000000237fb0                rk_mod
 .text.rk_exptmod_np
                0x00000000002380fc      0x250 drivers/built-in.o
                0x00000000002380fc                rk_exptmod_np
 .text.util_word_memcpy
                0x000000000023834c       0x20 drivers/built-in.o
                0x000000000023834c                util_word_memcpy
 .text.util_word_memset
                0x000000000023836c       0x1c drivers/built-in.o
                0x000000000023836c                util_word_memset
 .text.key_post_probe
                0x0000000000238388      0x154 drivers/built-in.o
 .text.key_timer
                0x00000000002384dc       0x1c drivers/built-in.o
                0x00000000002384dc                key_timer
 .text.gpio_irq_handler
                0x00000000002384f8       0xb4 drivers/built-in.o
 .text.key_is_pressed
                0x00000000002385ac       0x10 drivers/built-in.o
                0x00000000002385ac                key_is_pressed
 .text.key_read
                0x00000000002385bc      0x248 drivers/built-in.o
                0x00000000002385bc                key_read
 .text.key_exist
                0x0000000000238804       0x54 drivers/built-in.o
                0x0000000000238804                key_exist
 .text.key_bind_children
                0x0000000000238858       0xb8 drivers/built-in.o
                0x0000000000238858                key_bind_children
 .text.rk8xx_pwrkey_probe
                0x0000000000238910      0x10c drivers/built-in.o
 .text.rk8xx_pwron_rise_handler
                0x0000000000238a1c       0x30 drivers/built-in.o
 .text.rk8xx_pwron_fall_handler
                0x0000000000238a4c       0x30 drivers/built-in.o
 .text.adc_key_ofdata_to_platdata
                0x0000000000238a7c      0x1c0 drivers/built-in.o
 .text.adc_key_bus_bind
                0x0000000000238c3c        0xc drivers/built-in.o
 .text.generic_phy_get_by_index
                0x0000000000238c48       0xa8 drivers/built-in.o
                0x0000000000238c48                generic_phy_get_by_index
 .text.generic_phy_init
                0x0000000000238cf0       0x2c drivers/built-in.o
                0x0000000000238cf0                generic_phy_init
 .text.generic_phy_exit
                0x0000000000238d1c       0x2c drivers/built-in.o
                0x0000000000238d1c                generic_phy_exit
 .text.generic_phy_power_on
                0x0000000000238d48       0x2c drivers/built-in.o
                0x0000000000238d48                generic_phy_power_on
 .text.generic_phy_power_off
                0x0000000000238d74       0x2c drivers/built-in.o
                0x0000000000238d74                generic_phy_power_off
 .text.rockchip_chg_enable_dcd
                0x0000000000238da0       0xc0 drivers/built-in.o
 .text.rockchip_chg_enable_primary_det
                0x0000000000238e60       0xc0 drivers/built-in.o
 .text.rockchip_chg_enable_secondary_det
                0x0000000000238f20       0xc0 drivers/built-in.o
 .text.rockchip_usb2phy_exit
                0x0000000000238fe0       0xa4 drivers/built-in.o
 .text.rockchip_usb2phy_init
                0x0000000000239084       0xac drivers/built-in.o
 .text.rockchip_usb2phy_power_off
                0x0000000000239130       0x68 drivers/built-in.o
 .text.rockchip_usb2phy_power_on
                0x0000000000239198       0x68 drivers/built-in.o
 .text.rockchip_usb2phy_of_xlate
                0x0000000000239200       0xd8 drivers/built-in.o
 .text.rockchip_usb2phy_probe
                0x00000000002392d8      0x238 drivers/built-in.o
 .text.rockchip_usb2phy_bind
                0x0000000000239510       0xe0 drivers/built-in.o
 .text.rockchip_chg_get_type
                0x00000000002395f0      0x43c drivers/built-in.o
                0x00000000002395f0                rockchip_chg_get_type
 .text.rockchip_u2phy_vbus_detect
                0x0000000000239a2c       0x20 drivers/built-in.o
                0x0000000000239a2c                rockchip_u2phy_vbus_detect
 .text.otg_phy_init
                0x0000000000239a4c      0x144 drivers/built-in.o
                0x0000000000239a4c                otg_phy_init
 .text.pinconfig_post_bind
                0x0000000000239b90       0xe4 drivers/built-in.o
 .text.pinctrl_post_bind
                0x0000000000239c74       0x28 drivers/built-in.o
 .text.pinctrl_select_state
                0x0000000000239c9c      0x174 drivers/built-in.o
                0x0000000000239c9c                pinctrl_select_state
 .text.pinctrl_get_gpio_mux
                0x0000000000239e10       0x20 drivers/built-in.o
                0x0000000000239e10                pinctrl_get_gpio_mux
 .text.rockchip_get_recalced_mux
                0x0000000000239e30       0xd8 drivers/built-in.o
                0x0000000000239e9c                rockchip_get_recalced_mux
 .text.px30_calc_pull_reg_and_bit
                0x0000000000239f08       0x60 drivers/built-in.o
 .text.px30_calc_drv_reg_and_bit
                0x0000000000239f68       0x60 drivers/built-in.o
 .text.px30_calc_schmitt_reg_and_bit
                0x0000000000239fc8       0x5c drivers/built-in.o
 .text.rv1108_calc_pull_reg_and_bit
                0x000000000023a024       0x60 drivers/built-in.o
 .text.rv1108_calc_drv_reg_and_bit
                0x000000000023a084       0x60 drivers/built-in.o
 .text.rv1108_calc_schmitt_reg_and_bit
                0x000000000023a0e4       0x5c drivers/built-in.o
 .text.rv1126_calc_pull_reg_and_bit
                0x000000000023a140       0xa0 drivers/built-in.o
 .text.rv1126_calc_drv_reg_and_bit
                0x000000000023a1e0       0x9c drivers/built-in.o
 .text.rv1126_calc_schmitt_reg_and_bit
                0x000000000023a27c       0xa0 drivers/built-in.o
 .text.rk1808_calc_pull_reg_and_bit
                0x000000000023a31c       0x60 drivers/built-in.o
 .text.rk1808_calc_drv_reg_and_bit
                0x000000000023a37c       0x5c drivers/built-in.o
 .text.rk1808_calc_schmitt_reg_and_bit
                0x000000000023a3d8       0x60 drivers/built-in.o
 .text.rk2928_calc_pull_reg_and_bit
                0x000000000023a438       0x40 drivers/built-in.o
 .text.rk3128_calc_pull_reg_and_bit
                0x000000000023a478        0x4 drivers/built-in.o
 .text.rk3188_calc_pull_reg_and_bit
                0x000000000023a47c       0x70 drivers/built-in.o
 .text.rk3288_calc_pull_reg_and_bit
                0x000000000023a4ec       0x5c drivers/built-in.o
 .text.rk3288_calc_drv_reg_and_bit
                0x000000000023a548       0x5c drivers/built-in.o
 .text.rk3228_calc_pull_reg_and_bit
                0x000000000023a5a4       0x44 drivers/built-in.o
 .text.rk3228_calc_drv_reg_and_bit
                0x000000000023a5e8       0x44 drivers/built-in.o
 .text.rk3308_calc_pull_reg_and_bit
                0x000000000023a62c       0x44 drivers/built-in.o
 .text.rk3308_calc_drv_reg_and_bit
                0x000000000023a670        0x4 drivers/built-in.o
 .text.rk3308_calc_schmitt_reg_and_bit
                0x000000000023a674       0x44 drivers/built-in.o
 .text.rk3368_calc_pull_reg_and_bit
                0x000000000023a6b8       0x5c drivers/built-in.o
 .text.rk3368_calc_drv_reg_and_bit
                0x000000000023a714       0x5c drivers/built-in.o
 .text.rk3399_calc_pull_reg_and_bit
                0x000000000023a770       0x64 drivers/built-in.o
 .text.rk3399_calc_drv_reg_and_bit
                0x000000000023a7d4       0x60 drivers/built-in.o
 .text.rk3328_calc_schmitt_reg_and_bit
                0x000000000023a834       0x44 drivers/built-in.o
 .text.px30_calc_slew_rate_reg_and_bit
                0x000000000023a878       0x5c drivers/built-in.o
 .text.rockchip_pinctrl_get_pins_count
                0x000000000023a8d4       0x38 drivers/built-in.o
 .text.rockchip_pinctrl_get_gpio_mux
                0x000000000023a90c      0x250 drivers/built-in.o
 .text.rockchip_set_pull
                0x000000000023ab5c      0x154 drivers/built-in.o
 .text.rockchip_pinctrl_probe
                0x000000000023acb0      0x56c drivers/built-in.o
                0x000000000023af90                rockchip_pinctrl_probe
 .text.rockchip_pinctrl_set_state
                0x000000000023b21c      0xa24 drivers/built-in.o
 .text.rockchip_get_mux_data
                0x000000000023bc40       0x8c drivers/built-in.o
                0x000000000023bc40                rockchip_get_mux_data
 .text.ram_get_info
                0x000000000023bccc       0x20 drivers/built-in.o
                0x000000000023bccc                ram_get_info
 .text.dmc_get_info
                0x000000000023bcec       0x34 drivers/built-in.o
 .text.dmc_probe
                0x000000000023bd20       0x40 drivers/built-in.o
 .text.get_atf_version
                0x000000000023bd60       0x38 drivers/built-in.o
 .text.dmc_fsp_probe
                0x000000000023bd98      0x430 drivers/built-in.o
 .text.gic_irq_enable
                0x000000000023c1c8       0xb4 drivers/built-in.o
 .text.gic_irq_disable
                0x000000000023c27c       0x44 drivers/built-in.o
 .text.gic_irq_eoi
                0x000000000023c2c0       0x14 drivers/built-in.o
 .text.gic_irq_get
                0x000000000023c2d4       0x18 drivers/built-in.o
 .text.gic_irq_suspend
                0x000000000023c2ec      0x1c4 drivers/built-in.o
 .text.gic_irq_resume
                0x000000000023c4b0      0x210 drivers/built-in.o
 .text.gic_irq_init
                0x000000000023c6c0       0xc4 drivers/built-in.o
 .text.gic_irq_set_type
                0x000000000023c784       0xcc drivers/built-in.o
 .text.arch_gic_get_irqchip
                0x000000000023c850        0xc drivers/built-in.o
                0x000000000023c850                arch_gic_get_irqchip
 .text.gpio_bit_op
                0x000000000023c85c       0x28 drivers/built-in.o
 .text.gpio_set_intr_type
                0x000000000023c884       0x94 drivers/built-in.o
 .text.gpio_irq_get_gpio_level
                0x000000000023c918       0x5c drivers/built-in.o
 .text.gpio_irq_revert_type
                0x000000000023c974       0xb0 drivers/built-in.o
 .text.gpio_irq_set_type
                0x000000000023ca24       0xb0 drivers/built-in.o
 .text.gpio_irq_disable
                0x000000000023cad4       0x90 drivers/built-in.o
 .text.gpio_irq_enable
                0x000000000023cb64       0x80 drivers/built-in.o
 .text.gpio_irq_init
                0x000000000023cbe4       0x98 drivers/built-in.o
 .text.generic_gpio_handle_irq
                0x000000000023cc7c      0x130 drivers/built-in.o
 .text.arch_gpio_get_irqchip
                0x000000000023cdac        0xc drivers/built-in.o
                0x000000000023cdac                arch_gpio_get_irqchip
 .text.bad_irq_chip
                0x000000000023cdb8       0x34 drivers/built-in.o
 .text.__do_arch_irq_init
                0x000000000023cdec      0x134 drivers/built-in.o
 .text.do_dump_irqs
                0x000000000023cf20       0xc4 drivers/built-in.o
 .text.bad_irq  0x000000000023cfe4       0x7c drivers/built-in.o
                0x000000000023cfe4                bad_irq
 .text.__generic_gpio_handle_irq
                0x000000000023d060       0x88 drivers/built-in.o
                0x000000000023d060                __generic_gpio_handle_irq
 .text.__do_generic_irq_handler
                0x000000000023d0e8       0x78 drivers/built-in.o
                0x000000000023d0e8                __do_generic_irq_handler
 .text.irq_is_busy
                0x000000000023d160       0x34 drivers/built-in.o
                0x000000000023d160                irq_is_busy
 .text.irq_handler_enable
                0x000000000023d194       0x8c drivers/built-in.o
                0x000000000023d194                irq_handler_enable
 .text.irq_handler_disable
                0x000000000023d220       0x8c drivers/built-in.o
                0x000000000023d220                irq_handler_disable
 .text.irq_set_irq_type
                0x000000000023d2ac       0x74 drivers/built-in.o
                0x000000000023d2ac                irq_set_irq_type
 .text.irq_revert_irq_type
                0x000000000023d320       0x60 drivers/built-in.o
                0x000000000023d320                irq_revert_irq_type
 .text.irq_get_gpio_level
                0x000000000023d380       0x60 drivers/built-in.o
                0x000000000023d380                irq_get_gpio_level
 .text.irq_install_handler
                0x000000000023d3e0       0x5c drivers/built-in.o
                0x000000000023d3e0                irq_install_handler
 .text.irq_free_handler
                0x000000000023d43c       0x58 drivers/built-in.o
                0x000000000023d43c                irq_free_handler
 .text.irq_handler_enable_suspend_only
                0x000000000023d494       0x68 drivers/built-in.o
                0x000000000023d494                irq_handler_enable_suspend_only
 .text.irqs_suspend
                0x000000000023d4fc       0x50 drivers/built-in.o
                0x000000000023d4fc                irqs_suspend
 .text.irqs_resume
                0x000000000023d54c       0x50 drivers/built-in.o
                0x000000000023d54c                irqs_resume
 .text.do_irq   0x000000000023d59c        0x4 drivers/built-in.o
                0x000000000023d59c                do_irq
 .text.interrupt_init
                0x000000000023d5a0        0x4 drivers/built-in.o
                0x000000000023d5a0                interrupt_init
 .text.enable_interrupts
                0x000000000023d5a4        0x8 drivers/built-in.o
                0x000000000023d5a4                enable_interrupts
 .text.disable_interrupts
                0x000000000023d5ac        0xc drivers/built-in.o
                0x000000000023d5ac                disable_interrupts
 .text.gpio_is_valid
                0x000000000023d5b8       0x4c drivers/built-in.o
 .text.__hard_gpio_to_irq
                0x000000000023d604       0x84 drivers/built-in.o
 .text.phandle_gpio_to_irq
                0x000000000023d688      0x148 drivers/built-in.o
                0x000000000023d688                phandle_gpio_to_irq
 .text.irq_to_gpio
                0x000000000023d7d0       0x54 drivers/built-in.o
                0x000000000023d7d0                irq_to_gpio
 .text.gpio_id_to_bank
                0x000000000023d824       0x40 drivers/built-in.o
                0x000000000023d824                gpio_id_to_bank
 .text.gpio_to_bank
                0x000000000023d864       0x38 drivers/built-in.o
                0x000000000023d864                gpio_to_bank
 .text.find_virq_desc
                0x000000000023d89c       0x48 drivers/built-in.o
 .text.reg_base_get
                0x000000000023d8e4       0x2c drivers/built-in.o
 .text.virq_init
                0x000000000023d910       0x18 drivers/built-in.o
 .text.virq_chip_generic_handler
                0x000000000023d928      0x180 drivers/built-in.o
                0x000000000023d928                virq_chip_generic_handler
 .text.__virq_enable
                0x000000000023daa8      0x124 drivers/built-in.o
 .text.virq_to_irq
                0x000000000023dbcc       0x64 drivers/built-in.o
                0x000000000023dbcc                virq_to_irq
 .text.bad_virq
                0x000000000023dc30       0x1c drivers/built-in.o
                0x000000000023dc30                bad_virq
 .text.virq_disable
                0x000000000023dc4c       0x78 drivers/built-in.o
 .text.virq_enable
                0x000000000023dcc4       0x6c drivers/built-in.o
 .text.virqs_show
                0x000000000023dd30       0xac drivers/built-in.o
                0x000000000023dd30                virqs_show
 .text.virq_install_handler
                0x000000000023dddc       0x60 drivers/built-in.o
                0x000000000023dddc                virq_install_handler
 .text.virq_free_handler
                0x000000000023de3c       0x34 drivers/built-in.o
                0x000000000023de3c                virq_free_handler
 .text.virq_add_chip
                0x000000000023de70      0x250 drivers/built-in.o
                0x000000000023de70                virq_add_chip
 .text.arch_virq_get_irqchip
                0x000000000023e0c0        0xc drivers/built-in.o
                0x000000000023e0c0                arch_virq_get_irqchip
 .text.adc_pre_probe
                0x000000000023e0cc       0x5c drivers/built-in.o
 .text.check_channel
                0x000000000023e128       0x7c drivers/built-in.o
 .text.adc_data_mask
                0x000000000023e1a4       0x38 drivers/built-in.o
                0x000000000023e1a4                adc_data_mask
 .text.adc_start_channel
                0x000000000023e1dc       0x78 drivers/built-in.o
                0x000000000023e1dc                adc_start_channel
 .text.adc_channel_data
                0x000000000023e254       0xb8 drivers/built-in.o
                0x000000000023e254                adc_channel_data
 .text.adc_channel_single_shot
                0x000000000023e30c       0x54 drivers/built-in.o
                0x000000000023e30c                adc_channel_single_shot
 .text.rockchip_saradc_stop
                0x000000000023e360       0x2c drivers/built-in.o
                0x000000000023e360                rockchip_saradc_stop
 .text.rockchip_saradc_channel_data
                0x000000000023e38c       0xa0 drivers/built-in.o
                0x000000000023e38c                rockchip_saradc_channel_data
 .text.rockchip_saradc_start_channel
                0x000000000023e42c       0x78 drivers/built-in.o
                0x000000000023e42c                rockchip_saradc_start_channel
 .text.rockchip_saradc_probe
                0x000000000023e4a4       0x68 drivers/built-in.o
                0x000000000023e4a4                rockchip_saradc_probe
 .text.rockchip_saradc_ofdata_to_platdata
                0x000000000023e50c       0xa4 drivers/built-in.o
                0x000000000023e50c                rockchip_saradc_ofdata_to_platdata
 .text.get_desc
                0x000000000023e5b0       0xc4 drivers/built-in.o
 .text.if_typename_to_iftype
                0x000000000023e674       0x5c drivers/built-in.o
                0x000000000023e674                if_typename_to_iftype
 .text.blk_get_if_type_name
                0x000000000023e6d0       0x10 drivers/built-in.o
                0x000000000023e6d0                blk_get_if_type_name
 .text.blk_get_devnum_by_typename
                0x000000000023e6e0       0xb4 drivers/built-in.o
                0x000000000023e6e0                blk_get_devnum_by_typename
 .text.blk_list_part
                0x000000000023e794       0x7c drivers/built-in.o
                0x000000000023e794                blk_list_part
 .text.blk_print_part_devnum
                0x000000000023e810       0x48 drivers/built-in.o
                0x000000000023e810                blk_print_part_devnum
 .text.blk_list_devices
                0x000000000023e858       0x78 drivers/built-in.o
                0x000000000023e858                blk_list_devices
 .text.blk_print_device_num
                0x000000000023e8d0       0x48 drivers/built-in.o
                0x000000000023e8d0                blk_print_device_num
 .text.blk_show_device
                0x000000000023e918       0x7c drivers/built-in.o
                0x000000000023e918                blk_show_device
 .text.blk_select_hwpart
                0x000000000023e994       0x2c drivers/built-in.o
                0x000000000023e994                blk_select_hwpart
 .text.blk_dselect_hwpart
                0x000000000023e9c0        0x8 drivers/built-in.o
                0x000000000023e9c0                blk_dselect_hwpart
 .text.blk_first_device
                0x000000000023e9c8       0x70 drivers/built-in.o
                0x000000000023e9c8                blk_first_device
 .text.blk_next_device
                0x000000000023ea38       0x64 drivers/built-in.o
                0x000000000023ea38                blk_next_device
 .text.blk_find_device
                0x000000000023ea9c       0xa0 drivers/built-in.o
                0x000000000023ea9c                blk_find_device
 .text.blk_get_device
                0x000000000023eb3c       0x34 drivers/built-in.o
                0x000000000023eb3c                blk_get_device
 .text.blk_get_devnum_by_type
                0x000000000023eb70       0x2c drivers/built-in.o
                0x000000000023eb70                blk_get_devnum_by_type
 .text.blk_select_hwpart_devnum
                0x000000000023eb9c       0x34 drivers/built-in.o
                0x000000000023eb9c                blk_select_hwpart_devnum
 .text.blk_dread
                0x000000000023ebd0       0x24 drivers/built-in.o
                0x000000000023ebd0                blk_dread
 .text.blk_read_devnum
                0x000000000023ebf4       0x54 drivers/built-in.o
                0x000000000023ebf4                blk_read_devnum
 .text.blk_dwrite
                0x000000000023ec48       0x24 drivers/built-in.o
                0x000000000023ec48                blk_dwrite
 .text.blk_write_devnum
                0x000000000023ec6c       0x54 drivers/built-in.o
                0x000000000023ec6c                blk_write_devnum
 .text.blk_derase
                0x000000000023ecc0       0x24 drivers/built-in.o
                0x000000000023ecc0                blk_derase
 .text.blk_erase_devnum
                0x000000000023ece4       0x44 drivers/built-in.o
                0x000000000023ece4                blk_erase_devnum
 .text.blk_prepare_device
                0x000000000023ed28       0x1c drivers/built-in.o
                0x000000000023ed28                blk_prepare_device
 .text.blk_find_max_devnum
                0x000000000023ed44       0x90 drivers/built-in.o
                0x000000000023ed44                blk_find_max_devnum
 .text.blk_create_device
                0x000000000023edd4      0x180 drivers/built-in.o
                0x000000000023edd4                blk_create_device
 .text.blk_create_devicef
                0x000000000023ef54       0xc4 drivers/built-in.o
                0x000000000023ef54                blk_create_devicef
 .text.psci_probe
                0x000000000023f018       0xa4 drivers/built-in.o
 .text.__invoke_psci_fn_smc
                0x000000000023f0bc       0x38 drivers/built-in.o
 .text.__invoke_psci_fn_hvc
                0x000000000023f0f4       0x38 drivers/built-in.o
 .text.psci_bind
                0x000000000023f12c       0x68 drivers/built-in.o
 .text.mmc_send_op_cond_iter
                0x000000000023f194       0x74 drivers/built-in.o
 .text.mmc_read_blocks
                0x000000000023f208       0xc4 drivers/built-in.o
 .text.mmc_go_idle
                0x000000000023f2cc       0x50 drivers/built-in.o
 .text.mmc_set_capacity
                0x000000000023f31c       0x84 drivers/built-in.o
 .text.mmc_send_ext_csd
                0x000000000023f3a0       0x68 drivers/built-in.o
 .text.__mmc_switch.constprop.0
                0x000000000023f408      0x130 drivers/built-in.o
 .text.mmc_switch_to_hs400
                0x000000000023f538       0x30 drivers/built-in.o
 .text.mmc_send_status
                0x000000000023f568       0xe0 drivers/built-in.o
                0x000000000023f568                mmc_send_status
 .text.mmc_set_blocklen
                0x000000000023f648       0x4c drivers/built-in.o
                0x000000000023f648                mmc_set_blocklen
 .text.mmc_set_clock
                0x000000000023f694       0x24 drivers/built-in.o
                0x000000000023f694                mmc_set_clock
 .text.mmc_set_bus_speed
                0x000000000023f6b8       0x5c drivers/built-in.o
 .text.mmc_switch
                0x000000000023f714       0x10 drivers/built-in.o
                0x000000000023f714                mmc_switch
 .text.mmc_select_hs
                0x000000000023f724       0x48 drivers/built-in.o
 .text.mmc_select_bus_width
                0x000000000023f76c      0x164 drivers/built-in.o
 .text.mmc_startup
                0x000000000023f8d0      0xcf0 drivers/built-in.o
 .text.mmc_send_tuning
                0x00000000002405c0       0xe8 drivers/built-in.o
                0x00000000002405c0                mmc_send_tuning
 .text.mmc_switch_part
                0x00000000002406a8       0x74 drivers/built-in.o
                0x00000000002406a8                mmc_switch_part
 .text.mmc_hwpart_config
                0x000000000024071c      0x3e0 drivers/built-in.o
                0x000000000024071c                mmc_hwpart_config
 .text.mmc_start_init
                0x0000000000240afc      0x254 drivers/built-in.o
                0x0000000000240afc                mmc_start_init
 .text.mmc_init
                0x0000000000240d50      0x13c drivers/built-in.o
                0x0000000000240d50                mmc_init
 .text.mmc_bread
                0x0000000000240e8c      0x154 drivers/built-in.o
                0x0000000000240e8c                mmc_bread
 .text.mmc_set_dsr
                0x0000000000240fe0       0x10 drivers/built-in.o
                0x0000000000240fe0                mmc_set_dsr
 .text.mmc_initialize
                0x0000000000240ff0       0xd8 drivers/built-in.o
                0x0000000000240ff0                mmc_initialize
 .text.mmc_blk_probe
                0x00000000002410c8       0x1c drivers/built-in.o
 .text.mmc_card_busy
                0x00000000002410e4       0x24 drivers/built-in.o
                0x00000000002410e4                mmc_card_busy
 .text.mmc_can_card_busy
                0x0000000000241108       0x1c drivers/built-in.o
                0x0000000000241108                mmc_can_card_busy
 .text.dm_mmc_set_ios
                0x0000000000241124       0x20 drivers/built-in.o
                0x0000000000241124                dm_mmc_set_ios
 .text.mmc_set_ios
                0x0000000000241144        0x8 drivers/built-in.o
                0x0000000000241144                mmc_set_ios
 .text.dm_mmc_get_wp
                0x000000000024114c       0x20 drivers/built-in.o
                0x000000000024114c                dm_mmc_get_wp
 .text.mmc_getwp
                0x000000000024116c        0x8 drivers/built-in.o
                0x000000000024116c                mmc_getwp
 .text.dm_mmc_get_cd
                0x0000000000241174       0x20 drivers/built-in.o
                0x0000000000241174                dm_mmc_get_cd
 .text.mmc_getcd
                0x0000000000241194        0x8 drivers/built-in.o
                0x0000000000241194                mmc_getcd
 .text.mmc_set_enhanced_strobe
                0x000000000024119c       0x24 drivers/built-in.o
                0x000000000024119c                mmc_set_enhanced_strobe
 .text.mmc_get_mmc_dev
                0x00000000002411c0       0x28 drivers/built-in.o
                0x00000000002411c0                mmc_get_mmc_dev
 .text.dm_mmc_send_cmd
                0x00000000002411e8       0xe4 drivers/built-in.o
                0x00000000002411e8                dm_mmc_send_cmd
 .text.mmc_send_cmd
                0x00000000002412cc        0x8 drivers/built-in.o
                0x00000000002412cc                mmc_send_cmd
 .text.mmc_select_hwpart
                0x00000000002412d4       0x78 drivers/built-in.o
 .text.find_mmc_device
                0x000000000024134c       0x54 drivers/built-in.o
                0x000000000024134c                find_mmc_device
 .text.get_mmc_num
                0x00000000002413a0       0x20 drivers/built-in.o
                0x00000000002413a0                get_mmc_num
 .text.mmc_get_blk_desc
                0x00000000002413c0       0x28 drivers/built-in.o
                0x00000000002413c0                mmc_get_blk_desc
 .text.mmc_do_preinit
                0x00000000002413e8       0x68 drivers/built-in.o
                0x00000000002413e8                mmc_do_preinit
 .text.print_mmc_devices
                0x0000000000241450       0xfc drivers/built-in.o
                0x0000000000241450                print_mmc_devices
 .text.mmc_bind
                0x000000000024154c       0xb8 drivers/built-in.o
                0x000000000024154c                mmc_bind
 .text.mmc_erase_t
                0x0000000000241604       0xf8 drivers/built-in.o
 .text.mmc_write_blocks
                0x00000000002416fc      0x138 drivers/built-in.o
 .text.mmc_berase
                0x0000000000241834      0x164 drivers/built-in.o
                0x0000000000241834                mmc_berase
 .text.mmc_bwrite
                0x0000000000241998       0xe0 drivers/built-in.o
                0x0000000000241998                mmc_bwrite
 .text.dwmci_wait_reset
                0x0000000000241a78       0x3c drivers/built-in.o
 .text.dwmci_execute_tuning
                0x0000000000241ab4       0x44 drivers/built-in.o
 .text.dwmci_card_busy
                0x0000000000241af8       0x28 drivers/built-in.o
 .text.dwmci_get_cd
                0x0000000000241b20       0x60 drivers/built-in.o
 .text.dwmci_setup_bus.part.0.isra.0
                0x0000000000241b80       0xfc drivers/built-in.o
 .text.dwmci_send_cmd
                0x0000000000241c7c      0x610 drivers/built-in.o
 .text.dwmci_set_ios
                0x000000000024228c       0xa8 drivers/built-in.o
 .text.dwmci_probe
                0x0000000000242334      0x170 drivers/built-in.o
                0x0000000000242334                dwmci_probe
 .text.dwmci_setup_cfg
                0x00000000002424a4       0x98 drivers/built-in.o
                0x00000000002424a4                dwmci_setup_cfg
 .text.dwmci_bind
                0x000000000024253c        0x4 drivers/built-in.o
                0x000000000024253c                dwmci_bind
 .text.rockchip_dwmmc_ofdata_to_platdata
                0x0000000000242540      0x100 drivers/built-in.o
 .text.rockchip_dwmmc_get_mmc_clk
                0x0000000000242640       0x58 drivers/built-in.o
 .text.rockchip_dwmmc_probe
                0x0000000000242698      0x124 drivers/built-in.o
 .text.rockchip_dwmmc_execute_tuning
                0x00000000002427bc      0x104 drivers/built-in.o
 .text.rockchip_dwmmc_bind
                0x00000000002428c0       0x2c drivers/built-in.o
 .text.board_mmc_dm_reinit
                0x00000000002428ec       0x78 drivers/built-in.o
                0x00000000002428ec                board_mmc_dm_reinit
 .text.mmc_rpmb_request
                0x0000000000242964       0xb0 drivers/built-in.o
 .text.rpmb_hmac
                0x0000000000242a14       0xec drivers/built-in.o
 .text.mmc_rpmb_response
                0x0000000000242b00      0x114 drivers/built-in.o
 .text.mmc_rpmb_status
                0x0000000000242c14       0x84 drivers/built-in.o
 .text.mmc_rpmb_get_counter
                0x0000000000242c98       0x94 drivers/built-in.o
                0x0000000000242c98                mmc_rpmb_get_counter
 .text.mmc_rpmb_set_key
                0x0000000000242d2c       0x8c drivers/built-in.o
                0x0000000000242d2c                mmc_rpmb_set_key
 .text.mmc_rpmb_read
                0x0000000000242db8      0x198 drivers/built-in.o
                0x0000000000242db8                mmc_rpmb_read
 .text.mmc_rpmb_write
                0x0000000000242f50      0x208 drivers/built-in.o
                0x0000000000242f50                mmc_rpmb_write
 .text.read_counter
                0x0000000000243158       0x54 drivers/built-in.o
                0x0000000000243158                read_counter
 .text.program_key
                0x00000000002431ac       0x84 drivers/built-in.o
                0x00000000002431ac                program_key
 .text.authenticated_read
                0x0000000000243230       0x60 drivers/built-in.o
                0x0000000000243230                authenticated_read
 .text.authenticated_write
                0x0000000000243290       0x84 drivers/built-in.o
                0x0000000000243290                authenticated_write
 .text.rknand_bread
                0x0000000000243314       0x8c drivers/built-in.o
                0x0000000000243314                rknand_bread
 .text.rknand_bwrite
                0x00000000002433a0       0x8c drivers/built-in.o
                0x00000000002433a0                rknand_bwrite
 .text.rknand_berase
                0x000000000024342c       0x7c drivers/built-in.o
                0x000000000024342c                rknand_berase
 .text.rkftl_nand_vendor_read
                0x00000000002434a8       0x38 drivers/built-in.o
                0x00000000002434a8                rkftl_nand_vendor_read
 .text.rkftl_nand_vendor_write
                0x00000000002434e0       0x38 drivers/built-in.o
                0x00000000002434e0                rkftl_nand_vendor_write
 .text.rknand_blk_probe
                0x0000000000243518       0xac drivers/built-in.o
 .text.rockchip_nand_probe
                0x00000000002435c4       0x84 drivers/built-in.o
 .text.rknand_blk_bind
                0x0000000000243648       0x38 drivers/built-in.o
 .text.rknand_scan_namespace
                0x0000000000243680       0x6c drivers/built-in.o
                0x0000000000243680                rknand_scan_namespace
 .text.flash_mem_cmp8
                0x00000000002436ec       0x38 drivers/built-in.o
 .text.slc_phy_page_address_calc
                0x0000000000243724       0x50 drivers/built-in.o
 .text._list_remove_node
                0x0000000000243774      0x13c drivers/built-in.o
 .text.hynix_set_rr_para
                0x00000000002438b0       0xb0 drivers/built-in.o
 .text._insert_free_list
                0x0000000000243960      0x118 drivers/built-in.o
 .text._insert_data_list
                0x0000000000243a78      0x198 drivers/built-in.o
 .text._list_update_data_list
                0x0000000000243c10      0x170 drivers/built-in.o
 .text.nandc_de_cs.constprop.32
                0x0000000000243d80       0x1c drivers/built-in.o
 .text.flash_read_status
                0x0000000000243d9c       0x34 drivers/built-in.o
                0x0000000000243d9c                flash_read_status
 .text.toshiba_set_rr_para
                0x0000000000243dd0       0xe0 drivers/built-in.o
                0x0000000000243dd0                toshiba_set_rr_para
 .text.hynix_reconfig_rr_para
                0x0000000000243eb0       0x64 drivers/built-in.o
                0x0000000000243eb0                hynix_reconfig_rr_para
 .text.nand_flash_print_info
                0x0000000000243f14      0x420 drivers/built-in.o
                0x0000000000243f14                nand_flash_print_info
 .text.nandc_set_ddr_para
                0x0000000000244334       0x3c drivers/built-in.o
                0x0000000000244334                nandc_set_ddr_para
 .text.nandc_get_ddr_para
                0x0000000000244370       0x2c drivers/built-in.o
                0x0000000000244370                nandc_get_ddr_para
 .text.nandc_set_if_mode
                0x000000000024439c       0x94 drivers/built-in.o
                0x000000000024439c                nandc_set_if_mode
 .text.nandc_cs
                0x0000000000244430       0x20 drivers/built-in.o
                0x0000000000244430                nandc_cs
 .text.flash_wait_device_ready_raw
                0x0000000000244450       0xf0 drivers/built-in.o
                0x0000000000244450                flash_wait_device_ready_raw
 .text.flash_wait_device_ready
                0x0000000000244540       0x94 drivers/built-in.o
                0x0000000000244540                flash_wait_device_ready
 .text.nandc_wait_flash_ready_no_delay
                0x00000000002445d4       0x54 drivers/built-in.o
                0x00000000002445d4                nandc_wait_flash_ready_no_delay
 .text.zftl_flash_enter_slc_mode
                0x0000000000244628      0x110 drivers/built-in.o
                0x0000000000244628                zftl_flash_enter_slc_mode
 .text.zftl_flash_exit_slc_mode
                0x0000000000244738      0x15c drivers/built-in.o
                0x0000000000244738                zftl_flash_exit_slc_mode
 .text.flash_start_page_read
                0x0000000000244894      0x1a4 drivers/built-in.o
                0x0000000000244894                flash_start_page_read
 .text.nandc_wait_flash_ready
                0x0000000000244a38       0x5c drivers/built-in.o
                0x0000000000244a38                nandc_wait_flash_ready
 .text.sandisk_set_rr_para
                0x0000000000244a94       0x98 drivers/built-in.o
                0x0000000000244a94                sandisk_set_rr_para
 .text.toshiba_3d_set_tlc_rr_para
                0x0000000000244b2c       0xa0 drivers/built-in.o
                0x0000000000244b2c                toshiba_3d_set_tlc_rr_para
 .text.toshiba_3d_set_slc_rr_para
                0x0000000000244bcc       0x38 drivers/built-in.o
                0x0000000000244bcc                toshiba_3d_set_slc_rr_para
 .text.toshiba_tlc_set_rr_para
                0x0000000000244c04       0xc8 drivers/built-in.o
                0x0000000000244c04                toshiba_tlc_set_rr_para
 .text.ymtc_3d_set_tlc_rr_para
                0x0000000000244ccc       0xb8 drivers/built-in.o
                0x0000000000244ccc                ymtc_3d_set_tlc_rr_para
 .text.ymtc_3d_set_slc_rr_para
                0x0000000000244d84       0x34 drivers/built-in.o
                0x0000000000244d84                ymtc_3d_set_slc_rr_para
 .text.flash_erase_duplane_block
                0x0000000000244db8      0x1c0 drivers/built-in.o
                0x0000000000244db8                flash_erase_duplane_block
 .text.flash_erase_block_en
                0x0000000000244f78      0x184 drivers/built-in.o
                0x0000000000244f78                flash_erase_block_en
 .text.flash_erase_block
                0x00000000002450fc        0xc drivers/built-in.o
                0x00000000002450fc                flash_erase_block
 .text.flash_start_plane_read
                0x0000000000245108      0x26c drivers/built-in.o
                0x0000000000245108                flash_start_plane_read
 .text.flash_set_interface_mode
                0x0000000000245374      0x198 drivers/built-in.o
                0x0000000000245374                flash_set_interface_mode
 .text.mt_auto_read_calibration_config
                0x000000000024550c       0x5c drivers/built-in.o
 .text.flash_reset
                0x0000000000245568       0x20 drivers/built-in.o
                0x0000000000245568                flash_reset
 .text.flash_read_id
                0x0000000000245588       0xe4 drivers/built-in.o
                0x0000000000245588                flash_read_id
 .text.nandc_rdy_status
                0x000000000024566c       0x24 drivers/built-in.o
                0x000000000024566c                nandc_rdy_status
 .text.nandc_bch_sel
                0x0000000000245690      0x124 drivers/built-in.o
                0x0000000000245690                nandc_bch_sel
 .text.nandc_xfer_start
                0x00000000002457b4      0x3c4 drivers/built-in.o
                0x00000000002457b4                nandc_xfer_start
 .text.nandc_set_seed
                0x0000000000245b78       0x4c drivers/built-in.o
                0x0000000000245b78                nandc_set_seed
 .text.buf_add_tail
                0x0000000000245bc4       0xc0 drivers/built-in.o
                0x0000000000245bc4                buf_add_tail
 .text.queue_read_cmd
                0x0000000000245c84       0x48 drivers/built-in.o
 .text.zbuf_free
                0x0000000000245ccc       0x70 drivers/built-in.o
                0x0000000000245ccc                zbuf_free
 .text.buf_alloc
                0x0000000000245d3c       0xc8 drivers/built-in.o
                0x0000000000245d3c                buf_alloc
 .text.buf_remove_buf
                0x0000000000245e04       0x64 drivers/built-in.o
                0x0000000000245e04                buf_remove_buf
 .text.ftl_gc_write_buf
                0x0000000000245e68       0x40 drivers/built-in.o
                0x0000000000245e68                ftl_gc_write_buf
 .text.zftl_get_density
                0x0000000000245ea8       0x20 drivers/built-in.o
                0x0000000000245ea8                zftl_get_density
 .text.gc_add_sblk
                0x0000000000245ec8      0x298 drivers/built-in.o
                0x0000000000245ec8                gc_add_sblk
 .text.gc_mark_bad_ppa
                0x0000000000246160       0xe8 drivers/built-in.o
                0x0000000000246160                gc_mark_bad_ppa
 .text.gc_get_src_ppa_from_index
                0x0000000000246248       0x14 drivers/built-in.o
                0x0000000000246248                gc_get_src_ppa_from_index
 .text.gc_write_completed
                0x000000000024625c      0x248 drivers/built-in.o
                0x000000000024625c                gc_write_completed
 .text.gc_get_src_blk
                0x00000000002464a4       0x9c drivers/built-in.o
                0x00000000002464a4                gc_get_src_blk
 .text.gc_free_temp_buf
                0x0000000000246540       0xfc drivers/built-in.o
                0x0000000000246540                gc_free_temp_buf
 .text.get_ink_scaned_blk
                0x000000000024663c       0x2c drivers/built-in.o
                0x000000000024663c                get_ink_scaned_blk
 .text._list_pop_index_node
                0x0000000000246668       0x8c drivers/built-in.o
                0x0000000000246668                _list_pop_index_node
 .text._list_get_gc_head_node
                0x00000000002466f4       0x64 drivers/built-in.o
                0x00000000002466f4                _list_get_gc_head_node
 .text.gc_search_src_blk
                0x0000000000246758      0x924 drivers/built-in.o
                0x0000000000246758                gc_search_src_blk
 .text.zftl_insert_free_list
                0x000000000024707c       0x60 drivers/built-in.o
                0x000000000024707c                zftl_insert_free_list
 .text.zftl_insert_data_list
                0x00000000002470dc       0x70 drivers/built-in.o
                0x00000000002470dc                zftl_insert_data_list
 .text.zftl_gc_get_free_sblk
                0x000000000024714c      0x16c drivers/built-in.o
                0x000000000024714c                zftl_gc_get_free_sblk
 .text.zftl_get_free_sblk
                0x00000000002472b8      0x180 drivers/built-in.o
                0x00000000002472b8                zftl_get_free_sblk
 .text.zftl_remove_data_node
                0x0000000000247438       0x70 drivers/built-in.o
                0x0000000000247438                zftl_remove_data_node
 .text.zftl_remove_free_node
                0x00000000002474a8       0x60 drivers/built-in.o
                0x00000000002474a8                zftl_remove_free_node
 .text.zftl_list_update_data_list
                0x0000000000247508       0x70 drivers/built-in.o
                0x0000000000247508                zftl_list_update_data_list
 .text.print_list_info
                0x0000000000247578      0x114 drivers/built-in.o
                0x0000000000247578                print_list_info
 .text.dump_all_list_info
                0x000000000024768c       0x84 drivers/built-in.o
                0x000000000024768c                dump_all_list_info
 .text.ftl_tmp_into_update
                0x0000000000247710       0x7c drivers/built-in.o
                0x0000000000247710                ftl_tmp_into_update
 .text.ftl_get_blk_list_in_sblk
                0x000000000024778c       0xc8 drivers/built-in.o
                0x000000000024778c                ftl_get_blk_list_in_sblk
 .text.ftl_erase_phy_blk
                0x0000000000247854       0xa0 drivers/built-in.o
                0x0000000000247854                ftl_erase_phy_blk
 .text.ftl_erase_sblk
                0x00000000002478f4      0x218 drivers/built-in.o
                0x00000000002478f4                ftl_erase_sblk
 .text.ftl_alloc_sys_blk
                0x0000000000247b0c       0xac drivers/built-in.o
                0x0000000000247b0c                ftl_alloc_sys_blk
 .text.ftl_free_sys_blk
                0x0000000000247bb8       0xb0 drivers/built-in.o
                0x0000000000247bb8                ftl_free_sys_blk
 .text.ftl_info_data_recovery
                0x0000000000247c68      0x120 drivers/built-in.o
                0x0000000000247c68                ftl_info_data_recovery
 .text.ftl_get_ppa_from_index
                0x0000000000247d88       0x98 drivers/built-in.o
                0x0000000000247d88                ftl_get_ppa_from_index
 .text.lpa_hash_get_ppa
                0x0000000000247e20       0x54 drivers/built-in.o
                0x0000000000247e20                lpa_hash_get_ppa
 .text.ftl_get_new_free_page
                0x0000000000247e74      0x134 drivers/built-in.o
                0x0000000000247e74                ftl_get_new_free_page
 .text.ftl_ext_alloc_new_blk
                0x0000000000247fa8       0x78 drivers/built-in.o
                0x0000000000247fa8                ftl_ext_alloc_new_blk
 .text.ftl_total_vpn_update
                0x0000000000248020       0xb8 drivers/built-in.o
                0x0000000000248020                ftl_total_vpn_update
 .text.ftl_vpn_update
                0x00000000002480d8       0x4c drivers/built-in.o
                0x00000000002480d8                ftl_vpn_update
 .text.ftl_vpn_decrement
                0x0000000000248124       0xdc drivers/built-in.o
                0x0000000000248124                ftl_vpn_decrement
 .text.lpa_hash_update_ppa
                0x0000000000248200      0x108 drivers/built-in.o
                0x0000000000248200                lpa_hash_update_ppa
 .text.ftl_mask_bad_block
                0x0000000000248308       0xe0 drivers/built-in.o
                0x0000000000248308                ftl_mask_bad_block
 .text.gc_free_bad_sblk
                0x00000000002483e8      0x184 drivers/built-in.o
                0x00000000002483e8                gc_free_bad_sblk
 .text.ftl_free_sblk
                0x000000000024856c      0x338 drivers/built-in.o
                0x000000000024856c                ftl_free_sblk
 .text.gc_free_src_blk
                0x00000000002488a4      0x1d4 drivers/built-in.o
                0x00000000002488a4                gc_free_src_blk
 .text.print_ftl_debug_info
                0x0000000000248a78      0x178 drivers/built-in.o
                0x0000000000248a78                print_ftl_debug_info
 .text.ftl_write_buf
                0x0000000000248bf0       0xe8 drivers/built-in.o
                0x0000000000248bf0                ftl_write_buf
 .text.ftl_write_completed
                0x0000000000248cd8      0x1c4 drivers/built-in.o
                0x0000000000248cd8                ftl_write_completed
 .text.zftl_add_read_buf
                0x0000000000248e9c       0x90 drivers/built-in.o
                0x0000000000248e9c                zftl_add_read_buf
 .text.sblk_init
                0x0000000000248f2c       0x2c drivers/built-in.o
                0x0000000000248f2c                sblk_init
 .text.queue_lun_state
                0x0000000000248f58      0x110 drivers/built-in.o
                0x0000000000248f58                queue_lun_state
 .text.queue_remove_completed_req
                0x0000000000249068      0x124 drivers/built-in.o
                0x0000000000249068                queue_remove_completed_req
 .text.pm_select_ram_region
                0x000000000024918c       0xf4 drivers/built-in.o
                0x000000000024918c                pm_select_ram_region
 .text.idb_init
                0x0000000000249280       0x28 drivers/built-in.o
                0x0000000000249280                idb_init
 .text.ftl_memset
                0x00000000002492a8        0x8 drivers/built-in.o
                0x00000000002492a8                ftl_memset
 .text.flash_lsb_page_tbl_build
                0x00000000002492b0      0x318 drivers/built-in.o
                0x00000000002492b0                flash_lsb_page_tbl_build
 .text.flash_die_info_init
                0x00000000002495c8      0x1c8 drivers/built-in.o
                0x00000000002495c8                flash_die_info_init
 .text.lpa_rebuild_hash
                0x0000000000249790       0xdc drivers/built-in.o
                0x0000000000249790                lpa_rebuild_hash
 .text.gc_static_wearleveling
                0x000000000024986c      0x9b4 drivers/built-in.o
                0x000000000024986c                gc_static_wearleveling
 .text.zftl_sblk_list_init
                0x000000000024a220      0x3a8 drivers/built-in.o
                0x000000000024a220                zftl_sblk_list_init
 .text.pm_free_sblk
                0x000000000024a5c8      0x314 drivers/built-in.o
                0x000000000024a5c8                pm_free_sblk
 .text.ftl_memcpy
                0x000000000024a8dc        0x8 drivers/built-in.o
                0x000000000024a8dc                ftl_memcpy
 .text.ftl_malloc
                0x000000000024a8e4        0xc drivers/built-in.o
                0x000000000024a8e4                ftl_malloc
 .text.nandc_init
                0x000000000024a8f0      0x1f0 drivers/built-in.o
                0x000000000024a8f0                nandc_init
 .text.zbuf_init
                0x000000000024aae0       0x98 drivers/built-in.o
                0x000000000024aae0                zbuf_init
 .text.gc_init  0x000000000024ab78      0x168 drivers/built-in.o
                0x000000000024ab78                gc_init
 .text.js_hash  0x000000000024ace0       0x38 drivers/built-in.o
                0x000000000024ace0                js_hash
 .text.ftl_debug_info_fill
                0x000000000024ad18       0x60 drivers/built-in.o
                0x000000000024ad18                ftl_debug_info_fill
 .text.ftl_get_density
                0x000000000024ad78        0x8 drivers/built-in.o
                0x000000000024ad78                ftl_get_density
 .text.rknand_print_hex
                0x000000000024ad80       0xf0 drivers/built-in.o
                0x000000000024ad80                rknand_print_hex
 .text.nandc_xfer_done
                0x000000000024ae70      0x25c drivers/built-in.o
                0x000000000024ae70                nandc_xfer_done
 .text.nandc_xfer
                0x000000000024b0cc      0x304 drivers/built-in.o
                0x000000000024b0cc                nandc_xfer
 .text.flash_read_page
                0x000000000024b3d0      0x1c8 drivers/built-in.o
                0x000000000024b3d0                flash_read_page
 .text.micron_read_retrial
                0x000000000024b598      0x230 drivers/built-in.o
                0x000000000024b598                micron_read_retrial
 .text.toshiba_3d_read_retrial
                0x000000000024b7c8      0x34c drivers/built-in.o
                0x000000000024b7c8                toshiba_3d_read_retrial
 .text.toshiba_read_retrial
                0x000000000024bb14      0x26c drivers/built-in.o
                0x000000000024bb14                toshiba_read_retrial
 .text.ymtc_3d_read_retrial
                0x000000000024bd80      0x1d0 drivers/built-in.o
                0x000000000024bd80                ymtc_3d_read_retrial
 .text.samsung_read_retrial
                0x000000000024bf50      0x2cc drivers/built-in.o
                0x000000000024bf50                samsung_read_retrial
 .text.hynix_read_retrial
                0x000000000024c21c      0x178 drivers/built-in.o
                0x000000000024c21c                hynix_read_retrial
 .text.flash_ddr_tuning_read
                0x000000000024c394      0x288 drivers/built-in.o
                0x000000000024c394                flash_ddr_tuning_read
 .text.flash_read_page_en
                0x000000000024c61c      0x1e4 drivers/built-in.o
                0x000000000024c61c                flash_read_page_en
 .text.flash_get_last_written_page
                0x000000000024c800       0xf4 drivers/built-in.o
                0x000000000024c800                flash_get_last_written_page
 .text.flash_ddr_para_scan
                0x000000000024c8f4       0xc8 drivers/built-in.o
                0x000000000024c8f4                flash_ddr_para_scan
 .text.flash_prog_page
                0x000000000024c9bc      0x140 drivers/built-in.o
                0x000000000024c9bc                flash_prog_page
 .text.id_block_prog_msb_ff_data
                0x000000000024cafc       0xd4 drivers/built-in.o
                0x000000000024cafc                id_block_prog_msb_ff_data
 .text.flash_start_one_pass_page_prog
                0x000000000024cbd0       0xb4 drivers/built-in.o
                0x000000000024cbd0                flash_start_one_pass_page_prog
 .text.flash_dual_page_prog
                0x000000000024cc84      0x148 drivers/built-in.o
                0x000000000024cc84                flash_dual_page_prog
 .text.ymtc_flash_tlc_page_prog
                0x000000000024cdcc      0x130 drivers/built-in.o
                0x000000000024cdcc                ymtc_flash_tlc_page_prog
 .text.fw_flash_page_prog.constprop.29
                0x000000000024cefc       0xf0 drivers/built-in.o
 .text.idb_write_data
                0x000000000024cfec      0x968 drivers/built-in.o
                0x000000000024cfec                idb_write_data
 .text.flash_start_tlc_page_prog
                0x000000000024d954      0x130 drivers/built-in.o
                0x000000000024d954                flash_start_tlc_page_prog
 .text.queue_tlc_prog_cmd
                0x000000000024da84      0x1a8 drivers/built-in.o
 .text.sblk_3d_tlc_dump_prog
                0x000000000024dc2c      0x150 drivers/built-in.o
                0x000000000024dc2c                sblk_3d_tlc_dump_prog
 .text.flash_start_3d_mlc_page_prog
                0x000000000024dd7c       0xe8 drivers/built-in.o
                0x000000000024dd7c                flash_start_3d_mlc_page_prog
 .text.sblk_mlc_dump_prog
                0x000000000024de64       0xd8 drivers/built-in.o
                0x000000000024de64                sblk_mlc_dump_prog
 .text.flash_start_page_prog
                0x000000000024df3c      0x1c0 drivers/built-in.o
                0x000000000024df3c                flash_start_page_prog
 .text.queue_prog_cmd
                0x000000000024e0fc       0xd8 drivers/built-in.o
 .text.flash_complete_plane_page_read
                0x000000000024e1d4      0x200 drivers/built-in.o
                0x000000000024e1d4                flash_complete_plane_page_read
 .text.flash_complete_page_read
                0x000000000024e3d4      0x2a8 drivers/built-in.o
                0x000000000024e3d4                flash_complete_page_read
 .text.queue_wait_first_req_completed
                0x000000000024e67c      0x6f8 drivers/built-in.o
 .text.sblk_prog_page
                0x000000000024ed74      0x21c drivers/built-in.o
                0x000000000024ed74                sblk_prog_page
 .text.sblk_wait_write_queue_completed
                0x000000000024ef90       0x38 drivers/built-in.o
                0x000000000024ef90                sblk_wait_write_queue_completed
 .text.ftl_flush
                0x000000000024efc8       0x58 drivers/built-in.o
                0x000000000024efc8                ftl_flush
 .text.ftl_read_page
                0x000000000024f020       0x54 drivers/built-in.o
                0x000000000024f020                ftl_read_page
 .text.ftl_read_ppa_page
                0x000000000024f074       0x78 drivers/built-in.o
                0x000000000024f074                ftl_read_ppa_page
 .text.sblk_read_page
                0x000000000024f0ec      0x204 drivers/built-in.o
                0x000000000024f0ec                sblk_read_page
 .text.gc_check_data_one_wl
                0x000000000024f2f0      0x298 drivers/built-in.o
                0x000000000024f2f0                gc_check_data_one_wl
 .text.sblk_xlc_prog_pages
                0x000000000024f588      0x348 drivers/built-in.o
                0x000000000024f588                sblk_xlc_prog_pages
 .text.sblk_3d_mlc_prog_pages
                0x000000000024f8d0      0x128 drivers/built-in.o
                0x000000000024f8d0                sblk_3d_mlc_prog_pages
 .text.flash_prog_page_en
                0x000000000024f9f8      0x268 drivers/built-in.o
                0x000000000024f9f8                flash_prog_page_en
 .text.ftl_prog_page
                0x000000000024fc60       0x94 drivers/built-in.o
                0x000000000024fc60                ftl_prog_page
 .text.ftl_info_flush
                0x000000000024fcf4      0x2fc drivers/built-in.o
                0x000000000024fcf4                ftl_info_flush
 .text.ftl_info_blk_init
                0x000000000024fff0      0x358 drivers/built-in.o
                0x000000000024fff0                ftl_info_blk_init
 .text.ftl_ext_info_flush
                0x0000000000250348      0x1a8 drivers/built-in.o
                0x0000000000250348                ftl_ext_info_flush
 .text.ftl_ext_info_init
                0x00000000002504f0      0x220 drivers/built-in.o
                0x00000000002504f0                ftl_ext_info_init
 .text.ftl_prog_ppa_page
                0x0000000000250710       0x40 drivers/built-in.o
                0x0000000000250710                ftl_prog_ppa_page
 .text.ftl_write_last_log_page
                0x0000000000250750       0xcc drivers/built-in.o
                0x0000000000250750                ftl_write_last_log_page
 .text.ftl_dump_write_open_sblk
                0x000000000025081c      0x454 drivers/built-in.o
                0x000000000025081c                ftl_dump_write_open_sblk
 .text.gc_ink_check_sblk
                0x0000000000250c70      0x36c drivers/built-in.o
                0x0000000000250c70                gc_ink_check_sblk
 .text.ftl_ink_check_sblk
                0x0000000000250fdc      0x270 drivers/built-in.o
                0x0000000000250fdc                ftl_ink_check_sblk
 .text.ftl_alloc_sblk
                0x000000000025124c      0x15c drivers/built-in.o
                0x000000000025124c                ftl_alloc_sblk
 .text.ftl_open_sblk_init
                0x00000000002513a8      0x128 drivers/built-in.o
                0x00000000002513a8                ftl_open_sblk_init
 .text.pm_alloc_new_blk
                0x00000000002514d0      0x1e0 drivers/built-in.o
                0x00000000002514d0                pm_alloc_new_blk
 .text.pm_write_page
                0x00000000002516b0      0x18c drivers/built-in.o
                0x00000000002516b0                pm_write_page
 .text.flash_info_flush
                0x000000000025183c      0x1c8 drivers/built-in.o
                0x000000000025183c                flash_info_flush
 .text.flash_info_blk_init
                0x0000000000251a04      0x24c drivers/built-in.o
                0x0000000000251a04                flash_info_blk_init
 .text.nand_flash_init
                0x0000000000251c50      0x69c drivers/built-in.o
                0x0000000000251c50                nand_flash_init
 .text.ftl_open_sblk_recovery
                0x00000000002522ec      0x96c drivers/built-in.o
                0x00000000002522ec                ftl_open_sblk_recovery
 .text.dump_ftl_info
                0x0000000000252c58      0x1a8 drivers/built-in.o
                0x0000000000252c58                dump_ftl_info
 .text.pm_ppa_update_check
                0x0000000000252e00       0x94 drivers/built-in.o
                0x0000000000252e00                pm_ppa_update_check
 .text.load_l2p_region
                0x0000000000252e94      0x228 drivers/built-in.o
 .text.pm_gc    0x00000000002530bc      0x1d0 drivers/built-in.o
                0x00000000002530bc                pm_gc
 .text.pm_flush_id
                0x000000000025328c       0x58 drivers/built-in.o
                0x000000000025328c                pm_flush_id
 .text.pm_flush
                0x00000000002532e4       0x50 drivers/built-in.o
                0x00000000002532e4                pm_flush
 .text.flt_sys_flush
                0x0000000000253334       0x20 drivers/built-in.o
                0x0000000000253334                flt_sys_flush
 .text.pm_init  0x0000000000253354      0x26c drivers/built-in.o
                0x0000000000253354                pm_init
 .text.pm_log2phys
                0x00000000002535c0      0x1bc drivers/built-in.o
                0x00000000002535c0                pm_log2phys
 .text.gc_recovery
                0x000000000025377c      0x8e4 drivers/built-in.o
                0x000000000025377c                gc_recovery
 .text.gc_update_l2p_map_new
                0x0000000000254060      0x2ac drivers/built-in.o
                0x0000000000254060                gc_update_l2p_map_new
 .text.gc_scan_src_blk_one_page
                0x000000000025430c      0x22c drivers/built-in.o
                0x000000000025430c                gc_scan_src_blk_one_page
 .text.gc_scan_src_blk
                0x0000000000254538      0x564 drivers/built-in.o
                0x0000000000254538                gc_scan_src_blk
 .text.gc_scan_static_data
                0x0000000000254a9c      0x1d4 drivers/built-in.o
                0x0000000000254a9c                gc_scan_static_data
 .text.ftl_sblk_dump
                0x0000000000254c70      0x440 drivers/built-in.o
                0x0000000000254c70                ftl_sblk_dump
 .text.zftl_read
                0x00000000002550b0      0x5b4 drivers/built-in.o
                0x00000000002550b0                zftl_read
 .text.ftl_read
                0x0000000000255664        0x8 drivers/built-in.o
                0x0000000000255664                ftl_read
 .text.ftl_vendor_read
                0x000000000025566c       0x14 drivers/built-in.o
                0x000000000025566c                ftl_vendor_read
 .text.ftl_update_l2p_map
                0x0000000000255680      0x1d4 drivers/built-in.o
                0x0000000000255680                ftl_update_l2p_map
 .text.ftl_alloc_new_data_sblk
                0x0000000000255854       0xc0 drivers/built-in.o
                0x0000000000255854                ftl_alloc_new_data_sblk
 .text.ftl_write_commit
                0x0000000000255914      0x5d4 drivers/built-in.o
                0x0000000000255914                ftl_write_commit
 .text.gc_do_copy_back
                0x0000000000255ee8      0xc94 drivers/built-in.o
                0x0000000000255ee8                gc_do_copy_back
 .text.zftl_do_gc
                0x0000000000256b7c     0x1260 drivers/built-in.o
                0x0000000000256b7c                zftl_do_gc
 .text.zftl_init
                0x0000000000257ddc      0x658 drivers/built-in.o
                0x0000000000257ddc                zftl_init
 .text.rk_ftl_init
                0x0000000000258434       0x40 drivers/built-in.o
                0x0000000000258434                rk_ftl_init
 .text.zftl_write
                0x0000000000258474      0x260 drivers/built-in.o
                0x0000000000258474                zftl_write
 .text.ftl_write
                0x00000000002586d4       0x54 drivers/built-in.o
                0x00000000002586d4                ftl_write
 .text.ftl_vendor_write
                0x0000000000258728       0x14 drivers/built-in.o
                0x0000000000258728                ftl_vendor_write
 .text.zftl_discard
                0x000000000025873c      0x360 drivers/built-in.o
                0x000000000025873c                zftl_discard
 .text.ftl_discard
                0x0000000000258a9c        0xc drivers/built-in.o
                0x0000000000258a9c                ftl_discard
 .text.rk_i2s_hw_params
                0x0000000000258aa8      0x15c drivers/built-in.o
 .text.rk_i2s_set_sysclk
                0x0000000000258c04       0x30 drivers/built-in.o
 .text.rockchip_i2s_probe
                0x0000000000258c34       0x60 drivers/built-in.o
 .text.rk_i2s_transfer_tx_data
                0x0000000000258c94       0x98 drivers/built-in.o
 .text.snd_soc_write.isra.0
                0x0000000000258d2c        0x4 drivers/built-in.o
 .text.rk817_codec_probe
                0x0000000000258d30       0xa4 drivers/built-in.o
 .text.rk817_hw_params
                0x0000000000258dd4       0x5c drivers/built-in.o
 .text.rk817_codec_power_up.constprop.0.isra.0
                0x0000000000258e30       0x84 drivers/built-in.o
 .text.rk817_startup
                0x0000000000258eb4      0x2d4 drivers/built-in.o
 .text.sysreset_request
                0x0000000000259188       0x20 drivers/built-in.o
                0x0000000000259188                sysreset_request
 .text.sysreset_walk
                0x00000000002591a8       0x6c drivers/built-in.o
                0x00000000002591a8                sysreset_walk
 .text.sysreset_walk_halt
                0x0000000000259214       0x38 drivers/built-in.o
                0x0000000000259214                sysreset_walk_halt
 .text.reboot   0x000000000025924c       0x60 drivers/built-in.o
                0x000000000025924c                reboot
 .text.do_reset
                0x00000000002592ac       0x20 drivers/built-in.o
                0x00000000002592ac                do_reset
 .text.syscon_reboot_request_by_mode
                0x00000000002592cc       0xe4 drivers/built-in.o
 .text.psci_sysreset_request
                0x00000000002593b0       0x54 drivers/built-in.o
 .text.rockchip_sysreset_request
                0x0000000000259404       0x68 drivers/built-in.o
                0x0000000000259404                rockchip_sysreset_request
 .text.backlight_enable
                0x000000000025946c       0x20 drivers/built-in.o
                0x000000000025946c                backlight_enable
 .text.backlight_disable
                0x000000000025948c       0x20 drivers/built-in.o
                0x000000000025948c                backlight_disable
 .text.simple_panel_enable_backlight
                0x00000000002594ac       0x30 drivers/built-in.o
 .text.simple_panel_ofdata_to_platdata
                0x00000000002594dc       0x90 drivers/built-in.o
 .text.simple_panel_probe
                0x000000000025956c       0x2c drivers/built-in.o
 .text.video_pre_remove
                0x0000000000259598       0x20 drivers/built-in.o
 .text.video_pre_probe
                0x00000000002595b8       0x3c drivers/built-in.o
 .text.video_post_probe
                0x00000000002595f4      0x124 drivers/built-in.o
 .text.video_post_bind
                0x0000000000259718       0x80 drivers/built-in.o
 .text.video_reserve
                0x0000000000259798       0x24 drivers/built-in.o
                0x0000000000259798                video_reserve
 .text.video_sync
                0x00000000002597bc       0x3c drivers/built-in.o
                0x00000000002597bc                video_sync
 .text.vidconsole_pre_probe
                0x00000000002597f8       0x3c drivers/built-in.o
 .text.vidconsole_post_probe
                0x0000000000259834       0x8c drivers/built-in.o
 .text.vidconsole_putc_xy
                0x00000000002598c0       0x24 drivers/built-in.o
                0x00000000002598c0                vidconsole_putc_xy
 .text.vidconsole_move_rows
                0x00000000002598e4       0x20 drivers/built-in.o
                0x00000000002598e4                vidconsole_move_rows
 .text.vidconsole_set_row
                0x0000000000259904       0x20 drivers/built-in.o
                0x0000000000259904                vidconsole_set_row
 .text.vidconsole_newline
                0x0000000000259924       0xb8 drivers/built-in.o
 .text.vidconsole_put_char
                0x00000000002599dc      0x188 drivers/built-in.o
                0x00000000002599dc                vidconsole_put_char
 .text.vidconsole_puts
                0x0000000000259b64       0x3c drivers/built-in.o
 .text.vidconsole_putc
                0x0000000000259ba0       0x28 drivers/built-in.o
 .text.do_video_puts
                0x0000000000259bc8       0x7c drivers/built-in.o
 .text.vidconsole_position_cursor
                0x0000000000259c44       0x70 drivers/built-in.o
                0x0000000000259c44                vidconsole_position_cursor
 .text.do_video_setcursor
                0x0000000000259cb4       0x88 drivers/built-in.o
 .text.pwm_backlight_probe
                0x0000000000259d3c        0x8 drivers/built-in.o
 .text.pwm_backlight_disable
                0x0000000000259d44       0xc4 drivers/built-in.o
 .text.pwm_backlight_enable
                0x0000000000259e08      0x104 drivers/built-in.o
 .text.pwm_backlight_ofdata_to_platdata
                0x0000000000259f0c      0x158 drivers/built-in.o
 .text.console_normal_set_row
                0x000000000025a064       0xbc drivers/built-in.o
 .text.console_normal_putc_xy
                0x000000000025a120      0x15c drivers/built-in.o
 .text.console_normal_probe
                0x000000000025a27c       0x50 drivers/built-in.o
 .text.console_normal_move_rows
                0x000000000025a2cc       0x64 drivers/built-in.o
 .text.drm_mode_create
                0x000000000025a330       0x34 drivers/built-in.o
                0x000000000025a330                drm_mode_create
 .text.drm_mode_destroy
                0x000000000025a364        0xc drivers/built-in.o
                0x000000000025a364                drm_mode_destroy
 .text.drm_mode_match
                0x000000000025a370      0x15c drivers/built-in.o
                0x000000000025a370                drm_mode_match
 .text.drm_mode_equal
                0x000000000025a4cc        0x8 drivers/built-in.o
                0x000000000025a4cc                drm_mode_equal
 .text.drm_display_mode_to_videomode
                0x000000000025a4d4       0xdc drivers/built-in.o
                0x000000000025a4d4                drm_display_mode_to_videomode
 .text.__get_unaligned_le32
                0x000000000025a5b0       0x20 drivers/built-in.o
 .text.rockchip_display_bind
                0x000000000025a5d0       0x20 drivers/built-in.o
                0x000000000025a5d0                rockchip_display_bind
 .text.rockchip_of_graph_get_port_parent
                0x000000000025a5f0       0x44 drivers/built-in.o
 .text.rockchip_of_find_phy
                0x000000000025a634       0x3c drivers/built-in.o
 .text.display_rect_calc_scale
                0x000000000025a670       0x6c drivers/built-in.o
 .text.display_get_edid_mode.isra.0
                0x000000000025a6dc       0xec drivers/built-in.o
 .text.rockchip_display_make_crc32_table
                0x000000000025a7c8       0x74 drivers/built-in.o
                0x000000000025a7c8                rockchip_display_make_crc32_table
 .text.rockchip_display_crc32c_cal
                0x000000000025a83c       0x3c drivers/built-in.o
                0x000000000025a83c                rockchip_display_crc32c_cal
 .text.rockchip_get_baseparameter
                0x000000000025a878      0x10c drivers/built-in.o
                0x000000000025a878                rockchip_get_baseparameter
 .text.rockchip_get_disp_info
                0x000000000025a984      0x144 drivers/built-in.o
                0x000000000025a984                rockchip_get_disp_info
 .text.get_display_buffer
                0x000000000025aac8       0x58 drivers/built-in.o
                0x000000000025aac8                get_display_buffer
 .text.drm_mode_vrefresh
                0x000000000025ab20       0x74 drivers/built-in.o
                0x000000000025ab20                drm_mode_vrefresh
 .text.rockchip_ofnode_get_display_mode
                0x000000000025ab94      0x2bc drivers/built-in.o
                0x000000000025ab94                rockchip_ofnode_get_display_mode
 .text.drm_mode_set_crtcinfo
                0x000000000025ae50      0x16c drivers/built-in.o
                0x000000000025ae50                drm_mode_set_crtcinfo
 .text.display_logo
                0x000000000025afbc      0x798 drivers/built-in.o
 .text.display_send_mcu_cmd
                0x000000000025b754       0x30 drivers/built-in.o
                0x000000000025b754                display_send_mcu_cmd
 .text.display_rect_calc_hscale
                0x000000000025b784       0x54 drivers/built-in.o
                0x000000000025b784                display_rect_calc_hscale
 .text.display_rect_calc_vscale
                0x000000000025b7d8       0x54 drivers/built-in.o
                0x000000000025b7d8                display_rect_calc_vscale
 .text.find_or_alloc_logo_cache
                0x000000000025b82c       0xa8 drivers/built-in.o
                0x000000000025b82c                find_or_alloc_logo_cache
 .text.load_bmp_logo
                0x000000000025b8d4      0x254 drivers/built-in.o
 .text.rockchip_show_bmp
                0x000000000025bb28       0xbc drivers/built-in.o
                0x000000000025bb28                rockchip_show_bmp
 .text.do_rockchip_show_bmp
                0x000000000025bbe4       0x2c drivers/built-in.o
 .text.rockchip_show_logo
                0x000000000025bc10       0x7c drivers/built-in.o
                0x000000000025bc10                rockchip_show_logo
 .text.do_rockchip_logo_show
                0x000000000025bc8c       0x28 drivers/built-in.o
 .text.rockchip_vop_dump
                0x000000000025bcb4       0xb0 drivers/built-in.o
                0x000000000025bcb4                rockchip_vop_dump
 .text.do_rockchip_vop_dump
                0x000000000025bd64       0x1c drivers/built-in.o
 .text.rockchip_of_graph_get_endpoint_by_regs
                0x000000000025bd80      0x13c drivers/built-in.o
                0x000000000025bd80                rockchip_of_graph_get_endpoint_by_regs
 .text.rockchip_of_graph_get_remote_node.constprop.0
                0x000000000025bebc       0x5c drivers/built-in.o
 .text.rockchip_of_find_panel_or_bridge.isra.0
                0x000000000025bf18      0x14c drivers/built-in.o
 .text.rockchip_display_probe
                0x000000000025c064      0xa90 drivers/built-in.o
 .text.rockchip_display_fixup
                0x000000000025caf4      0x6ac drivers/built-in.o
                0x000000000025caf4                rockchip_display_fixup
 .text.rockchip_vop_probe
                0x000000000025d1a0       0x40 drivers/built-in.o
 .text.rockchip_vop_bind
                0x000000000025d1e0       0xcc drivers/built-in.o
 .text.rockchip_phy_init
                0x000000000025d2ac       0x2c drivers/built-in.o
                0x000000000025d2ac                rockchip_phy_init
 .text.rockchip_phy_power_on
                0x000000000025d2d8       0x2c drivers/built-in.o
                0x000000000025d2d8                rockchip_phy_power_on
 .text.rockchip_phy_power_off
                0x000000000025d304       0x2c drivers/built-in.o
                0x000000000025d304                rockchip_phy_power_off
 .text.rockchip_phy_set_pll
                0x000000000025d330       0x2c drivers/built-in.o
                0x000000000025d330                rockchip_phy_set_pll
 .text.rockchip_phy_set_bus_width
                0x000000000025d35c       0x2c drivers/built-in.o
                0x000000000025d35c                rockchip_phy_set_bus_width
 .text.rockchip_phy_set_mode
                0x000000000025d388       0x2c drivers/built-in.o
                0x000000000025d388                rockchip_phy_set_mode
 .text.rockchip_bridge_init
                0x000000000025d3b4       0x14 drivers/built-in.o
                0x000000000025d3b4                rockchip_bridge_init
 .text.rockchip_bridge_pre_enable
                0x000000000025d3c8       0x44 drivers/built-in.o
                0x000000000025d3c8                rockchip_bridge_pre_enable
 .text.rockchip_bridge_post_disable
                0x000000000025d40c       0x54 drivers/built-in.o
                0x000000000025d40c                rockchip_bridge_post_disable
 .text.rockchip_bridge_enable
                0x000000000025d460       0x44 drivers/built-in.o
                0x000000000025d460                rockchip_bridge_enable
 .text.rockchip_bridge_disable
                0x000000000025d4a4       0x54 drivers/built-in.o
                0x000000000025d4a4                rockchip_bridge_disable
 .text.rockchip_bridge_mode_set
                0x000000000025d4f8       0x50 drivers/built-in.o
                0x000000000025d4f8                rockchip_bridge_mode_set
 .text.rockchip_bridge_detect
                0x000000000025d548       0x4c drivers/built-in.o
                0x000000000025d548                rockchip_bridge_detect
 .text.is_yuv_output
                0x000000000025d594       0x9c drivers/built-in.o
 .text.rockchip_vop_preinit
                0x000000000025d630       0x18 drivers/built-in.o
 .text.rockchip_vop_prepare
                0x000000000025d648        0x8 drivers/built-in.o
 .text.rockchip_vop_enable
                0x000000000025d650      0x1d0 drivers/built-in.o
 .text.rockchip_vop_disable
                0x000000000025d820      0x144 drivers/built-in.o
 .text.rockchip_vop_fixup_dts
                0x000000000025d964        0x8 drivers/built-in.o
 .text.rockchip_vop_plane_check
                0x000000000025d96c       0xa8 drivers/built-in.o
 .text.rockchip_vop_mode_valid
                0x000000000025da14       0x74 drivers/built-in.o
 .text.rockchip_vop_send_mcu_cmd
                0x000000000025da88      0x414 drivers/built-in.o
 .text.rockchip_vop_set_plane
                0x000000000025de9c     0x1450 drivers/built-in.o
 .text.rockchip_vop_init
                0x000000000025f2ec     0x392c drivers/built-in.o
 .text.rk3588_vop2_load_lut
                0x0000000000262c18       0x90 drivers/built-in.o
 .text.vop2_bcsh_reg_update
                0x0000000000262ca8      0x1b0 drivers/built-in.o
 .text.vop2_setup_dly_for_vp
                0x0000000000262e58       0xc8 drivers/built-in.o
 .text.vop2_axi_config
                0x0000000000262f20       0xf8 drivers/built-in.o
 .text.rockchip_vop2_prepare
                0x0000000000263018        0x8 drivers/built-in.o
 .text.rockchip_vop2_enable
                0x0000000000263020       0xfc drivers/built-in.o
 .text.rockchip_vop2_disable
                0x000000000026311c       0x7c drivers/built-in.o
 .text.rockchip_vop2_apply_soft_te
                0x0000000000263198      0x140 drivers/built-in.o
 .text.rockchip_vop2_active_regs_dump
                0x00000000002632d8      0x13c drivers/built-in.o
 .text.rockchip_vop2_regs_dump
                0x0000000000263414      0x100 drivers/built-in.o
 .text.rockchip_vop2_check
                0x0000000000263514       0x64 drivers/built-in.o
 .text.vop2_convert_csc_mode
                0x0000000000263578       0xc4 drivers/built-in.o
 .text.vop2_tv_config_update
                0x000000000026363c      0x220 drivers/built-in.o
 .text.vop3_post_acm_config
                0x000000000026385c      0x1e4 drivers/built-in.o
 .text.rockchip_vop2_mode_valid
                0x0000000000263a40       0x84 drivers/built-in.o
 .text.rockchip_vop2_fixup_dts
                0x0000000000263ac4      0x24c drivers/built-in.o
 .text.get_plane_name
                0x0000000000263d10       0xbc drivers/built-in.o
 .text.get_output_if_name
                0x0000000000263dcc      0x128 drivers/built-in.o
 .text.vop3_post_csc_config
                0x0000000000263ef4      0x238 drivers/built-in.o
 .text.vop2_clk_set_rate
                0x000000000026412c       0x2c drivers/built-in.o
 .text.vop2_calc_dclk
                0x0000000000264158       0x28 drivers/built-in.o
 .text.vop3_scale_factor.part.0
                0x0000000000264180       0xec drivers/built-in.o
 .text.vop2_scale_factor.part.0
                0x000000000026426c       0xf0 drivers/built-in.o
 .text.is_extend_pll
                0x000000000026435c      0x108 drivers/built-in.o
 .text.vop3_ignore_plane
                0x0000000000264464       0x8c drivers/built-in.o
 .text.vop2_power_domain_on
                0x00000000002644f0      0x2a4 drivers/built-in.o
 .text.vop2_dsc_enable
                0x0000000000264794      0x7e4 drivers/built-in.o
 .text.vop2_find_win_by_phys_id.isra.0
                0x0000000000264f78       0x3c drivers/built-in.o
 .text.vop2_post_config
                0x0000000000264fb4      0x308 drivers/built-in.o
 .text.rockchip_vop2_plane_check
                0x00000000002652bc       0xdc drivers/built-in.o
 .text.rockchip_vop2_preinit
                0x0000000000265398      0x9d4 drivers/built-in.o
 .text.vop2_setup_scale
                0x0000000000265d6c      0x5d4 drivers/built-in.o
 .text.vop2_set_cluster_win
                0x0000000000266340      0x310 drivers/built-in.o
 .text.vop2_set_smart_win
                0x0000000000266650      0x384 drivers/built-in.o
 .text.rockchip_vop2_set_plane
                0x00000000002669d4      0x2d0 drivers/built-in.o
 .text.rockchip_vop2_init
                0x0000000000266ca4     0x20b0 drivers/built-in.o
 .text.bmpdecoder
                0x0000000000268d54      0x488 drivers/built-in.o
                0x0000000000268d54                bmpdecoder
 .text.rockchip_connector_path_init
                0x00000000002691dc       0x8c drivers/built-in.o
 .text.rockchip_connector_path_detect
                0x0000000000269268       0x88 drivers/built-in.o
 .text.rockchip_connector_path_post_disable.isra.0
                0x00000000002692f0       0x6c drivers/built-in.o
 .text.rockchip_connector_path_disable.isra.0
                0x000000000026935c       0x6c drivers/built-in.o
 .text.rockchip_connector_path_enable.isra.0
                0x00000000002693c8       0x60 drivers/built-in.o
 .text.rockchip_connector_path_pre_enable.isra.0
                0x0000000000269428       0x60 drivers/built-in.o
 .text.rockchip_connector_bind
                0x0000000000269488       0x30 drivers/built-in.o
                0x0000000000269488                rockchip_connector_bind
 .text.get_rockchip_connector_by_device
                0x00000000002694b8       0x40 drivers/built-in.o
                0x00000000002694b8                get_rockchip_connector_by_device
 .text.rockchip_connector_pre_init
                0x00000000002694f8       0x64 drivers/built-in.o
                0x00000000002694f8                rockchip_connector_pre_init
 .text.rockchip_connector_init
                0x000000000026955c       0x48 drivers/built-in.o
                0x000000000026955c                rockchip_connector_init
 .text.rockchip_connector_deinit
                0x00000000002695a4       0x50 drivers/built-in.o
                0x00000000002695a4                rockchip_connector_deinit
 .text.rockchip_connector_detect
                0x00000000002695f4       0x4c drivers/built-in.o
                0x00000000002695f4                rockchip_connector_detect
 .text.rockchip_connector_pre_enable
                0x0000000000269640       0x3c drivers/built-in.o
                0x0000000000269640                rockchip_connector_pre_enable
 .text.rockchip_connector_enable
                0x000000000026967c       0x3c drivers/built-in.o
                0x000000000026967c                rockchip_connector_enable
 .text.rockchip_connector_disable
                0x00000000002696b8       0x3c drivers/built-in.o
                0x00000000002696b8                rockchip_connector_disable
 .text.rockchip_connector_post_disable
                0x00000000002696f4       0x3c drivers/built-in.o
                0x00000000002696f4                rockchip_connector_post_disable
 .text.csc_matrix_multiply
                0x0000000000269730       0xf8 drivers/built-in.o
 .text.csc_matrix_ventor_multiply
                0x0000000000269828       0x60 drivers/built-in.o
 .text.csc_matrix_element_left_shift
                0x0000000000269888       0x70 drivers/built-in.o
 .text.rockchip_calc_post_csc
                0x00000000002698f8      0x714 drivers/built-in.o
                0x00000000002698f8                rockchip_calc_post_csc
 .text.mipi_dsi_device_transfer
                0x000000000026a00c       0x3c drivers/built-in.o
 .text.mipi_dsi_attach
                0x000000000026a048       0x28 drivers/built-in.o
                0x000000000026a048                mipi_dsi_attach
 .text.mipi_dsi_packet_format_is_short
                0x000000000026a070       0x38 drivers/built-in.o
                0x000000000026a070                mipi_dsi_packet_format_is_short
 .text.mipi_dsi_packet_format_is_long
                0x000000000026a0a8       0x38 drivers/built-in.o
                0x000000000026a0a8                mipi_dsi_packet_format_is_long
 .text.mipi_dsi_create_packet
                0x000000000026a0e0       0xfc drivers/built-in.o
                0x000000000026a0e0                mipi_dsi_create_packet
 .text.mipi_dsi_compression_mode
                0x000000000026a1dc       0x54 drivers/built-in.o
                0x000000000026a1dc                mipi_dsi_compression_mode
 .text.mipi_dsi_picture_parameter_set
                0x000000000026a230       0x48 drivers/built-in.o
                0x000000000026a230                mipi_dsi_picture_parameter_set
 .text.mipi_dsi_generic_write
                0x000000000026a278       0x60 drivers/built-in.o
                0x000000000026a278                mipi_dsi_generic_write
 .text.mipi_dsi_dcs_write_buffer
                0x000000000026a2d8       0x60 drivers/built-in.o
                0x000000000026a2d8                mipi_dsi_dcs_write_buffer
 .text.grf_field_write
                0x000000000026a338       0x64 drivers/built-in.o
 .text.dw_mipi_dsi_child_pre_probe
                0x000000000026a39c       0x3c drivers/built-in.o
 .text.dw_mipi_dsi_child_post_bind
                0x000000000026a3d8       0xd0 drivers/built-in.o
 .text.dw_mipi_dsi_connector_disable
                0x000000000026a4a8       0x6c drivers/built-in.o
 .text.dw_mipi_dsi_connector_enable
                0x000000000026a514       0xc4 drivers/built-in.o
 .text.dw_mipi_dsi_host_attach
                0x000000000026a5d8       0x5c drivers/built-in.o
 .text.dw_mipi_dsi_post_disable
                0x000000000026a634       0x60 drivers/built-in.o
 .text.dw_mipi_dsi_connector_unprepare
                0x000000000026a694       0x18 drivers/built-in.o
 .text.testif_write
                0x000000000026a6ac      0x150 drivers/built-in.o
 .text.dw_mipi_dsi_phy_init
                0x000000000026a7fc      0x128 drivers/built-in.o
 .text.dw_mipi_dsi_connector_init
                0x000000000026a924      0x140 drivers/built-in.o
 .text.dw_mipi_dsi_probe
                0x000000000026aa64       0xb4 drivers/built-in.o
 .text.dw_mipi_dsi_bind
                0x000000000026ab18       0x30 drivers/built-in.o
 .text.dw_mipi_dsi_transfer
                0x000000000026ab48      0x5ec drivers/built-in.o
 .text.dw_mipi_dsi_host_transfer
                0x000000000026b134       0x28 drivers/built-in.o
 .text.dw_mipi_dsi_get_hcomponent_lbcc.isra.0
                0x000000000026b15c       0x2c drivers/built-in.o
 .text.dw_mipi_dsi_pre_enable
                0x000000000026b188      0x598 drivers/built-in.o
 .text.dw_mipi_dsi_connector_prepare
                0x000000000026b720      0x2b0 drivers/built-in.o
 .text.inno_video_phy_set_mode
                0x000000000026b9d0       0x40 drivers/built-in.o
 .text.inno_video_phy_power_off
                0x000000000026ba10       0xd0 drivers/built-in.o
 .text.inno_video_phy_probe
                0x000000000026bae0      0x108 drivers/built-in.o
 .text.inno_video_phy_power_on
                0x000000000026bbe8      0x994 drivers/built-in.o
 .text.inno_video_phy_set_pll
                0x000000000026c57c       0xe8 drivers/built-in.o
 .text.rockchip_lvds_probe
                0x000000000026c664       0xa8 drivers/built-in.o
 .text.rockchip_lvds_connector_disable
                0x000000000026c70c       0x44 drivers/built-in.o
 .text.rockchip_lvds_connector_enable
                0x000000000026c750       0x70 drivers/built-in.o
 .text.rockchip_lvds_connector_init
                0x000000000026c7c0       0xf4 drivers/built-in.o
 .text.rk3568_lvds_disable
                0x000000000026c8b4       0x10 drivers/built-in.o
 .text.rk3568_lvds_enable
                0x000000000026c8c4       0x48 drivers/built-in.o
 .text.rk3562_lvds_disable
                0x000000000026c90c       0x10 drivers/built-in.o
 .text.rk3562_lvds_enable
                0x000000000026c91c       0x48 drivers/built-in.o
 .text.rk3368_lvds_disable
                0x000000000026c964       0x10 drivers/built-in.o
 .text.rk3368_lvds_enable
                0x000000000026c974       0x1c drivers/built-in.o
 .text.rk3288_lvds_disable
                0x000000000026c990       0x10 drivers/built-in.o
 .text.rk3126_lvds_disable
                0x000000000026c9a0       0x10 drivers/built-in.o
 .text.rk3126_lvds_enable
                0x000000000026c9b0       0x1c drivers/built-in.o
 .text.px30_lvds_disable
                0x000000000026c9cc       0x10 drivers/built-in.o
 .text.px30_lvds_enable
                0x000000000026c9dc       0x24 drivers/built-in.o
 .text.rk3288_lvds_enable
                0x000000000026ca00       0xa8 drivers/built-in.o
 .text.rockchip_rgb_connector_unprepare
                0x000000000026caa8       0x54 drivers/built-in.o
 .text.rockchip_rgb_connector_prepare
                0x000000000026cafc       0x98 drivers/built-in.o
 .text.rockchip_rgb_connector_init
                0x000000000026cb94      0x108 drivers/built-in.o
 .text.rockchip_mcu_panel_parse_cmds
                0x000000000026cc9c       0xb4 drivers/built-in.o
 .text.rockchip_rgb_probe
                0x000000000026cd50      0x424 drivers/built-in.o
 .text.rv1126_rgb_prepare
                0x000000000026d174       0x18 drivers/built-in.o
 .text.rv1106_rgb_prepare
                0x000000000026d18c       0x54 drivers/built-in.o
 .text.rk3568_rgb_prepare
                0x000000000026d1e0       0x18 drivers/built-in.o
 .text.rk3562_rgb_prepare
                0x000000000026d1f8       0x1c drivers/built-in.o
 .text.rk3368_rgb_prepare
                0x000000000026d214       0x10 drivers/built-in.o
 .text.rk3288_rgb_unprepare
                0x000000000026d224       0x14 drivers/built-in.o
 .text.rk3288_rgb_prepare
                0x000000000026d238       0x40 drivers/built-in.o
 .text.rk1808_rgb_prepare
                0x000000000026d278       0x18 drivers/built-in.o
 .text.px30_rgb_prepare
                0x000000000026d290       0x1c drivers/built-in.o
 .text.rockchip_mcu_panel_disable
                0x000000000026d2ac       0x58 drivers/built-in.o
 .text.rockchip_mcu_panel_enable
                0x000000000026d304       0x60 drivers/built-in.o
 .text.rockchip_mcu_panel_send_cmds
                0x000000000026d364       0xac drivers/built-in.o
 .text.rockchip_mcu_panel_unprepare
                0x000000000026d410       0x9c drivers/built-in.o
 .text.rockchip_mcu_panel_prepare
                0x000000000026d4ac      0x114 drivers/built-in.o
 .text.rockchip_panel_parse_cmds
                0x000000000026d5c0       0xb4 drivers/built-in.o
 .text.rockchip_panel_ofdata_to_platdata
                0x000000000026d674      0x1dc drivers/built-in.o
 .text.panel_simple_disable
                0x000000000026d850       0x74 drivers/built-in.o
 .text.panel_simple_enable
                0x000000000026d8c4       0x7c drivers/built-in.o
 .text.rockchip_panel_probe
                0x000000000026d940      0x320 drivers/built-in.o
 .text.rockchip_panel_send_dsi_cmds.part.0
                0x000000000026dc60      0x1b8 drivers/built-in.o
 .text.rockchip_panel_send_mcu_cmds.constprop.0
                0x000000000026de18       0xac drivers/built-in.o
 .text.rockchip_panel_send_spi_cmds.constprop.0.isra.0
                0x000000000026dec4      0x13c drivers/built-in.o
 .text.panel_simple_prepare
                0x000000000026e000      0x170 drivers/built-in.o
 .text.panel_simple_unprepare
                0x000000000026e170       0xf4 drivers/built-in.o
 .text.rk618_i2c_write
                0x000000000026e264       0xa0 drivers/built-in.o
                0x000000000026e264                rk618_i2c_write
 .text.rk618_probe
                0x000000000026e304      0x288 drivers/built-in.o
 .text.rk618_i2c_read
                0x000000000026e58c       0x94 drivers/built-in.o
                0x000000000026e58c                rk618_i2c_read
 .text.rk618_frc_dclk_invert
                0x000000000026e620        0xc drivers/built-in.o
                0x000000000026e620                rk618_frc_dclk_invert
 .text.rk618_lvds_probe
                0x000000000026e62c       0x6c drivers/built-in.o
 .text.rk618_lvds_bridge_enable
                0x000000000026e698       0x8c drivers/built-in.o
 .text.rk618_lvds_bridge_disable
                0x000000000026e724       0x28 drivers/built-in.o
 .text.rk618_dsi_child_pre_probe
                0x000000000026e74c       0x3c drivers/built-in.o
 .text.rk618_dsi_child_post_bind
                0x000000000026e788       0xd0 drivers/built-in.o
 .text.rk618_dsi_host_attach
                0x000000000026e858       0x5c drivers/built-in.o
 .text.rk618_dsi_probe
                0x000000000026e8b4       0x80 drivers/built-in.o
 .text.rk618_dsi_bind
                0x000000000026e934       0x30 drivers/built-in.o
 .text.rk618_dsi_bridge_disable
                0x000000000026e964       0xd4 drivers/built-in.o
 .text.rk618_dsi_bridge_post_disable
                0x000000000026ea38       0xb0 drivers/built-in.o
 .text.rk618_dsi_bridge_enable
                0x000000000026eae8       0xf4 drivers/built-in.o
 .text.rk618_dsi_host_transfer
                0x000000000026ebdc      0x620 drivers/built-in.o
 .text.rk618_dsi_bridge_mode_set
                0x000000000026f1fc       0x30 drivers/built-in.o
 .text.rk618_dsi_bridge_pre_enable
                0x000000000026f22c      0xacc drivers/built-in.o
 .text.video_bridge_pre_probe
                0x000000000026fcf8       0xa0 drivers/built-in.o
 .text.video_bridge_read_edid
                0x000000000026fd98       0x24 drivers/built-in.o
                0x000000000026fd98                video_bridge_read_edid
 .text.video_bridge_get_timing
                0x000000000026fdbc       0x24 drivers/built-in.o
                0x000000000026fdbc                video_bridge_get_timing
 .text.video_bridge_set_active
                0x000000000026fde0       0x7c drivers/built-in.o
                0x000000000026fde0                video_bridge_set_active
 .text.anx6345_set_backlight
                0x000000000026fe5c        0x8 drivers/built-in.o
 .text.anx6345_attach
                0x000000000026fe64        0x8 drivers/built-in.o
 .text.anx6345_read.isra.0
                0x000000000026fe6c       0x5c drivers/built-in.o
 .text.anx6345_read_r0.isra.0
                0x000000000026fec8       0x40 drivers/built-in.o
 .text.anx6345_write_r0.isra.0
                0x000000000026ff08       0x60 drivers/built-in.o
 .text.anx6345_write_r1.isra.0
                0x000000000026ff68       0x64 drivers/built-in.o
 .text.anx6345_probe
                0x000000000026ffcc      0x234 drivers/built-in.o
 .text.anx6345_aux_transfer
                0x0000000000270200      0x1b8 drivers/built-in.o
 .text.anx6345_read_edid
                0x00000000002703b8       0xec drivers/built-in.o
 .text.anx6345_bridge_enable
                0x00000000002704a4      0x17c drivers/built-in.o
 .text.pwm_set_invert
                0x0000000000270620       0x24 drivers/built-in.o
                0x0000000000270620                pwm_set_invert
 .text.pwm_set_config
                0x0000000000270644       0x20 drivers/built-in.o
                0x0000000000270644                pwm_set_config
 .text.pwm_set_enable
                0x0000000000270664       0x24 drivers/built-in.o
                0x0000000000270664                pwm_set_enable
 .text.rk_pwm_set_invert
                0x0000000000270688       0x44 drivers/built-in.o
 .text.rk_pwm_set_config
                0x00000000002706cc       0xfc drivers/built-in.o
 .text.rk_pwm_set_enable
                0x00000000002707c8       0x90 drivers/built-in.o
 .text.rk_pwm_ofdata_to_platdata
                0x0000000000270858       0x34 drivers/built-in.o
 .text.rk_pwm_probe
                0x000000000027088c       0x74 drivers/built-in.o
 .text.thermal_get_temp
                0x0000000000270900       0x20 drivers/built-in.o
                0x0000000000270900                thermal_get_temp
 .text.rockchip_thermal_get_temp
                0x0000000000270920       0x40 drivers/built-in.o
                0x0000000000270920                rockchip_thermal_get_temp
 .text.tsadc_tshut_mode_v2
                0x0000000000270960       0x68 drivers/built-in.o
 .text.tsadc_irq_ack_v3
                0x00000000002709c8       0x30 drivers/built-in.o
 .text.tsadc_init_v2
                0x00000000002709f8       0x7c drivers/built-in.o
 .text.tsadc_control_v2
                0x0000000000270a74       0x48 drivers/built-in.o
 .text.tsadc_tshut_mode_v4
                0x0000000000270abc       0x68 drivers/built-in.o
 .text.tsadc_irq_ack_v4
                0x0000000000270b24       0x44 drivers/built-in.o
 .text.tsadc_init_v8
                0x0000000000270b68       0x78 drivers/built-in.o
 .text.tsadc_control_v4
                0x0000000000270be0       0x38 drivers/built-in.o
 .text.tsadc_control_v3
                0x0000000000270c18       0x48 drivers/built-in.o
 .text.tsadc_irq_ack_v2
                0x0000000000270c60       0x30 drivers/built-in.o
 .text.rockchip_thermal_ofdata_to_platdata
                0x0000000000270c90       0x40 drivers/built-in.o
 .text.tsadc_code_to_temp
                0x0000000000270cd0      0x1b0 drivers/built-in.o
 .text.tsadc_get_temp_v2
                0x0000000000270e80       0x64 drivers/built-in.o
 .text.tsadc_get_temp_v4
                0x0000000000270ee4       0x64 drivers/built-in.o
 .text.rockchip_thermal_probe
                0x0000000000270f48      0x27c drivers/built-in.o
 .text.tsadc_init_v9
                0x00000000002711c4       0x48 drivers/built-in.o
 .text.tsadc_init_v4
                0x000000000027120c       0x48 drivers/built-in.o
 .text.tsadc_init_v7
                0x0000000000271254       0xf8 drivers/built-in.o
 .text.tsadc_init_v12
                0x000000000027134c      0x108 drivers/built-in.o
 .text.tsadc_init_v11
                0x0000000000271454      0x118 drivers/built-in.o
 .text.tsadc_init_v3
                0x000000000027156c       0x8c drivers/built-in.o
 .text.tsadc_get_temp_v3
                0x00000000002715f8       0xf0 drivers/built-in.o
 .text.tsadc_temp_to_code_v2.isra.0
                0x00000000002716e8      0x130 drivers/built-in.o
 .text.tsadc_alarm_temp_v3
                0x0000000000271818       0x90 drivers/built-in.o
 .text.tsadc_tshut_temp_v3
                0x00000000002718a8       0x90 drivers/built-in.o
 .text.tsadc_alarm_temp_v2
                0x0000000000271938       0x90 drivers/built-in.o
 .text.tsadc_tshut_temp_v2
                0x00000000002719c8       0x94 drivers/built-in.o
 .text.reset_get_by_index
                0x0000000000271a5c       0xac drivers/built-in.o
                0x0000000000271a5c                reset_get_by_index
 .text.reset_get_by_name
                0x0000000000271b08       0x50 drivers/built-in.o
                0x0000000000271b08                reset_get_by_name
 .text.reset_free
                0x0000000000271b58       0x18 drivers/built-in.o
                0x0000000000271b58                reset_free
 .text.reset_assert
                0x0000000000271b70       0x18 drivers/built-in.o
                0x0000000000271b70                reset_assert
 .text.reset_deassert
                0x0000000000271b88       0x18 drivers/built-in.o
                0x0000000000271b88                reset_deassert
 .text.reset_release_all
                0x0000000000271ba0       0x68 drivers/built-in.o
                0x0000000000271ba0                reset_release_all
 .text.rockchip_reset_free
                0x0000000000271c08        0x8 drivers/built-in.o
 .text.rockchip_reset_deassert
                0x0000000000271c10       0x50 drivers/built-in.o
 .text.rockchip_reset_assert
                0x0000000000271c60       0x50 drivers/built-in.o
 .text.rockchip_reset_request
                0x0000000000271cb0       0x38 drivers/built-in.o
 .text.rockchip_reset_probe
                0x0000000000271ce8       0x60 drivers/built-in.o
 .text.gpio_post_bind
                0x0000000000271d48        0x8 drivers/gpio/built-in.o
 .text.check_reserved
                0x0000000000271d50       0x78 drivers/gpio/built-in.o
 .text.gpio_renumber
                0x0000000000271dc8       0x90 drivers/gpio/built-in.o
 .text.gpio_pre_remove
                0x0000000000271e58       0x5c drivers/gpio/built-in.o
 .text.gpio_post_probe
                0x0000000000271eb4       0x48 drivers/gpio/built-in.o
 .text.gpio_xlate_offs_flags
                0x0000000000271efc       0x3c drivers/gpio/built-in.o
                0x0000000000271efc                gpio_xlate_offs_flags
 .text.dm_gpio_request
                0x0000000000271f38       0xb8 drivers/gpio/built-in.o
                0x0000000000271f38                dm_gpio_request
 .text.dm_gpio_requestf
                0x0000000000271ff0       0x9c drivers/gpio/built-in.o
 .text._dm_gpio_free
                0x000000000027208c       0x84 drivers/gpio/built-in.o
                0x000000000027208c                _dm_gpio_free
 .text.dm_gpio_get_value
                0x0000000000272110       0x54 drivers/gpio/built-in.o
                0x0000000000272110                dm_gpio_get_value
 .text.dm_gpio_set_value
                0x0000000000272164       0x6c drivers/gpio/built-in.o
                0x0000000000272164                dm_gpio_set_value
 .text.dm_gpio_set_dir_flags
                0x00000000002721d0       0x9c drivers/gpio/built-in.o
                0x00000000002721d0                dm_gpio_set_dir_flags
 .text.gpio_request_tail
                0x000000000027226c       0xfc drivers/gpio/built-in.o
 .text._gpio_request_by_name_nodev
                0x0000000000272368       0x9c drivers/gpio/built-in.o
 .text.gpio_request_by_name_nodev
                0x0000000000272404        0xc drivers/gpio/built-in.o
                0x0000000000272404                gpio_request_by_name_nodev
 .text.gpio_request_by_name
                0x0000000000272410       0x94 drivers/gpio/built-in.o
                0x0000000000272410                gpio_request_by_name
 .text.dm_gpio_free
                0x00000000002724a4       0x10 drivers/gpio/built-in.o
                0x00000000002724a4                dm_gpio_free
 .text.rockchip_gpio_set_value
                0x00000000002724b4       0x4c drivers/gpio/built-in.o
 .text.rockchip_gpio_get_value
                0x0000000000272500       0x38 drivers/gpio/built-in.o
 .text.rockchip_gpio_direction_output
                0x0000000000272538       0x58 drivers/gpio/built-in.o
 .text.rockchip_gpio_direction_input
                0x0000000000272590       0x3c drivers/gpio/built-in.o
 .text.rockchip_gpio_get_function
                0x00000000002725cc       0x80 drivers/gpio/built-in.o
 .text.rockchip_gpio_probe
                0x000000000027264c      0x154 drivers/gpio/built-in.o
 .text.i2c_setup_offset
                0x00000000002727a0       0x4c drivers/i2c/built-in.o
 .text.dm_i2c_read
                0x00000000002727ec      0x178 drivers/i2c/built-in.o
                0x00000000002727ec                dm_i2c_read
 .text.dm_i2c_write
                0x0000000000272964      0x1f0 drivers/i2c/built-in.o
                0x0000000000272964                dm_i2c_write
 .text.dm_i2c_xfer
                0x0000000000272b54       0x50 drivers/i2c/built-in.o
                0x0000000000272b54                dm_i2c_xfer
 .text.dm_i2c_set_bus_speed
                0x0000000000272ba4       0x5c drivers/i2c/built-in.o
                0x0000000000272ba4                dm_i2c_set_bus_speed
 .text.i2c_post_probe
                0x0000000000272c00       0x84 drivers/i2c/built-in.o
 .text.i2c_chip_ofdata_to_platdata
                0x0000000000272c84       0x60 drivers/i2c/built-in.o
                0x0000000000272c84                i2c_chip_ofdata_to_platdata
 .text.i2c_child_post_bind
                0x0000000000272ce4       0x50 drivers/i2c/built-in.o
 .text.rk_i2c_send_start_bit
                0x0000000000272d34       0xbc drivers/i2c/built-in.o
 .text.rockchip_i2c_ofdata_to_platdata
                0x0000000000272df0       0x38 drivers/i2c/built-in.o
 .text.rockchip_i2c_probe
                0x0000000000272e28       0x34 drivers/i2c/built-in.o
 .text.rockchip_i2c_xfer
                0x0000000000272e5c      0x3e0 drivers/i2c/built-in.o
 .text.rockchip_i2c_set_bus_speed
                0x000000000027323c      0x1e8 drivers/i2c/built-in.o
                0x000000000027323c                rockchip_i2c_set_bus_speed
 .text.spi_flash_post_bind
                0x0000000000273424        0x8 drivers/mtd/spi/built-in.o
 .text._dw_write_hwaddr
                0x000000000027342c       0x48 drivers/net/built-in.o
 .text.designware_eth_bind
                0x0000000000273474        0x8 drivers/net/built-in.o
 .text.designware_eth_free_pkt
                0x000000000027347c       0x60 drivers/net/built-in.o
                0x000000000027347c                designware_eth_free_pkt
 .text.dw_mdio_write
                0x00000000002734dc       0xa0 drivers/net/built-in.o
 .text.dw_mdio_read
                0x000000000027357c       0x90 drivers/net/built-in.o
 .text.designware_eth_recv
                0x000000000027360c       0x80 drivers/net/built-in.o
                0x000000000027360c                designware_eth_recv
 .text.designware_eth_send
                0x000000000027368c      0x10c drivers/net/built-in.o
                0x000000000027368c                designware_eth_send
 .text.designware_eth_stop
                0x0000000000273798       0x50 drivers/net/built-in.o
                0x0000000000273798                designware_eth_stop
 .text.designware_eth_write_hwaddr
                0x00000000002737e8       0x30 drivers/net/built-in.o
                0x00000000002737e8                designware_eth_write_hwaddr
 .text.dw_mdio_reset
                0x0000000000273818       0xb4 drivers/net/built-in.o
 .text.designware_eth_ofdata_to_platdata
                0x00000000002738cc      0x104 drivers/net/built-in.o
                0x00000000002738cc                designware_eth_ofdata_to_platdata
 .text.designware_eth_remove
                0x00000000002739d0       0x3c drivers/net/built-in.o
 .text.designware_eth_probe
                0x0000000000273a0c      0x184 drivers/net/built-in.o
                0x0000000000273a0c                designware_eth_probe
 .text.designware_eth_init
                0x0000000000273b90      0x294 drivers/net/built-in.o
                0x0000000000273b90                designware_eth_init
 .text.designware_eth_enable
                0x0000000000273e24       0x38 drivers/net/built-in.o
                0x0000000000273e24                designware_eth_enable
 .text.designware_eth_start
                0x0000000000273e5c       0x4c drivers/net/built-in.o
 .text.gmac_rockchip_eth_write_hwaddr
                0x0000000000273ea8        0x4 drivers/net/built-in.o
 .text.gmac_rockchip_eth_stop
                0x0000000000273eac        0x4 drivers/net/built-in.o
 .text.gmac_rockchip_eth_free_pkt
                0x0000000000273eb0        0x4 drivers/net/built-in.o
 .text.gmac_rockchip_eth_recv
                0x0000000000273eb4        0x4 drivers/net/built-in.o
 .text.gmac_rockchip_eth_send
                0x0000000000273eb8        0x4 drivers/net/built-in.o
 .text.gmac_rockchip_eth_start
                0x0000000000273ebc       0x7c drivers/net/built-in.o
 .text.px30_gmac_set_to_rmii
                0x0000000000273f38       0x24 drivers/net/built-in.o
 .text.px30_gmac_fix_mac_speed
                0x0000000000273f5c       0xac drivers/net/built-in.o
 .text.gmac_rockchip_ofdata_to_platdata
                0x0000000000274008      0x168 drivers/net/built-in.o
 .text.gmac_rockchip_probe
                0x0000000000274170      0x144 drivers/net/built-in.o
 .text.gmac_set_rgmii
                0x00000000002742b4       0x4c drivers/net/built-in.o
                0x00000000002742b4                gmac_set_rgmii
 .text.genphy_shutdown
                0x0000000000274300        0x8 drivers/net/phy/built-in.o
                0x0000000000274300                genphy_shutdown
 .text.genphy_restart_aneg
                0x0000000000274308       0x68 drivers/net/phy/built-in.o
                0x0000000000274308                genphy_restart_aneg
 .text.genphy_config_aneg
                0x0000000000274370      0x1f0 drivers/net/phy/built-in.o
                0x0000000000274370                genphy_config_aneg
 .text.genphy_config
                0x0000000000274560       0xcc drivers/net/phy/built-in.o
                0x0000000000274560                genphy_config
 .text.genphy_update_link
                0x000000000027462c      0x158 drivers/net/phy/built-in.o
                0x000000000027462c                genphy_update_link
 .text.genphy_parse_link
                0x0000000000274784      0x1ac drivers/net/phy/built-in.o
                0x0000000000274784                genphy_parse_link
 .text.genphy_startup
                0x0000000000274930       0x34 drivers/net/phy/built-in.o
                0x0000000000274930                genphy_startup
 .text.phy_init
                0x0000000000274964        0x8 drivers/net/phy/built-in.o
                0x0000000000274964                phy_init
 .text.phy_set_supported
                0x000000000027496c       0x58 drivers/net/phy/built-in.o
                0x000000000027496c                phy_set_supported
 .text.get_phy_id
                0x00000000002749c4       0x80 drivers/net/phy/built-in.o
                0x00000000002749c4                get_phy_id
 .text.get_phy_device_by_mask
                0x0000000000274a44      0x2e4 drivers/net/phy/built-in.o
 .text.phy_reset
                0x0000000000274d28       0xc0 drivers/net/phy/built-in.o
                0x0000000000274d28                phy_reset
 .text.phy_find_by_mask
                0x0000000000274de8       0x4c drivers/net/phy/built-in.o
                0x0000000000274de8                phy_find_by_mask
 .text.phy_connect_dev
                0x0000000000274e34       0x58 drivers/net/phy/built-in.o
                0x0000000000274e34                phy_connect_dev
 .text.phy_startup
                0x0000000000274e8c       0x1c drivers/net/phy/built-in.o
                0x0000000000274e8c                phy_startup
 .text.board_phy_config
                0x0000000000274ea8       0x1c drivers/net/phy/built-in.o
                0x0000000000274ea8                board_phy_config
 .text.phy_config
                0x0000000000274ec4        0x4 drivers/net/phy/built-in.o
                0x0000000000274ec4                phy_config
 .text.phy_shutdown
                0x0000000000274ec8       0x2c drivers/net/phy/built-in.o
                0x0000000000274ec8                phy_shutdown
 .text.phy_get_interface_by_name
                0x0000000000274ef4       0x58 drivers/net/phy/built-in.o
                0x0000000000274ef4                phy_get_interface_by_name
 .text.charge_display_show
                0x0000000000274f4c       0x44 drivers/power/built-in.o
                0x0000000000274f4c                charge_display_show
 .text.charge_display
                0x0000000000274f90       0x2c drivers/power/built-in.o
                0x0000000000274f90                charge_display
 .text.autowake_timer_handler
                0x0000000000274fbc       0x48 drivers/power/built-in.o
 .text.autowakeup_timer_init
                0x0000000000275004       0x7c drivers/power/built-in.o
 .text.fg_charger_get_chrg_online
                0x0000000000275080       0x2c drivers/power/built-in.o
 .text.autowakeup_timer_uninit
                0x00000000002750ac       0x2c drivers/power/built-in.o
 .text.charge_animation_ofdata_to_platdata
                0x00000000002750d8      0x27c drivers/power/built-in.o
 .text.charge_animation_probe
                0x0000000000275354      0x13c drivers/power/built-in.o
 .text.sys_shutdown.isra.0
                0x0000000000275490       0x88 drivers/power/built-in.o
 .text.system_suspend_enter.isra.0
                0x0000000000275518      0x1ec drivers/power/built-in.o
 .text.charge_animation_show
                0x0000000000275704      0x8b8 drivers/power/built-in.o
 .text.device_suspend
                0x0000000000275fbc        0x8 drivers/power/built-in.o
                0x0000000000275fbc                device_suspend
 .text.device_resume
                0x0000000000275fc4        0x8 drivers/power/built-in.o
                0x0000000000275fc4                device_resume
 .text.dvfs_apply
                0x0000000000275fcc       0x20 drivers/power/dvfs/built-in.o
                0x0000000000275fcc                dvfs_apply
 .text.dvfs_repeat_apply
                0x0000000000275fec       0x20 drivers/power/dvfs/built-in.o
                0x0000000000275fec                dvfs_repeat_apply
 .text.dvfs_init
                0x000000000027600c       0x64 drivers/power/dvfs/built-in.o
                0x000000000027600c                dvfs_init
 .text.wtemp_dvfs_probe
                0x0000000000276070       0x48 drivers/power/dvfs/built-in.o
 .text.temp2string.constprop.0
                0x00000000002760b8       0x44 drivers/power/dvfs/built-in.o
 .text.wtemp_dvfs_ofdata_to_platdata
                0x00000000002760fc      0x520 drivers/power/dvfs/built-in.o
 .text.wtemp_dvfs_high_temp_adjust.constprop.0
                0x000000000027661c       0xe4 drivers/power/dvfs/built-in.o
 .text.wtemp_dvfs_low_temp_adjust
                0x0000000000276700      0x164 drivers/power/dvfs/built-in.o
 .text.wtemp_dvfs_apply
                0x0000000000276864       0xec drivers/power/dvfs/built-in.o
 .text.wtemp_dvfs_repeat_apply
                0x0000000000276950      0x1e4 drivers/power/dvfs/built-in.o
 .text.fuel_gauge_capability
                0x0000000000276b34       0x44 drivers/power/fuel_gauge/built-in.o
                0x0000000000276b34                fuel_gauge_capability
 .text.fuel_gauge_bat_is_exist
                0x0000000000276b78       0x44 drivers/power/fuel_gauge/built-in.o
                0x0000000000276b78                fuel_gauge_bat_is_exist
 .text.fuel_gauge_get_current
                0x0000000000276bbc       0x44 drivers/power/fuel_gauge/built-in.o
                0x0000000000276bbc                fuel_gauge_get_current
 .text.fuel_gauge_get_voltage
                0x0000000000276c00       0x44 drivers/power/fuel_gauge/built-in.o
                0x0000000000276c00                fuel_gauge_get_voltage
 .text.fuel_gauge_update_get_soc
                0x0000000000276c44       0x44 drivers/power/fuel_gauge/built-in.o
                0x0000000000276c44                fuel_gauge_update_get_soc
 .text.fuel_gauge_get_chrg_online
                0x0000000000276c88       0x44 drivers/power/fuel_gauge/built-in.o
                0x0000000000276c88                fuel_gauge_get_chrg_online
 .text.io_domain_init
                0x0000000000276ccc       0x5c drivers/power/io-domain/built-in.o
                0x0000000000276ccc                io_domain_init
 .text.rockchip_ofdata_to_platdata
                0x0000000000276d28       0x44 drivers/power/io-domain/built-in.o
 .text.rockchip_iodomain_write
                0x0000000000276d6c       0x64 drivers/power/io-domain/built-in.o
 .text.rv1126_iodomain_write
                0x0000000000276dd0       0xb4 drivers/power/io-domain/built-in.o
 .text.rk3568_pmu_iodomain_write
                0x0000000000276e84       0xe8 drivers/power/io-domain/built-in.o
 .text.rockchip_iodomain_probe
                0x0000000000276f6c      0x1bc drivers/power/io-domain/built-in.o
 .text.px30_iodomain_init
                0x0000000000277128       0x1c drivers/power/io-domain/built-in.o
 .text.rk3288_iodomain_init
                0x0000000000277144       0x1c drivers/power/io-domain/built-in.o
 .text.rk3308_iodomain_init
                0x0000000000277160       0x1c drivers/power/io-domain/built-in.o
 .text.rk3328_iodomain_init
                0x000000000027717c       0x1c drivers/power/io-domain/built-in.o
 .text.rk3366_iodomain_init
                0x0000000000277198       0x1c drivers/power/io-domain/built-in.o
 .text.rk3368_iodomain_init
                0x00000000002771b4        0x4 drivers/power/io-domain/built-in.o
 .text.rk3399_pmu_iodomain_init
                0x00000000002771b8       0x1c drivers/power/io-domain/built-in.o
 .text.pmic_bind_children
                0x00000000002771d4      0x178 drivers/power/pmic/built-in.o
                0x00000000002771d4                pmic_bind_children
 .text.pmic_read
                0x000000000027734c       0x74 drivers/power/pmic/built-in.o
                0x000000000027734c                pmic_read
 .text.pmic_write
                0x00000000002773c0       0x74 drivers/power/pmic/built-in.o
                0x00000000002773c0                pmic_write
 .text.pmic_reg_read
                0x0000000000277434       0x24 drivers/power/pmic/built-in.o
                0x0000000000277434                pmic_reg_read
 .text.pmic_reg_write
                0x0000000000277458       0x20 drivers/power/pmic/built-in.o
                0x0000000000277458                pmic_reg_write
 .text.pmic_clrsetbits
                0x0000000000277478       0x5c drivers/power/pmic/built-in.o
                0x0000000000277478                pmic_clrsetbits
 .text.pmic_suspend
                0x00000000002774d4       0x44 drivers/power/pmic/built-in.o
                0x00000000002774d4                pmic_suspend
 .text.pmic_resume
                0x0000000000277518       0x44 drivers/power/pmic/built-in.o
                0x0000000000277518                pmic_resume
 .text.pmic_shutdown
                0x000000000027755c       0x44 drivers/power/pmic/built-in.o
                0x000000000027755c                pmic_shutdown
 .text.rk8xx_reg_count
                0x00000000002775a0       0x40 drivers/power/pmic/built-in.o
 .text.rk8xx_plug_out_handler
                0x00000000002775e0        0xc drivers/power/pmic/built-in.o
 .text.rk8xx_write
                0x00000000002775ec       0x48 drivers/power/pmic/built-in.o
 .text.rk8xx_resume
                0x0000000000277634       0x5c drivers/power/pmic/built-in.o
 .text.rk8xx_read
                0x0000000000277690       0x48 drivers/power/pmic/built-in.o
 .text.rk8xx_shutdown
                0x00000000002776d8       0xd4 drivers/power/pmic/built-in.o
 .text.rk8xx_suspend
                0x00000000002777ac       0x8c drivers/power/pmic/built-in.o
 .text.rk8xx_ofdata_to_platdata
                0x0000000000277838      0x160 drivers/power/pmic/built-in.o
 .text.rk8xx_probe
                0x0000000000277998      0x674 drivers/power/pmic/built-in.o
 .text.rk8xx_bind
                0x000000000027800c       0xac drivers/power/pmic/built-in.o
 .text.regulator_pre_probe
                0x00000000002780b8      0x1c4 drivers/power/regulator/built-in.o
 .text.regulator_post_bind
                0x000000000027827c       0xcc drivers/power/regulator/built-in.o
 .text.regulator_get_value
                0x0000000000278348       0x44 drivers/power/regulator/built-in.o
                0x0000000000278348                regulator_get_value
 .text.regulator_show
                0x000000000027838c       0xd8 drivers/power/regulator/built-in.o
 .text.regulator_set_value
                0x0000000000278464       0xf4 drivers/power/regulator/built-in.o
                0x0000000000278464                regulator_set_value
 .text.regulator_set_suspend_value
                0x0000000000278558       0x4c drivers/power/regulator/built-in.o
                0x0000000000278558                regulator_set_suspend_value
 .text.regulator_set_current
                0x00000000002785a4       0x94 drivers/power/regulator/built-in.o
                0x00000000002785a4                regulator_set_current
 .text.regulator_get_enable
                0x0000000000278638       0x44 drivers/power/regulator/built-in.o
                0x0000000000278638                regulator_get_enable
 .text.regulator_set_enable
                0x000000000027867c       0x4c drivers/power/regulator/built-in.o
                0x000000000027867c                regulator_set_enable
 .text.regulator_set_suspend_enable
                0x00000000002786c8       0x4c drivers/power/regulator/built-in.o
                0x00000000002786c8                regulator_set_suspend_enable
 .text.regulator_set_ramp_delay
                0x0000000000278714       0x4c drivers/power/regulator/built-in.o
                0x0000000000278714                regulator_set_ramp_delay
 .text.regulator_get_by_devname
                0x0000000000278760       0x10 drivers/power/regulator/built-in.o
                0x0000000000278760                regulator_get_by_devname
 .text.device_get_supply_regulator
                0x0000000000278770       0x14 drivers/power/regulator/built-in.o
                0x0000000000278770                device_get_supply_regulator
 .text.regulator_autoset
                0x0000000000278784      0x148 drivers/power/regulator/built-in.o
                0x0000000000278784                regulator_autoset
 .text.regulators_enable_state_mem
                0x00000000002788cc       0xc0 drivers/power/regulator/built-in.o
                0x00000000002788cc                regulators_enable_state_mem
 .text.regulators_enable_boot_on
                0x000000000027898c       0x8c drivers/power/regulator/built-in.o
                0x000000000027898c                regulators_enable_boot_on
 .text.pwm_regulator_get_voltage
                0x0000000000278a18       0x18 drivers/power/regulator/built-in.o
 .text.pwm_regulator_enable
                0x0000000000278a30       0x2c drivers/power/regulator/built-in.o
 .text.pwm_regulator_set_voltage
                0x0000000000278a5c       0xb0 drivers/power/regulator/built-in.o
 .text.pwm_regulator_ofdata_to_platdata
                0x0000000000278b0c       0xac drivers/power/regulator/built-in.o
 .text.pwm_regulator_probe
                0x0000000000278bb8       0x5c drivers/power/regulator/built-in.o
 .text.fixed_regulator_set_enable
                0x0000000000278c14       0x8c drivers/power/regulator/built-in.o
 .text.fixed_regulator_get_enable
                0x0000000000278ca0       0x28 drivers/power/regulator/built-in.o
 .text.fixed_regulator_get_current
                0x0000000000278cc8       0x38 drivers/power/regulator/built-in.o
 .text.fixed_regulator_get_value
                0x0000000000278d00       0x38 drivers/power/regulator/built-in.o
 .text.fixed_regulator_ofdata_to_platdata
                0x0000000000278d38       0xec drivers/power/regulator/built-in.o
 .text.switch_set_suspend_value
                0x0000000000278e24        0x8 drivers/power/regulator/built-in.o
 .text.switch_get_suspend_value
                0x0000000000278e2c        0x8 drivers/power/regulator/built-in.o
 .text.get_buck_reg
                0x0000000000278e34      0x1a4 drivers/power/regulator/built-in.o
 .text.buck_set_ramp_delay
                0x0000000000278fd8      0x194 drivers/power/regulator/built-in.o
 .text.buck_set_suspend_enable
                0x000000000027916c       0xe0 drivers/power/regulator/built-in.o
 .text.buck_set_suspend_value
                0x000000000027924c       0x58 drivers/power/regulator/built-in.o
 .text._buck_set_value
                0x00000000002792a4       0x84 drivers/power/regulator/built-in.o
 .text.buck_set_value
                0x0000000000279328       0x10 drivers/power/regulator/built-in.o
 .text.ldo_set_suspend_enable
                0x0000000000279338       0xf4 drivers/power/regulator/built-in.o
 .text.switch_set_suspend_enable
                0x000000000027942c       0xa8 drivers/power/regulator/built-in.o
 .text.switch_set_enable
                0x00000000002794d4       0xb4 drivers/power/regulator/built-in.o
 .text.buck_get_suspend_enable
                0x0000000000279588       0xe4 drivers/power/regulator/built-in.o
 .text.buck_get_enable
                0x000000000027966c      0x108 drivers/power/regulator/built-in.o
 .text.buck_get_suspend_value
                0x0000000000279774       0xac drivers/power/regulator/built-in.o
 .text.buck_get_value
                0x0000000000279820       0xac drivers/power/regulator/built-in.o
 .text.ldo_get_suspend_enable
                0x00000000002798cc       0xec drivers/power/regulator/built-in.o
 .text.ldo_get_enable
                0x00000000002799b8      0x134 drivers/power/regulator/built-in.o
 .text.switch_get_suspend_enable
                0x0000000000279aec       0xc0 drivers/power/regulator/built-in.o
 .text.switch_get_enable
                0x0000000000279bac       0xa0 drivers/power/regulator/built-in.o
 .text._buck_set_enable
                0x0000000000279c4c      0x15c drivers/power/regulator/built-in.o
 .text.buck_set_enable
                0x0000000000279da8       0x10 drivers/power/regulator/built-in.o
 .text.ldo_set_enable
                0x0000000000279db8      0x130 drivers/power/regulator/built-in.o
 .text.rk8xx_buck_probe
                0x0000000000279ee8       0x24 drivers/power/regulator/built-in.o
 .text.rk8xx_ldo_probe
                0x0000000000279f0c       0x20 drivers/power/regulator/built-in.o
 .text.rk8xx_switch_probe
                0x0000000000279f2c       0x24 drivers/power/regulator/built-in.o
 .text.switch_get_value
                0x0000000000279f50       0xa8 drivers/power/regulator/built-in.o
 .text.get_ldo_reg
                0x0000000000279ff8       0xb8 drivers/power/regulator/built-in.o
 .text.ldo_set_suspend_value
                0x000000000027a0b0       0x58 drivers/power/regulator/built-in.o
 .text.ldo_set_value
                0x000000000027a108       0x58 drivers/power/regulator/built-in.o
 .text.ldo_get_suspend_value
                0x000000000027a160       0x58 drivers/power/regulator/built-in.o
 .text.ldo_get_value
                0x000000000027a1b8       0x58 drivers/power/regulator/built-in.o
 .text.switch_set_value
                0x000000000027a210        0x8 drivers/power/regulator/built-in.o
 .text._serial_putc
                0x000000000027a218       0x58 drivers/serial/built-in.o
 .text._serial_puts
                0x000000000027a270       0x38 drivers/serial/built-in.o
 .text.__serial_getc
                0x000000000027a2a8       0x40 drivers/serial/built-in.o
 .text.__serial_tstc
                0x000000000027a2e8       0x24 drivers/serial/built-in.o
 .text.__serial_clear
                0x000000000027a30c       0x1c drivers/serial/built-in.o
 .text.serial_stub_putc
                0x000000000027a328        0x8 drivers/serial/built-in.o
 .text.serial_stub_puts
                0x000000000027a330        0x8 drivers/serial/built-in.o
 .text.serial_stub_getc
                0x000000000027a338        0x8 drivers/serial/built-in.o
 .text.serial_stub_tstc
                0x000000000027a340        0x8 drivers/serial/built-in.o
 .text.serial_pre_remove
                0x000000000027a348        0x8 drivers/serial/built-in.o
 .text.serial_post_probe
                0x000000000027a350       0xc4 drivers/serial/built-in.o
 .text.serial_init
                0x000000000027a414        0x8 drivers/serial/built-in.o
                0x000000000027a414                serial_init
 .text.serial_initialize
                0x000000000027a41c        0x4 drivers/serial/built-in.o
                0x000000000027a41c                serial_initialize
 .text.serial_putc
                0x000000000027a420       0x1c drivers/serial/built-in.o
                0x000000000027a420                serial_putc
 .text.serial_puts
                0x000000000027a43c       0x18 drivers/serial/built-in.o
                0x000000000027a43c                serial_puts
 .text.serial_getc
                0x000000000027a454       0x14 drivers/serial/built-in.o
                0x000000000027a454                serial_getc
 .text.serial_tstc
                0x000000000027a468       0x14 drivers/serial/built-in.o
                0x000000000027a468                serial_tstc
 .text.serial_clear
                0x000000000027a47c       0x14 drivers/serial/built-in.o
                0x000000000027a47c                serial_clear
 .text.serial_stdio_init
                0x000000000027a490        0x4 drivers/serial/built-in.o
                0x000000000027a490                serial_stdio_init
 .text.ns16550_serial_ofdata_to_platdata
                0x000000000027a494      0x124 drivers/serial/built-in.o
                0x000000000027a494                ns16550_serial_ofdata_to_platdata
 .text.ns16550_readb.isra.0
                0x000000000027a5b8       0x1c drivers/serial/built-in.o
 .text.ns16550_serial_getc
                0x000000000027a5d4       0x3c drivers/serial/built-in.o
 .text.ns16550_serial_pending
                0x000000000027a610       0x44 drivers/serial/built-in.o
 .text.ns16550_writeb.isra.0
                0x000000000027a654       0x1c drivers/serial/built-in.o
 .text.ns16550_serial_putc
                0x000000000027a670       0x48 drivers/serial/built-in.o
 .text.ns16550_serial_clear
                0x000000000027a6b8       0x28 drivers/serial/built-in.o
 .text.NS16550_setbrg
                0x000000000027a6e0       0x54 drivers/serial/built-in.o
 .text.ns16550_serial_setbrg
                0x000000000027a734       0x40 drivers/serial/built-in.o
 .text.NS16550_init
                0x000000000027a774       0x70 drivers/serial/built-in.o
                0x000000000027a774                NS16550_init
 .text.ns16550_serial_probe
                0x000000000027a7e4       0x40 drivers/serial/built-in.o
                0x000000000027a7e4                ns16550_serial_probe
 .text.printch  0x000000000027a824       0x6c drivers/serial/built-in.o
                0x000000000027a824                printch
 .text.debug_uart_getc
                0x000000000027a890       0x38 drivers/serial/built-in.o
                0x000000000027a890                debug_uart_getc
 .text.debug_uart_tstc
                0x000000000027a8c8       0x34 drivers/serial/built-in.o
                0x000000000027a8c8                debug_uart_tstc
 .text.debug_uart_clrc
                0x000000000027a8fc       0x30 drivers/serial/built-in.o
                0x000000000027a8fc                debug_uart_clrc
 .text.debug_uart_flushc
                0x000000000027a92c       0x34 drivers/serial/built-in.o
                0x000000000027a92c                debug_uart_flushc
 .text.printascii
                0x000000000027a960       0x7c drivers/serial/built-in.o
                0x000000000027a960                printascii
 .text.debug_uart_init
                0x000000000027a9dc       0x68 drivers/serial/built-in.o
                0x000000000027a9dc                debug_uart_init
 .text.spi_child_pre_probe
                0x000000000027aa44       0x4c drivers/spi/built-in.o
 .text.spi_post_probe
                0x000000000027aa90       0x40 drivers/spi/built-in.o
 .text.spi_slave_ofdata_to_platdata
                0x000000000027aad0      0x1ac drivers/spi/built-in.o
                0x000000000027aad0                spi_slave_ofdata_to_platdata
 .text.spi_child_post_bind
                0x000000000027ac7c       0x50 drivers/spi/built-in.o
 .text.usb_ep_autoconfig
                0x000000000027accc      0x200 drivers/usb/gadget/built-in.o
                0x000000000027accc                usb_ep_autoconfig
 .text.usb_ep_autoconfig_reset
                0x000000000027aecc       0x30 drivers/usb/gadget/built-in.o
                0x000000000027aecc                usb_ep_autoconfig_reset
 .text.usb_descriptor_fillbuf
                0x000000000027aefc       0x84 drivers/usb/gadget/built-in.o
                0x000000000027aefc                usb_descriptor_fillbuf
 .text.usb_gadget_get_string
                0x000000000027af80      0x194 drivers/usb/gadget/built-in.o
                0x000000000027af80                usb_gadget_get_string
 .text.dwc2_udc_pre_setup
                0x000000000027b114       0x44 drivers/usb/gadget/built-in.o
 .text.udc_set_address
                0x000000000027b158       0x74 drivers/usb/gadget/built-in.o
 .text.dwc2_udc_ep_clear_stall
                0x000000000027b1cc       0x94 drivers/usb/gadget/built-in.o
 .text.dwc2_udc_ep_activate
                0x000000000027b260       0xbc drivers/usb/gadget/built-in.o
 .text.udc_reinit
                0x000000000027b31c       0x60 drivers/usb/gadget/built-in.o
 .text.set_max_pktsize
                0x000000000027b37c       0x7c drivers/usb/gadget/built-in.o
 .text.dwc2_fifo_status
                0x000000000027b3f8       0x20 drivers/usb/gadget/built-in.o
 .text.dwc2_fifo_flush
                0x000000000027b418        0x4 drivers/usb/gadget/built-in.o
 .text.reconfig_usbd
                0x000000000027b41c      0x25c drivers/usb/gadget/built-in.o
 .text.done     0x000000000027b678       0x60 drivers/usb/gadget/built-in.o
 .text.nuke     0x000000000027b6d8       0x4c drivers/usb/gadget/built-in.o
 .text.dwc2_ep_disable
                0x000000000027b724       0x50 drivers/usb/gadget/built-in.o
 .text.dwc2_dequeue
                0x000000000027b774       0x74 drivers/usb/gadget/built-in.o
 .text.setdma_tx
                0x000000000027b7e8      0x130 drivers/usb/gadget/built-in.o
 .text.write_fifo_ep0
                0x000000000027b918       0x64 drivers/usb/gadget/built-in.o
 .text.dwc2_free_request
                0x000000000027b97c       0x50 drivers/usb/gadget/built-in.o
 .text.dwc2_alloc_request
                0x000000000027b9cc       0x48 drivers/usb/gadget/built-in.o
 .text.dwc2_udc_ep_set_stall.isra.0
                0x000000000027ba14       0x6c drivers/usb/gadget/built-in.o
 .text.dwc2_udc_set_halt
                0x000000000027ba80       0x8c drivers/usb/gadget/built-in.o
 .text.dwc2_ep_enable
                0x000000000027bb0c      0x12c drivers/usb/gadget/built-in.o
 .text.setdma_rx.isra.0
                0x000000000027bc38      0x108 drivers/usb/gadget/built-in.o
 .text.complete_rx
                0x000000000027bd40      0x190 drivers/usb/gadget/built-in.o
 .text.dwc2_queue
                0x000000000027bed0      0x224 drivers/usb/gadget/built-in.o
 .text.otg_phy_off
                0x000000000027c0f4        0x4 drivers/usb/gadget/built-in.o
                0x000000000027c0f4                otg_phy_off
 .text.usb_gadget_register_driver
                0x000000000027c0f8       0xa4 drivers/usb/gadget/built-in.o
                0x000000000027c0f8                usb_gadget_register_driver
 .text.usb_gadget_unregister_driver
                0x000000000027c19c       0xe4 drivers/usb/gadget/built-in.o
                0x000000000027c19c                usb_gadget_unregister_driver
 .text.dwc2_udc_probe
                0x000000000027c280       0x88 drivers/usb/gadget/built-in.o
                0x000000000027c280                dwc2_udc_probe
 .text.dwc2_udc_handle_interrupt
                0x000000000027c308      0x970 drivers/usb/gadget/built-in.o
                0x000000000027c308                dwc2_udc_handle_interrupt
 .text.usb_gadget_handle_interrupts
                0x000000000027cc78        0x4 drivers/usb/gadget/built-in.o
                0x000000000027cc78                usb_gadget_handle_interrupts
 .text.count_configs
                0x000000000027cc7c       0x68 drivers/usb/gadget/built-in.o
 .text.reset_config
                0x000000000027cce4       0x5c drivers/usb/gadget/built-in.o
 .text.collect_langs
                0x000000000027cd40       0x54 drivers/usb/gadget/built-in.o
 .text.composite_setup_complete
                0x000000000027cd94        0x4 drivers/usb/gadget/built-in.o
 .text.composite_disconnect
                0x000000000027cd98       0x50 drivers/usb/gadget/built-in.o
 .text.composite_suspend
                0x000000000027cde8       0x80 drivers/usb/gadget/built-in.o
 .text.composite_resume
                0x000000000027ce68       0x7c drivers/usb/gadget/built-in.o
 .text.g_dnl_unbind
                0x000000000027cee4       0x34 drivers/usb/gadget/built-in.o
 .text.lookup_string
                0x000000000027cf18       0x64 drivers/usb/gadget/built-in.o
 .text.composite_unbind
                0x000000000027cf7c      0x12c drivers/usb/gadget/built-in.o
 .text.composite_bind
                0x000000000027d0a8      0x128 drivers/usb/gadget/built-in.o
 .text.g_dnl_do_config
                0x000000000027d1d0       0x5c drivers/usb/gadget/built-in.o
 .text.composite_setup
                0x000000000027d22c      0x948 drivers/usb/gadget/built-in.o
 .text.usb_add_function
                0x000000000027db74       0xd8 drivers/usb/gadget/built-in.o
                0x000000000027db74                usb_add_function
 .text.usb_interface_id
                0x000000000027dc4c       0x2c drivers/usb/gadget/built-in.o
                0x000000000027dc4c                usb_interface_id
 .text.usb_add_config
                0x000000000027dc78       0xd0 drivers/usb/gadget/built-in.o
                0x000000000027dc78                usb_add_config
 .text.usb_string_id
                0x000000000027dd48       0x28 drivers/usb/gadget/built-in.o
                0x000000000027dd48                usb_string_id
 .text.usb_composite_register
                0x000000000027dd70       0x74 drivers/usb/gadget/built-in.o
                0x000000000027dd70                usb_composite_register
 .text.usb_composite_unregister
                0x000000000027dde4       0x38 drivers/usb/gadget/built-in.o
                0x000000000027dde4                usb_composite_unregister
 .text.g_dnl_set_serialnumber
                0x000000000027de1c       0x50 drivers/usb/gadget/built-in.o
                0x000000000027de1c                g_dnl_set_serialnumber
 .text.on_serialno
                0x000000000027de6c       0x1c drivers/usb/gadget/built-in.o
 .text.g_dnl_bind_fixup
                0x000000000027de88      0x11c drivers/usb/gadget/built-in.o
                0x000000000027de90                g_dnl_bind_fixup
 .text.g_dnl_get_board_bcd_device_number
                0x000000000027dfa4        0x4 drivers/usb/gadget/built-in.o
                0x000000000027dfa4                g_dnl_get_board_bcd_device_number
 .text.g_dnl_bind
                0x000000000027dfa8      0x158 drivers/usb/gadget/built-in.o
 .text.g_dnl_board_usb_cable_connected
                0x000000000027e100        0x8 drivers/usb/gadget/built-in.o
                0x000000000027e100                g_dnl_board_usb_cable_connected
 .text.g_dnl_detach
                0x000000000027e108        0xc drivers/usb/gadget/built-in.o
                0x000000000027e108                g_dnl_detach
 .text.g_dnl_trigger_detach
                0x000000000027e114       0x10 drivers/usb/gadget/built-in.o
                0x000000000027e114                g_dnl_trigger_detach
 .text.g_dnl_clear_detach
                0x000000000027e124        0xc drivers/usb/gadget/built-in.o
                0x000000000027e124                g_dnl_clear_detach
 .text.g_dnl_register
                0x000000000027e130       0x4c drivers/usb/gadget/built-in.o
                0x000000000027e130                g_dnl_register
 .text.g_dnl_unregister
                0x000000000027e17c        0xc drivers/usb/gadget/built-in.o
                0x000000000027e17c                g_dnl_unregister
 .text.raise_exception
                0x000000000027e188       0x24 drivers/usb/gadget/built-in.o
 .text.ep0_queue
                0x000000000027e1ac       0x3c drivers/usb/gadget/built-in.o
 .text.bulk_in_complete
                0x000000000027e1e8       0x4c drivers/usb/gadget/built-in.o
 .text.bulk_out_complete
                0x000000000027e234       0x4c drivers/usb/gadget/built-in.o
 .text.fsg_set_alt
                0x000000000027e280       0x28 drivers/usb/gadget/built-in.o
 .text.fsg_disable
                0x000000000027e2a8       0x10 drivers/usb/gadget/built-in.o
 .text.fsg_setup
                0x000000000027e2b8      0x100 drivers/usb/gadget/built-in.o
 .text.sleep_thread
                0x000000000027e3b8      0x108 drivers/usb/gadget/built-in.o
 .text.__do_reset
                0x000000000027e4c0       0x48 drivers/usb/gadget/built-in.o
 .text.fsg_unbind
                0x000000000027e508       0x4c drivers/usb/gadget/built-in.o
 .text.store_cdrom_address
                0x000000000027e554       0x58 drivers/usb/gadget/built-in.o
 .text.fsg_add  0x000000000027e5ac      0x2d0 drivers/usb/gadget/built-in.o
                0x000000000027e5ac                fsg_add
 .text.check_command.constprop.0
                0x000000000027e87c      0x184 drivers/usb/gadget/built-in.o
 .text.start_transfer.constprop.0
                0x000000000027ea00       0x4c drivers/usb/gadget/built-in.o
 .text.send_status
                0x000000000027ea4c       0xf4 drivers/usb/gadget/built-in.o
 .text.do_read  0x000000000027eb40      0x204 drivers/usb/gadget/built-in.o
 .text.fsg_set_halt.constprop.0
                0x000000000027ed44       0x14 drivers/usb/gadget/built-in.o
 .text.halt_bulk_in_endpoint
                0x000000000027ed58       0x48 drivers/usb/gadget/built-in.o
 .text.rkusb_fixup_cbwcb.isra.0
                0x000000000027eda0       0x64 drivers/usb/gadget/built-in.o
 .text.do_mode_sense.isra.0
                0x000000000027ee04      0x188 drivers/usb/gadget/built-in.o
 .text.do_set_interface.isra.0
                0x000000000027ef8c      0x2c8 drivers/usb/gadget/built-in.o
 .text.rkusb_do_check_parity
                0x000000000027f254       0xe4 drivers/usb/gadget/built-in.o
                0x000000000027f254                rkusb_do_check_parity
 .text.do_write
                0x000000000027f338      0x31c drivers/usb/gadget/built-in.o
 .text.fsg_main_thread
                0x000000000027f654     0x1b84 drivers/usb/gadget/built-in.o
                0x000000000027f654                fsg_main_thread
 .text.usb_copy_descriptors
                0x00000000002811d8       0x9c drivers/usb/gadget/built-in.o
                0x00000000002811d8                usb_copy_descriptors
 .text.fsg_bind
                0x0000000000281274      0x1b0 drivers/usb/gadget/built-in.o
 .text.fsg_init
                0x0000000000281424       0x18 drivers/usb/gadget/built-in.o
                0x0000000000281424                fsg_init
 .text.fastboot_start_ep
                0x000000000028143c       0x7c drivers/usb/gadget/built-in.o
 .text.fastboot_unbind
                0x00000000002814b8       0x14 drivers/usb/gadget/built-in.o
 .text.fastboot_add
                0x00000000002814cc       0xc8 drivers/usb/gadget/built-in.o
 .text.fastboot_disable
                0x0000000000281594       0x8c drivers/usb/gadget/built-in.o
 .text.fastboot_complete
                0x0000000000281620       0x2c drivers/usb/gadget/built-in.o
 .text.do_exit_on_complete
                0x000000000028164c        0x4 drivers/usb/gadget/built-in.o
 .text.do_bootm_on_complete
                0x0000000000281650       0x7c drivers/usb/gadget/built-in.o
 .text.compl_do_reset
                0x00000000002816cc       0x14 drivers/usb/gadget/built-in.o
 .text.strcmp_l1
                0x00000000002816e0       0x44 drivers/usb/gadget/built-in.o
 .text.fastboot_bind
                0x0000000000281724      0x128 drivers/usb/gadget/built-in.o
 .text.fb_add_string.part.0
                0x000000000028184c       0x28 drivers/usb/gadget/built-in.o
 .text.fb_add_number.part.0
                0x0000000000281874       0x3c drivers/usb/gadget/built-in.o
 .text.fb_get_fstype.constprop.0
                0x00000000002818b0       0x68 drivers/usb/gadget/built-in.o
 .text.rx_bytes_expected.isra.0
                0x0000000000281918       0x50 drivers/usb/gadget/built-in.o
 .text.fastboot_tx_write.isra.0
                0x0000000000281968       0x98 drivers/usb/gadget/built-in.o
 .text.fastboot_tx_write_str.isra.0
                0x0000000000281a00      0x12c drivers/usb/gadget/built-in.o
 .text.rx_handler_dl_image
                0x0000000000281b2c      0x140 drivers/usb/gadget/built-in.o
 .text.cb_download
                0x0000000000281c6c       0xd8 drivers/usb/gadget/built-in.o
 .text.cb_upload
                0x0000000000281d44       0x80 drivers/usb/gadget/built-in.o
 .text.cb_boot  0x0000000000281dc4       0x24 drivers/usb/gadget/built-in.o
 .text.cb_continue
                0x0000000000281de8       0x24 drivers/usb/gadget/built-in.o
 .text.cb_set_active
                0x0000000000281e0c       0xa4 drivers/usb/gadget/built-in.o
 .text.cb_flashing
                0x0000000000281eb0      0x11c drivers/usb/gadget/built-in.o
 .text.cb_flash
                0x0000000000281fcc       0xf0 drivers/usb/gadget/built-in.o
 .text.cb_erase
                0x00000000002820bc       0x80 drivers/usb/gadget/built-in.o
 .text.cb_oem   0x000000000028213c      0x5d0 drivers/usb/gadget/built-in.o
 .text.rx_handler_command
                0x000000000028270c      0x114 drivers/usb/gadget/built-in.o
 .text.tx_handler_ul
                0x0000000000282820      0x114 drivers/usb/gadget/built-in.o
 .text.fastboot_set_alt
                0x0000000000282934      0x19c drivers/usb/gadget/built-in.o
 .text.fb_read_var
                0x0000000000282ad0      0x688 drivers/usb/gadget/built-in.o
 .text.fb_getvar_single
                0x0000000000283158      0x104 drivers/usb/gadget/built-in.o
 .text.cb_getvar
                0x000000000028325c      0x530 drivers/usb/gadget/built-in.o
 .text.cb_reboot
                0x000000000028378c       0xc4 drivers/usb/gadget/built-in.o
 .text.usb_child_post_bind
                0x0000000000283850       0x9c drivers/usb/host/built-in.o
 .text.remove_inactive_children.constprop.0
                0x00000000002838ec       0x80 drivers/usb/host/built-in.o
 .text.usb_match_one_id
                0x000000000028396c      0x130 drivers/usb/host/built-in.o
 .text.usb_disable_asynch
                0x0000000000283a9c       0x1c drivers/usb/host/built-in.o
                0x0000000000283a9c                usb_disable_asynch
 .text.submit_int_msg
                0x0000000000283ab8       0x40 drivers/usb/host/built-in.o
                0x0000000000283ab8                submit_int_msg
 .text.submit_control_msg
                0x0000000000283af8       0x9c drivers/usb/host/built-in.o
                0x0000000000283af8                submit_control_msg
 .text.submit_bulk_msg
                0x0000000000283b94       0x38 drivers/usb/host/built-in.o
                0x0000000000283b94                submit_bulk_msg
 .text.usb_alloc_device
                0x0000000000283bcc       0x28 drivers/usb/host/built-in.o
                0x0000000000283bcc                usb_alloc_device
 .text.usb_reset_root_port
                0x0000000000283bf4       0x28 drivers/usb/host/built-in.o
                0x0000000000283bf4                usb_reset_root_port
 .text.usb_update_hub_device
                0x0000000000283c1c       0x28 drivers/usb/host/built-in.o
                0x0000000000283c1c                usb_update_hub_device
 .text.usb_get_max_xfer_size
                0x0000000000283c44       0x24 drivers/usb/host/built-in.o
                0x0000000000283c44                usb_get_max_xfer_size
 .text.usb_stop
                0x0000000000283c68       0xb8 drivers/usb/host/built-in.o
                0x0000000000283c68                usb_stop
 .text.usb_get_bus
                0x0000000000283d20       0x3c drivers/usb/host/built-in.o
                0x0000000000283d20                usb_get_bus
 .text.usb_scan_device
                0x0000000000283d5c      0x27c drivers/usb/host/built-in.o
                0x0000000000283d5c                usb_scan_device
 .text.usb_scan_bus.constprop.0
                0x0000000000283fd8       0x80 drivers/usb/host/built-in.o
 .text.usb_init
                0x0000000000284058      0x1a8 drivers/usb/host/built-in.o
                0x0000000000284058                usb_init
 .text.usb_child_pre_probe
                0x0000000000284200       0x84 drivers/usb/host/built-in.o
                0x0000000000284200                usb_child_pre_probe
 .text.ep_rev   0x0000000000284284       0x34 drivers/usb/host/built-in.o
 .text.urb_free_priv
                0x00000000002842b8       0x34 drivers/usb/host/built-in.o
 .text.hc_reset
                0x00000000002842ec       0xf4 drivers/usb/host/built-in.o
 .text.ohci_get_ohci_dev
                0x00000000002843e0       0xac drivers/usb/host/built-in.o
 .text.ohci_destroy_int_queue
                0x000000000028448c       0x54 drivers/usb/host/built-in.o
 .text.td_fill.constprop.0
                0x00000000002844e0      0x104 drivers/usb/host/built-in.o
 .text.hc_interrupt
                0x00000000002845e4      0x5b4 drivers/usb/host/built-in.o
 .text.ohci_poll_int_queue
                0x0000000000284b98       0x60 drivers/usb/host/built-in.o
 .text.sohci_submit_job
                0x0000000000284bf8      0x7ac drivers/usb/host/built-in.o
                0x0000000000284bf8                sohci_submit_job
 .text.ohci_create_int_queue
                0x00000000002853a4      0x154 drivers/usb/host/built-in.o
 .text.submit_common_msg
                0x00000000002854f8      0x1a8 drivers/usb/host/built-in.o
 .text.ohci_submit_int_msg
                0x00000000002856a0       0x5c drivers/usb/host/built-in.o
 .text.ohci_submit_bulk_msg
                0x00000000002856fc       0x50 drivers/usb/host/built-in.o
 .text.ohci_submit_control_msg
                0x000000000028574c      0x55c drivers/usb/host/built-in.o
 .text.ohci_register
                0x0000000000285ca8      0x194 drivers/usb/host/built-in.o
                0x0000000000285ca8                ohci_register
 .text.ohci_deregister
                0x0000000000285e3c       0x40 drivers/usb/host/built-in.o
                0x0000000000285e3c                ohci_deregister
 .text.ohci_shutdown_phy
                0x0000000000285e7c       0x70 drivers/usb/host/built-in.o
 .text.ohci_usb_remove
                0x0000000000285eec       0x64 drivers/usb/host/built-in.o
 .text.ohci_usb_probe
                0x0000000000285f50      0x2dc drivers/usb/host/built-in.o
 .text.ehci_get_port_speed
                0x000000000028622c        0x8 drivers/usb/host/built-in.o
 .text.ehci_set_usbmode
                0x0000000000286234       0x20 drivers/usb/host/built-in.o
 .text.ehci_get_portsc_register
                0x0000000000286254       0x34 drivers/usb/host/built-in.o
 .text.ehci_get_max_xfer_size
                0x0000000000286288       0x10 drivers/usb/host/built-in.o
 .text.ehci_powerup_fixup
                0x0000000000286298       0x30 drivers/usb/host/built-in.o
 .text.handshake
                0x00000000002862c8       0x70 drivers/usb/host/built-in.o
 .text._ehci_poll_int_queue
                0x0000000000286338       0xe0 drivers/usb/host/built-in.o
 .text.ehci_poll_int_queue
                0x0000000000286418        0xc drivers/usb/host/built-in.o
 .text.ehci_update_endpt2_dev_n_port
                0x0000000000286424       0x60 drivers/usb/host/built-in.o
 .text.ehci_td_buffer.constprop.0
                0x0000000000286484       0x94 drivers/usb/host/built-in.o
 .text.disable_periodic.isra.0
                0x0000000000286518       0x54 drivers/usb/host/built-in.o
 .text.enable_periodic.isra.0
                0x000000000028656c       0x5c drivers/usb/host/built-in.o
 .text.ehci_shutdown.isra.0
                0x00000000002865c8       0xec drivers/usb/host/built-in.o
 .text.ehci_get_ctrl.isra.0
                0x00000000002866b4       0x14 drivers/usb/host/built-in.o
 .text._ehci_destroy_int_queue.isra.0
                0x00000000002866c8       0xf8 drivers/usb/host/built-in.o
 .text.ehci_destroy_int_queue
                0x00000000002867c0       0x10 drivers/usb/host/built-in.o
 .text._ehci_create_int_queue.constprop.0
                0x00000000002867d0      0x3a0 drivers/usb/host/built-in.o
 .text.ehci_create_int_queue
                0x0000000000286b70       0x18 drivers/usb/host/built-in.o
 .text.ehci_submit_int_msg
                0x0000000000286b88       0xdc drivers/usb/host/built-in.o
 .text.ehci_submit_async
                0x0000000000286c64      0x594 drivers/usb/host/built-in.o
 .text.ehci_submit_bulk_msg
                0x00000000002871f8       0x2c drivers/usb/host/built-in.o
 .text.ehci_submit_control_msg
                0x0000000000287224      0x584 drivers/usb/host/built-in.o
 .text.ehci_register
                0x00000000002877a8      0x394 drivers/usb/host/built-in.o
                0x00000000002877a8                ehci_register
 .text.ehci_deregister
                0x0000000000287b3c       0x28 drivers/usb/host/built-in.o
                0x0000000000287b3c                ehci_deregister
 .text.ehci_setup_phy
                0x0000000000287b64       0x98 drivers/usb/host/built-in.o
                0x0000000000287b64                ehci_setup_phy
 .text.ehci_shutdown_phy
                0x0000000000287bfc       0x64 drivers/usb/host/built-in.o
                0x0000000000287bfc                ehci_shutdown_phy
 .text.ehci_usb_probe
                0x0000000000287c60      0x304 drivers/usb/host/built-in.o
 .text.ehci_usb_remove
                0x0000000000287f64       0x78 drivers/usb/host/built-in.o
 .text.env_get_yesno
                0x0000000000287fdc       0x4c env/built-in.o
                0x0000000000287fdc                env_get_yesno
 .text.board_env_fixup
                0x0000000000288028        0x4 env/built-in.o
                0x0000000000288028                board_env_fixup
 .text.env_get_default
                0x000000000028802c       0x3c env/built-in.o
                0x000000000028802c                env_get_default
 .text.set_default_env
                0x0000000000288068       0xa8 env/built-in.o
                0x0000000000288068                set_default_env
 .text.set_default_vars
                0x0000000000288110       0x2c env/built-in.o
                0x0000000000288110                set_default_vars
 .text.env_complete
                0x000000000028813c      0x10c env/built-in.o
                0x000000000028813c                env_complete
 .text.env_driver_lookup_default
                0x0000000000288248       0x50 env/built-in.o
                0x0000000000288248                env_driver_lookup_default
 .text.env_get_char
                0x0000000000288298       0x60 env/built-in.o
                0x0000000000288298                env_get_char
 .text.env_save
                0x00000000002882f8       0x38 env/built-in.o
                0x00000000002882f8                env_save
 .text.env_init
                0x0000000000288330       0x50 env/built-in.o
                0x0000000000288330                env_init
 .text.regex_callback
                0x0000000000288380      0x144 env/built-in.o
 .text.env_attr_walk
                0x00000000002884c4      0x134 env/built-in.o
                0x00000000002884c4                env_attr_walk
 .text.env_attr_lookup
                0x00000000002885f8       0x7c env/built-in.o
                0x00000000002885f8                env_attr_lookup
 .text.clear_callback
                0x0000000000288674        0xc env/built-in.o
 .text.find_env_callback
                0x0000000000288680       0x74 env/built-in.o
 .text.on_callbacks
                0x00000000002886f4       0x60 env/built-in.o
 .text.set_callback
                0x0000000000288754       0x90 env/built-in.o
 .text.env_callback_init
                0x00000000002887e4       0xb4 env/built-in.o
                0x00000000002887e4                env_callback_init
 .text.skip_num
                0x0000000000288898       0x68 env/built-in.o
 .text.clear_flags
                0x0000000000288900        0xc env/built-in.o
 .text.on_flags
                0x000000000028890c       0x60 env/built-in.o
 .text.env_flags_parse_vartype
                0x000000000028896c       0x58 env/built-in.o
                0x000000000028896c                env_flags_parse_vartype
 .text.env_flags_parse_varaccess
                0x00000000002889c4       0x5c env/built-in.o
                0x00000000002889c4                env_flags_parse_varaccess
 .text.env_parse_flags_to_bin
                0x0000000000288a20       0x3c env/built-in.o
 .text.set_flags
                0x0000000000288a5c       0x88 env/built-in.o
 .text.eth_validate_ethaddr_str
                0x0000000000288ae4       0x98 env/built-in.o
                0x0000000000288ae4                eth_validate_ethaddr_str
 .text.env_flags_init
                0x0000000000288b7c       0xa0 env/built-in.o
                0x0000000000288b7c                env_flags_init
 .text.env_flags_validate
                0x0000000000288c1c      0x278 env/built-in.o
                0x0000000000288c1c                env_flags_validate
 .text.env_nowhere_init
                0x0000000000288e94       0x18 env/built-in.o
 .text.fs_probe_unsupported
                0x0000000000288eac       0x20 fs/built-in.o
 .text.fs_ls_unsupported
                0x0000000000288ecc        0x8 fs/built-in.o
 .text.fs_exists_unsupported
                0x0000000000288ed4        0x8 fs/built-in.o
 .text.fs_size_unsupported
                0x0000000000288edc        0x8 fs/built-in.o
 .text.fs_read_unsupported
                0x0000000000288ee4        0x8 fs/built-in.o
 .text.fs_close_unsupported
                0x0000000000288eec        0x4 fs/built-in.o
 .text.fs_opendir_unsupported
                0x0000000000288ef0        0x8 fs/built-in.o
 .text.fs_get_info
                0x0000000000288ef8       0x30 fs/built-in.o
 .text.fs_close
                0x0000000000288f28       0x30 fs/built-in.o
 .text.fs_write_unsupported
                0x0000000000288f58        0x8 fs/built-in.o
 .text.fs_uuid_unsupported
                0x0000000000288f60        0x8 fs/built-in.o
 .text.fs_set_blk_dev
                0x0000000000288f68       0xbc fs/built-in.o
                0x0000000000288f68                fs_set_blk_dev
 .text.fs_set_blk_dev_with_part
                0x0000000000289024       0xa4 fs/built-in.o
                0x0000000000289024                fs_set_blk_dev_with_part
 .text.fs_get_fstype
                0x00000000002890c8       0x58 fs/built-in.o
                0x00000000002890c8                fs_get_fstype
 .text.fs_ls    0x0000000000289120       0x44 fs/built-in.o
                0x0000000000289120                fs_ls
 .text.fs_exists
                0x0000000000289164       0x40 fs/built-in.o
                0x0000000000289164                fs_exists
 .text.fs_size  0x00000000002891a4       0x48 fs/built-in.o
                0x00000000002891a4                fs_size
 .text.fs_read  0x00000000002891ec       0x8c fs/built-in.o
                0x00000000002891ec                fs_read
 .text.fs_write
                0x0000000000289278       0x88 fs/built-in.o
                0x0000000000289278                fs_write
 .text.fs_opendir
                0x0000000000289300       0x78 fs/built-in.o
                0x0000000000289300                fs_opendir
 .text.fs_readdir
                0x0000000000289378       0x68 fs/built-in.o
                0x0000000000289378                fs_readdir
 .text.fs_closedir
                0x00000000002893e0       0x48 fs/built-in.o
                0x00000000002893e0                fs_closedir
 .text.fs_ls_generic
                0x0000000000289428       0xc0 fs/built-in.o
 .text.do_size  0x00000000002894e8       0x6c fs/built-in.o
                0x00000000002894e8                do_size
 .text.do_load  0x0000000000289554      0x20c fs/built-in.o
                0x0000000000289554                do_load
 .text.do_ls    0x0000000000289760       0x84 fs/built-in.o
                0x0000000000289760                do_ls
 .text.file_exists
                0x00000000002897e4       0x3c fs/built-in.o
                0x00000000002897e4                file_exists
 .text.do_save  0x0000000000289820      0x14c fs/built-in.o
                0x0000000000289820                do_save
 .text.do_fs_type
                0x000000000028996c       0x8c fs/built-in.o
                0x000000000028996c                do_fs_type
 .text.get_fs   0x00000000002899f8        0xc fs/built-in.o
                0x00000000002899f8                get_fs
 .text.ext4fs_free_node
                0x0000000000289a04       0x24 fs/built-in.o
                0x0000000000289a04                ext4fs_free_node
 .text.ext4fs_read_file
                0x0000000000289a28      0x2c8 fs/built-in.o
                0x0000000000289a28                ext4fs_read_file
 .text.ext4fs_ls
                0x0000000000289cf0       0x90 fs/built-in.o
                0x0000000000289cf0                ext4fs_ls
 .text.ext4fs_exists
                0x0000000000289d80       0x20 fs/built-in.o
                0x0000000000289d80                ext4fs_exists
 .text.ext4fs_size
                0x0000000000289da0        0x4 fs/built-in.o
                0x0000000000289da0                ext4fs_size
 .text.ext4fs_read
                0x0000000000289da4       0x30 fs/built-in.o
                0x0000000000289da4                ext4fs_read
 .text.ext4fs_probe
                0x0000000000289dd4       0x3c fs/built-in.o
                0x0000000000289dd4                ext4fs_probe
 .text.ext4_read_file
                0x0000000000289e10       0x7c fs/built-in.o
                0x0000000000289e10                ext4_read_file
 .text.ext4fs_uuid
                0x0000000000289e8c       0x38 fs/built-in.o
                0x0000000000289e8c                ext4fs_uuid
 .text.ext4fs_bg_get_inode_table_id
                0x0000000000289ec4       0x20 fs/built-in.o
                0x0000000000289ec4                ext4fs_bg_get_inode_table_id
 .text.ext4fs_read_inode
                0x0000000000289ee4      0x108 fs/built-in.o
                0x0000000000289ee4                ext4fs_read_inode
 .text.read_allocated_block
                0x0000000000289fec      0x840 fs/built-in.o
                0x0000000000289fec                read_allocated_block
 .text.ext4fs_reinit_global
                0x000000000028a82c       0x90 fs/built-in.o
                0x000000000028a82c                ext4fs_reinit_global
 .text.ext4fs_close
                0x000000000028a8bc       0x4c fs/built-in.o
                0x000000000028a8bc                ext4fs_close
 .text.ext4fs_iterate_dir
                0x000000000028a908      0x294 fs/built-in.o
                0x000000000028a908                ext4fs_iterate_dir
 .text.ext4fs_find_file1
                0x000000000028ab9c      0x294 fs/built-in.o
 .text.ext4fs_find_file
                0x000000000028ae30       0x74 fs/built-in.o
                0x000000000028ae30                ext4fs_find_file
 .text.ext4fs_open
                0x000000000028aea4       0xa0 fs/built-in.o
                0x000000000028aea4                ext4fs_open
 .text.ext4fs_mount
                0x000000000028af44       0xec fs/built-in.o
                0x000000000028af44                ext4fs_mount
 .text.ext4fs_set_blk_dev
                0x000000000028b030       0x5c fs/built-in.o
                0x000000000028b030                ext4fs_set_blk_dev
 .text.ext4fs_devread
                0x000000000028b08c       0x50 fs/built-in.o
                0x000000000028b08c                ext4fs_devread
 .text.ext4_read_superblock
                0x000000000028b0dc       0x48 fs/built-in.o
                0x000000000028b0dc                ext4_read_superblock
 .text.downcase
                0x000000000028b124       0x3c fs/built-in.o
 .text.mkcksum  0x000000000028b160       0x54 fs/built-in.o
 .text.check_overflow
                0x000000000028b1b4       0x44 fs/built-in.o
 .text.disk_read
                0x000000000028b1f8       0x64 fs/built-in.o
 .text.get_name
                0x000000000028b25c       0xf4 fs/built-in.o
 .text.get_cluster
                0x000000000028b350      0x17c fs/built-in.o
 .text.read_bootsectandvi
                0x000000000028b4cc      0x134 fs/built-in.o
 .text.fat_itr_root
                0x000000000028b600      0x148 fs/built-in.o
 .text.disk_write
                0x000000000028b748       0x84 fs/built-in.o
 .text.flush_dirty_fat_buffer
                0x000000000028b7cc       0xb0 fs/built-in.o
 .text.get_fatent
                0x000000000028b87c      0x190 fs/built-in.o
 .text.next_dent
                0x000000000028ba0c      0x134 fs/built-in.o
 .text.find_empty_cluster
                0x000000000028bb40       0x3c fs/built-in.o
 .text.set_cluster
                0x000000000028bb7c      0x180 fs/built-in.o
 .text.set_name
                0x000000000028bcfc      0x170 fs/built-in.o
 .text.slot2str
                0x000000000028be6c       0xb0 fs/built-in.o
 .text.fat_itr_next
                0x000000000028bf1c      0x134 fs/built-in.o
 .text.set_fatent_value.isra.0
                0x000000000028c050      0x1d8 fs/built-in.o
 .text.flush_dir_table.constprop.0
                0x000000000028c228       0xf4 fs/built-in.o
 .text.fat_itr_resolve
                0x000000000028c31c      0x154 fs/built-in.o
 .text.do_fat_write
                0x000000000028c470      0xbd8 fs/built-in.o
 .text.fat_set_blk_dev
                0x000000000028d048       0xcc fs/built-in.o
                0x000000000028d048                fat_set_blk_dev
 .text.file_fat_detectfs
                0x000000000028d114      0x140 fs/built-in.o
                0x000000000028d114                file_fat_detectfs
 .text.fat_exists
                0x000000000028d254       0x80 fs/built-in.o
                0x000000000028d254                fat_exists
 .text.fat_size
                0x000000000028d2d4       0xc4 fs/built-in.o
                0x000000000028d2d4                fat_size
 .text.file_fat_read_at
                0x000000000028d398      0x344 fs/built-in.o
                0x000000000028d398                file_fat_read_at
 .text.fat_read_file
                0x000000000028d6dc       0x48 fs/built-in.o
                0x000000000028d6dc                fat_read_file
 .text.fat_opendir
                0x000000000028d724       0x9c fs/built-in.o
                0x000000000028d724                fat_opendir
 .text.fat_readdir
                0x000000000028d7c0       0x90 fs/built-in.o
                0x000000000028d7c0                fat_readdir
 .text.fat_closedir
                0x000000000028d850       0x28 fs/built-in.o
                0x000000000028d850                fat_closedir
 .text.fat_close
                0x000000000028d878        0x4 fs/built-in.o
                0x000000000028d878                fat_close
 .text.file_fat_write
                0x000000000028d87c       0x74 fs/built-in.o
                0x000000000028d87c                file_fat_write
 .text.fs_devread
                0x000000000028d8f0      0x24c fs/built-in.o
                0x000000000028d8f0                fs_devread
 .text          0x000000000028db3c       0x2c lib/built-in.o
                0x000000000028db3c                tee_smc_call
 .text.fdt_check_header
                0x000000000028db68       0x74 lib/built-in.o
                0x000000000028db68                fdt_check_header
 .text.fdt_offset_ptr
                0x000000000028dbdc       0x68 lib/built-in.o
                0x000000000028dbdc                fdt_offset_ptr
 .text.fdt_next_tag
                0x000000000028dc44       0xdc lib/built-in.o
                0x000000000028dc44                fdt_next_tag
 .text._fdt_check_node_offset
                0x000000000028dd20       0x40 lib/built-in.o
                0x000000000028dd20                _fdt_check_node_offset
 .text._fdt_check_prop_offset
                0x000000000028dd60       0x40 lib/built-in.o
                0x000000000028dd60                _fdt_check_prop_offset
 .text.fdt_next_node
                0x000000000028dda0       0xb0 lib/built-in.o
                0x000000000028dda0                fdt_next_node
 .text.fdt_first_subnode
                0x000000000028de50       0x34 lib/built-in.o
                0x000000000028de50                fdt_first_subnode
 .text.fdt_next_subnode
                0x000000000028de84       0x50 lib/built-in.o
                0x000000000028de84                fdt_next_subnode
 .text._fdt_find_string
                0x000000000028ded4       0x70 lib/built-in.o
                0x000000000028ded4                _fdt_find_string
 .text.fdt_move
                0x000000000028df44       0x5c lib/built-in.o
                0x000000000028df44                fdt_move
 .text.fdt_setprop_inplace_namelen_partial
                0x000000000028dfa0       0x68 lib/built-in.o
                0x000000000028dfa0                fdt_setprop_inplace_namelen_partial
 .text.fdt_setprop_inplace
                0x000000000028e008       0x8c lib/built-in.o
                0x000000000028e008                fdt_setprop_inplace
 .text._fdt_node_end_offset
                0x000000000028e094       0x48 lib/built-in.o
                0x000000000028e094                _fdt_node_end_offset
 .text.fdt_strerror
                0x000000000028e0dc       0x4c lib/built-in.o
                0x000000000028e0dc                fdt_strerror
 .text._fdt_blocks_misordered
                0x000000000028e128       0x60 lib/built-in.o
 .text._fdt_splice
                0x000000000028e188       0x94 lib/built-in.o
 .text._fdt_splice_mem_rsv
                0x000000000028e21c       0x60 lib/built-in.o
 .text._fdt_splice_struct
                0x000000000028e27c       0x60 lib/built-in.o
 .text._fdt_packblocks
                0x000000000028e2dc       0xb0 lib/built-in.o
 .text._fdt_add_property
                0x000000000028e38c      0x148 lib/built-in.o
 .text._fdt_rw_check_header
                0x000000000028e4d4       0x6c lib/built-in.o
 .text.fdt_add_mem_rsv
                0x000000000028e540       0x7c lib/built-in.o
                0x000000000028e540                fdt_add_mem_rsv
 .text.fdt_del_mem_rsv
                0x000000000028e5bc       0x70 lib/built-in.o
                0x000000000028e5bc                fdt_del_mem_rsv
 .text.fdt_setprop_placeholder
                0x000000000028e62c       0xd8 lib/built-in.o
                0x000000000028e62c                fdt_setprop_placeholder
 .text.fdt_setprop
                0x000000000028e704       0x54 lib/built-in.o
                0x000000000028e704                fdt_setprop
 .text.fdt_delprop
                0x000000000028e758       0x6c lib/built-in.o
                0x000000000028e758                fdt_delprop
 .text.fdt_add_subnode_namelen
                0x000000000028e7c4      0x114 lib/built-in.o
                0x000000000028e7c4                fdt_add_subnode_namelen
 .text.fdt_add_subnode
                0x000000000028e8d8       0x44 lib/built-in.o
                0x000000000028e8d8                fdt_add_subnode
 .text.fdt_del_node
                0x000000000028e91c       0x60 lib/built-in.o
                0x000000000028e91c                fdt_del_node
 .text.fdt_open_into
                0x000000000028e97c      0x19c lib/built-in.o
                0x000000000028e97c                fdt_open_into
 .text.fdt_pack
                0x000000000028eb18       0x6c lib/built-in.o
                0x000000000028eb18                fdt_pack
 .text.fdt_address_cells
                0x000000000028eb84       0x58 lib/built-in.o
                0x000000000028eb84                fdt_address_cells
 .text.fdt_size_cells
                0x000000000028ebdc       0x54 lib/built-in.o
                0x000000000028ebdc                fdt_size_cells
 .text.overlay_phandle_add_offset
                0x000000000028ec30       0x94 lib/built-in.o
 .text.overlay_adjust_node_phandles
                0x000000000028ecc4       0xa8 lib/built-in.o
 .text.overlay_update_local_node_references
                0x000000000028ed6c      0x1ac lib/built-in.o
 .text.overlay_get_target
                0x000000000028ef18       0xdc lib/built-in.o
 .text.overlay_apply_node
                0x000000000028eff4      0x12c lib/built-in.o
 .text.fdt_overlay_apply
                0x000000000028f120      0x680 lib/built-in.o
                0x000000000028f120                fdt_overlay_apply
 .text.fdt_path_next_separator
                0x000000000028f7a0       0x68 lib/built-in.o
 .text._nextprop
                0x000000000028f808       0x64 lib/built-in.o
 .text.fdt_string
                0x000000000028f86c       0x14 lib/built-in.o
                0x000000000028f86c                fdt_string
 .text.fdt_get_mem_rsv
                0x000000000028f880       0x60 lib/built-in.o
                0x000000000028f880                fdt_get_mem_rsv
 .text.fdt_num_mem_rsv
                0x000000000028f8e0       0x28 lib/built-in.o
                0x000000000028f8e0                fdt_num_mem_rsv
 .text.fdt_subnode_offset_namelen
                0x000000000028f908       0xe0 lib/built-in.o
                0x000000000028f908                fdt_subnode_offset_namelen
 .text.fdt_subnode_offset
                0x000000000028f9e8       0x44 lib/built-in.o
                0x000000000028f9e8                fdt_subnode_offset
 .text.fdt_get_name
                0x000000000028fa2c       0x84 lib/built-in.o
                0x000000000028fa2c                fdt_get_name
 .text.fdt_first_property_offset
                0x000000000028fab0       0x38 lib/built-in.o
                0x000000000028fab0                fdt_first_property_offset
 .text.fdt_next_property_offset
                0x000000000028fae8       0x38 lib/built-in.o
                0x000000000028fae8                fdt_next_property_offset
 .text.fdt_get_property_by_offset
                0x000000000028fb20       0x64 lib/built-in.o
                0x000000000028fb20                fdt_get_property_by_offset
 .text.fdt_get_property_namelen
                0x000000000028fb84       0xd4 lib/built-in.o
                0x000000000028fb84                fdt_get_property_namelen
 .text.fdt_get_property
                0x000000000028fc58       0x4c lib/built-in.o
                0x000000000028fc58                fdt_get_property
 .text.fdt_getprop_namelen
                0x000000000028fca4       0x1c lib/built-in.o
                0x000000000028fca4                fdt_getprop_namelen
 .text.fdt_getprop_by_offset
                0x000000000028fcc0       0x50 lib/built-in.o
                0x000000000028fcc0                fdt_getprop_by_offset
 .text.fdt_getprop
                0x000000000028fd10       0x4c lib/built-in.o
                0x000000000028fd10                fdt_getprop
 .text.fdt_get_phandle
                0x000000000028fd5c       0x78 lib/built-in.o
                0x000000000028fd5c                fdt_get_phandle
 .text.fdt_get_max_phandle
                0x000000000028fdd4       0x80 lib/built-in.o
                0x000000000028fdd4                fdt_get_max_phandle
 .text.fdt_get_alias_namelen
                0x000000000028fe54       0x64 lib/built-in.o
                0x000000000028fe54                fdt_get_alias_namelen
 .text.fdt_path_offset_namelen
                0x000000000028feb8       0xfc lib/built-in.o
                0x000000000028feb8                fdt_path_offset_namelen
 .text.fdt_path_offset
                0x000000000028ffb4       0x34 lib/built-in.o
                0x000000000028ffb4                fdt_path_offset
 .text.fdt_get_alias
                0x000000000028ffe8       0x34 lib/built-in.o
                0x000000000028ffe8                fdt_get_alias
 .text.fdt_get_path
                0x000000000029001c      0x17c lib/built-in.o
                0x000000000029001c                fdt_get_path
 .text.fdt_supernode_atdepth_offset
                0x0000000000290198       0xb8 lib/built-in.o
                0x0000000000290198                fdt_supernode_atdepth_offset
 .text.fdt_node_depth
                0x0000000000290250       0x30 lib/built-in.o
                0x0000000000290250                fdt_node_depth
 .text.fdt_parent_offset
                0x0000000000290280       0x44 lib/built-in.o
                0x0000000000290280                fdt_parent_offset
 .text.fdt_node_offset_by_phandle
                0x00000000002902c4       0x84 lib/built-in.o
                0x00000000002902c4                fdt_node_offset_by_phandle
 .text.fdt_stringlist_contains
                0x0000000000290348       0x98 lib/built-in.o
                0x0000000000290348                fdt_stringlist_contains
 .text.fdt_stringlist_count
                0x00000000002903e0       0x7c lib/built-in.o
                0x00000000002903e0                fdt_stringlist_count
 .text.fdt_stringlist_search
                0x000000000029045c       0xc4 lib/built-in.o
                0x000000000029045c                fdt_stringlist_search
 .text.fdt_stringlist_get
                0x0000000000290520       0xb4 lib/built-in.o
                0x0000000000290520                fdt_stringlist_get
 .text.fdt_node_check_compatible
                0x00000000002905d4       0x4c lib/built-in.o
                0x00000000002905d4                fdt_node_check_compatible
 .text.fdt_node_offset_by_compatible
                0x0000000000290620       0x84 lib/built-in.o
                0x0000000000290620                fdt_node_offset_by_compatible
 .text.unflatten_dt_node
                0x00000000002906a4      0x40c lib/built-in.o
 .text.of_live_build
                0x0000000000290ab0       0xec lib/built-in.o
                0x0000000000290ab0                of_live_build
 .text.utf16_strnlen
                0x0000000000290b9c       0x24 lib/built-in.o
                0x0000000000290b9c                utf16_strnlen
 .text.utf16_to_utf8
                0x0000000000290bc0      0x124 lib/built-in.o
                0x0000000000290bc0                utf16_to_utf8
 .text.fdtdec_get_int
                0x0000000000290ce4       0x40 lib/built-in.o
                0x0000000000290ce4                fdtdec_get_int
 .text.initcall_run_list
                0x0000000000290d24       0x94 lib/built-in.o
                0x0000000000290d24                initcall_run_list
 .text.lmb_add_region
                0x0000000000290db8      0x168 lib/built-in.o
 .text.lmb_init
                0x0000000000290f20       0x18 lib/built-in.o
                0x0000000000290f20                lmb_init
 .text.lmb_add  0x0000000000290f38        0x4 lib/built-in.o
                0x0000000000290f38                lmb_add
 .text.lmb_free
                0x0000000000290f3c       0xd4 lib/built-in.o
                0x0000000000290f3c                lmb_free
 .text.lmb_reserve
                0x0000000000291010        0x8 lib/built-in.o
                0x0000000000291010                lmb_reserve
 .text.__lmb_alloc_base
                0x0000000000291018      0x104 lib/built-in.o
                0x0000000000291018                __lmb_alloc_base
 .text.lmb_alloc_base
                0x000000000029111c       0x4c lib/built-in.o
                0x000000000029111c                lmb_alloc_base
 .text.lmb_alloc
                0x0000000000291168        0x8 lib/built-in.o
                0x0000000000291168                lmb_alloc
 .text.sysmem_has_init
                0x0000000000291170       0x20 lib/built-in.o
                0x0000000000291170                sysmem_has_init
 .text.sysmem_alloc_align_base
                0x0000000000291190      0x4b4 lib/built-in.o
 .text.sysmem_dump
                0x0000000000291644      0x2c0 lib/built-in.o
                0x0000000000291644                sysmem_dump
 .text.do_sysmem_dump
                0x0000000000291904       0x18 lib/built-in.o
 .text.sysmem_overflow_check
                0x000000000029191c      0x1f4 lib/built-in.o
                0x000000000029191c                sysmem_overflow_check
 .text.sysmem_alloc
                0x0000000000291b10       0x3c lib/built-in.o
                0x0000000000291b10                sysmem_alloc
 .text.sysmem_alloc_by_name
                0x0000000000291b4c       0x40 lib/built-in.o
                0x0000000000291b4c                sysmem_alloc_by_name
 .text.sysmem_alloc_base
                0x0000000000291b8c       0x3c lib/built-in.o
                0x0000000000291b8c                sysmem_alloc_base
 .text.sysmem_alloc_base_by_name
                0x0000000000291bc8       0x40 lib/built-in.o
                0x0000000000291bc8                sysmem_alloc_base_by_name
 .text.sysmem_fdt_reserve_alloc_base
                0x0000000000291c08       0x40 lib/built-in.o
                0x0000000000291c08                sysmem_fdt_reserve_alloc_base
 .text.sysmem_alloc_temporary_mem
                0x0000000000291c48       0x90 lib/built-in.o
                0x0000000000291c48                sysmem_alloc_temporary_mem
 .text.do_sysmem_search
                0x0000000000291cd8       0x88 lib/built-in.o
 .text.sysmem_free
                0x0000000000291d60       0xf0 lib/built-in.o
                0x0000000000291d60                sysmem_free
 .text.sysmem_init
                0x0000000000291e50      0x198 lib/built-in.o
                0x0000000000291e50                sysmem_init
 .text.sysmem_initr
                0x0000000000291fe8        0x4 lib/built-in.o
                0x0000000000291fe8                sysmem_initr
 .text.bidram_has_init
                0x0000000000291fec       0x34 lib/built-in.o
 .text.bidram_core_reserve
                0x0000000000292020      0x1f8 lib/built-in.o
 .text.bidram_dump
                0x0000000000292218      0x1c4 lib/built-in.o
                0x0000000000292218                bidram_dump
 .text.do_bidram_dump
                0x00000000002923dc       0x18 lib/built-in.o
 .text.bidram_gen_gd_bi_dram
                0x00000000002923f4      0x208 lib/built-in.o
                0x00000000002923f4                bidram_gen_gd_bi_dram
 .text.bidram_fixup
                0x00000000002925fc       0x24 lib/built-in.o
                0x00000000002925fc                bidram_fixup
 .text.bidram_append_size
                0x0000000000292620       0x3c lib/built-in.o
                0x0000000000292620                bidram_append_size
 .text.bidram_reserved_is_overlap
                0x000000000029265c       0x70 lib/built-in.o
                0x000000000029265c                bidram_reserved_is_overlap
 .text.bidram_reserve
                0x00000000002926cc       0x40 lib/built-in.o
                0x00000000002926cc                bidram_reserve
 .text.bidram_reserve_by_name
                0x000000000029270c       0x44 lib/built-in.o
                0x000000000029270c                bidram_reserve_by_name
 .text.bidram_get_ram_size
                0x0000000000292750      0x26c lib/built-in.o
                0x0000000000292750                bidram_get_ram_size
 .text.bidram_initr
                0x00000000002929bc       0x1c lib/built-in.o
                0x00000000002929bc                bidram_initr
 .text.LZ4_copy8
                0x00000000002929d8       0x7c lib/built-in.o
 .text.lz4_is_valid_header
                0x0000000000292a54       0x64 lib/built-in.o
                0x0000000000292a54                lz4_is_valid_header
 .text.ulz4fn   0x0000000000292ab8      0x424 lib/built-in.o
                0x0000000000292ab8                ulz4fn
 .text.string_to_ip
                0x0000000000292edc       0xa0 lib/built-in.o
                0x0000000000292edc                string_to_ip
 .text.qsort    0x0000000000292f7c       0xf8 lib/built-in.o
                0x0000000000292f7c                qsort
 .text.strcmp_compar
                0x0000000000293074        0xc lib/built-in.o
                0x0000000000293074                strcmp_compar
 .text.sha256_starts
                0x0000000000293080       0x68 lib/built-in.o
                0x0000000000293080                sha256_starts
 .text.sha256_process
                0x00000000002930e8     0x206c lib/built-in.o
                0x00000000002930e8                sha256_process
 .text.sha256_update.part.0
                0x0000000000295154       0xe4 lib/built-in.o
 .text.sha256_update
                0x0000000000295238        0xc lib/built-in.o
                0x0000000000295238                sha256_update
 .text.sha256_finish
                0x0000000000295244      0x1bc lib/built-in.o
                0x0000000000295244                sha256_finish
 .text.my_malloc_init
                0x0000000000295400       0xbc lib/built-in.o
                0x0000000000295400                my_malloc_init
 .text.write_usedblock
                0x00000000002954bc       0x48 lib/built-in.o
                0x00000000002954bc                write_usedblock
 .text.find_sizeblock
                0x0000000000295504       0x4c lib/built-in.o
                0x0000000000295504                find_sizeblock
 .text.free_usedblock
                0x0000000000295550       0x54 lib/built-in.o
                0x0000000000295550                free_usedblock
 .text.my_malloc
                0x00000000002955a4      0x11c lib/built-in.o
                0x00000000002955a4                my_malloc
 .text.my_free  0x00000000002956c0       0xa4 lib/built-in.o
                0x00000000002956c0                my_free
 .text.OpteeClientMemInit
                0x0000000000295764       0x34 lib/built-in.o
                0x0000000000295764                OpteeClientMemInit
 .text.OpteeClientMemAlloc
                0x0000000000295798        0x4 lib/built-in.o
                0x0000000000295798                OpteeClientMemAlloc
 .text.OpteeClientMemFree
                0x000000000029579c        0x4 lib/built-in.o
                0x000000000029579c                OpteeClientMemFree
 .text.optee_exchange_capabilities
                0x00000000002957a0       0x54 lib/built-in.o
 .text.OpteeClientApiLibInitialize
                0x00000000002957f4       0xb8 lib/built-in.o
                0x00000000002957f4                OpteeClientApiLibInitialize
 .text.TEEC_InitializeContext
                0x00000000002958ac       0x90 lib/built-in.o
                0x00000000002958ac                TEEC_InitializeContext
 .text.TEEC_FinalizeContext
                0x000000000029593c       0x6c lib/built-in.o
                0x000000000029593c                TEEC_FinalizeContext
 .text.TEEC_AllocateSharedMemory
                0x00000000002959a8       0x60 lib/built-in.o
                0x00000000002959a8                TEEC_AllocateSharedMemory
 .text.TEEC_ReleaseSharedMemory
                0x0000000000295a08       0x40 lib/built-in.o
                0x0000000000295a08                TEEC_ReleaseSharedMemory
 .text.TEEC_OpenSession
                0x0000000000295a48       0xb4 lib/built-in.o
                0x0000000000295a48                TEEC_OpenSession
 .text.TEEC_CloseSession
                0x0000000000295afc       0x24 lib/built-in.o
                0x0000000000295afc                TEEC_CloseSession
 .text.TEEC_InvokeCommand
                0x0000000000295b20       0x7c lib/built-in.o
                0x0000000000295b20                TEEC_InvokeCommand
 .text.trusty_base_read_security_data
                0x0000000000295b9c      0x1ac lib/built-in.o
 .text.trusty_base_write_security_data
                0x0000000000295d48      0x1ac lib/built-in.o
 .text.trusty_base_efuse_or_otp_operation
                0x0000000000295ef4      0x140 lib/built-in.o
 .text.trusty_base_end_security_data
                0x0000000000296034       0xbc lib/built-in.o
 .text.trusty_base_end_efuse_or_otp
                0x00000000002960f0       0xc0 lib/built-in.o
 .text.b2hs.constprop.0.isra.0
                0x00000000002961b0       0x54 lib/built-in.o
 .text.trusty_read_rollback_index
                0x0000000000296204       0x38 lib/built-in.o
                0x0000000000296204                trusty_read_rollback_index
 .text.trusty_write_rollback_index
                0x000000000029623c       0x38 lib/built-in.o
                0x000000000029623c                trusty_write_rollback_index
 .text.trusty_read_permanent_attributes
                0x0000000000296274       0x18 lib/built-in.o
                0x0000000000296274                trusty_read_permanent_attributes
 .text.trusty_write_permanent_attributes
                0x000000000029628c       0x18 lib/built-in.o
                0x000000000029628c                trusty_write_permanent_attributes
 .text.trusty_read_permanent_attributes_flag
                0x00000000002962a4       0x18 lib/built-in.o
                0x00000000002962a4                trusty_read_permanent_attributes_flag
 .text.trusty_write_permanent_attributes_flag
                0x00000000002962bc       0x2c lib/built-in.o
                0x00000000002962bc                trusty_write_permanent_attributes_flag
 .text.trusty_read_permanent_attributes_cer
                0x00000000002962e8       0x18 lib/built-in.o
                0x00000000002962e8                trusty_read_permanent_attributes_cer
 .text.trusty_write_permanent_attributes_cer
                0x0000000000296300       0x18 lib/built-in.o
                0x0000000000296300                trusty_write_permanent_attributes_cer
 .text.trusty_read_lock_state
                0x0000000000296318       0x18 lib/built-in.o
                0x0000000000296318                trusty_read_lock_state
 .text.trusty_write_lock_state
                0x0000000000296330       0x2c lib/built-in.o
                0x0000000000296330                trusty_write_lock_state
 .text.trusty_read_flash_lock_state
                0x000000000029635c       0x18 lib/built-in.o
                0x000000000029635c                trusty_read_flash_lock_state
 .text.trusty_write_flash_lock_state
                0x0000000000296374       0x2c lib/built-in.o
                0x0000000000296374                trusty_write_flash_lock_state
 .text.trusty_read_attribute_hash
                0x00000000002963a0       0x14 lib/built-in.o
                0x00000000002963a0                trusty_read_attribute_hash
 .text.trusty_write_attribute_hash
                0x00000000002963b4       0x14 lib/built-in.o
                0x00000000002963b4                trusty_write_attribute_hash
 .text.trusty_notify_optee_uboot_end
                0x00000000002963c8       0x28 lib/built-in.o
                0x00000000002963c8                trusty_notify_optee_uboot_end
 .text.trusty_write_vbootkey_hash
                0x00000000002963f0       0x14 lib/built-in.o
                0x00000000002963f0                trusty_write_vbootkey_hash
 .text.trusty_read_vbootkey_enable_flag
                0x0000000000296404       0x4c lib/built-in.o
                0x0000000000296404                trusty_read_vbootkey_enable_flag
 .text.trusty_write_ta_encryption_key
                0x0000000000296450       0x14 lib/built-in.o
                0x0000000000296450                trusty_write_ta_encryption_key
 .text.trusty_write_oem_huk
                0x0000000000296464       0x14 lib/built-in.o
                0x0000000000296464                trusty_write_oem_huk
 .text.trusty_select_security_level
                0x0000000000296478        0x4 lib/built-in.o
                0x0000000000296478                trusty_select_security_level
 .text.trusty_attest_dh
                0x000000000029647c      0x168 lib/built-in.o
                0x000000000029647c                trusty_attest_dh
 .text.trusty_attest_uuid
                0x00000000002965e4      0x168 lib/built-in.o
                0x00000000002965e4                trusty_attest_uuid
 .text.trusty_attest_get_ca
                0x000000000029674c      0x1c0 lib/built-in.o
                0x000000000029674c                trusty_attest_get_ca
 .text.trusty_attest_set_ca
                0x000000000029690c      0x15c lib/built-in.o
                0x000000000029690c                trusty_attest_set_ca
 .text.SetTeeSmc32Params
                0x0000000000296a68       0x64 lib/built-in.o
 .text.OpteeSmcCall
                0x0000000000296acc       0x58 lib/built-in.o
 .text.tee_uuid_to_octets
                0x0000000000296b24       0x54 lib/built-in.o
                0x0000000000296b24                tee_uuid_to_octets
 .text.TEEC_SMC_OpenSession
                0x0000000000296b78      0x164 lib/built-in.o
                0x0000000000296b78                TEEC_SMC_OpenSession
 .text.TEEC_SMC_CloseSession
                0x0000000000296cdc       0x8c lib/built-in.o
                0x0000000000296cdc                TEEC_SMC_CloseSession
 .text.TEEC_SMC_InvokeCommand
                0x0000000000296d68       0xdc lib/built-in.o
                0x0000000000296d68                TEEC_SMC_InvokeCommand
 .text.OpteeRpcAlloc
                0x0000000000296e44       0x44 lib/built-in.o
                0x0000000000296e44                OpteeRpcAlloc
 .text.OpteeRpcCmdLoadV2Ta
                0x0000000000296e88       0x58 lib/built-in.o
                0x0000000000296e88                OpteeRpcCmdLoadV2Ta
 .text.OpteeRpcCmdRpmb
                0x0000000000296ee0      0x388 lib/built-in.o
                0x0000000000296ee0                OpteeRpcCmdRpmb
 .text.OpteeRpcCmdFs
                0x0000000000297268       0x2c lib/built-in.o
                0x0000000000297268                OpteeRpcCmdFs
 .text.OpteeRpcCallback
                0x0000000000297294      0x180 lib/built-in.o
                0x0000000000297294                OpteeRpcCallback
 .text.get_rkss_version.part.0
                0x0000000000297414      0x108 lib/built-in.o
 .text.OpteeClientRkFsInit
                0x000000000029751c       0x64 lib/built-in.o
                0x000000000029751c                OpteeClientRkFsInit
 .text.OpteeClientRkFsProcess
                0x0000000000297580       0x6c lib/built-in.o
                0x0000000000297580                OpteeClientRkFsProcess
 .text.check_security_exist
                0x00000000002975ec       0x84 lib/built-in.o
 .text.rkss_read_patition_tables
                0x0000000000297670       0xa8 lib/built-in.o
 .text.rkss_get_fileinfo_by_name
                0x0000000000297718      0x38c lib/built-in.o
 .text.rkss_read_multi_sections
                0x0000000000297aa4      0x16c lib/built-in.o
 .text.rkss_get_fileinfo_by_index
                0x0000000000297c10      0x15c lib/built-in.o
 .text.rkss_write_multi_sections
                0x0000000000297d6c      0x2d0 lib/built-in.o
 .text.rkss_decref_multi_usedflags_sections
                0x000000000029803c      0x28c lib/built-in.o
 .text.rkss_write_back_ptable
                0x00000000002982c8      0x160 lib/built-in.o
 .text.rkss_begin_commit
                0x0000000000298428       0xbc lib/built-in.o
 .text.rkss_finish_commit
                0x00000000002984e4       0x98 lib/built-in.o
 .text.ree_fs_new_create.constprop.0
                0x000000000029857c      0x24c lib/built-in.o
 .text.tee_supp_rk_fs_init_v1
                0x00000000002987c8      0x42c lib/built-in.o
                0x00000000002987c8                tee_supp_rk_fs_init_v1
 .text.tee_supp_rk_fs_process_v1
                0x0000000000298bf4      0x960 lib/built-in.o
                0x0000000000298bf4                tee_supp_rk_fs_process_v1
 .text.tee_supp_rk_fs_init_v2
                0x0000000000299554      0x374 lib/built-in.o
                0x0000000000299554                tee_supp_rk_fs_init_v2
 .text.tee_supp_rk_fs_process_v2
                0x00000000002998c8      0xd94 lib/built-in.o
                0x00000000002998c8                tee_supp_rk_fs_process_v2
 .text.addBootConfigTrailer
                0x000000000029a65c       0xbc lib/built-in.o
                0x000000000029a65c                addBootConfigTrailer
 .text.addBootConfigParameters
                0x000000000029a718       0xc0 lib/built-in.o
                0x000000000029a718                addBootConfigParameters
 .text.avb_chain_partition_descriptor_validate_and_byteswap
                0x000000000029a7d8      0x2c0 lib/built-in.o
                0x000000000029a7d8                avb_chain_partition_descriptor_validate_and_byteswap
 .text.uint64_to_base10
                0x000000000029aa98       0x78 lib/built-in.o
 .text.cmdline_append_option
                0x000000000029ab10       0xf4 lib/built-in.o
 .text.avb_sub_cmdline
                0x000000000029ac04      0x240 lib/built-in.o
                0x000000000029ac04                avb_sub_cmdline
 .text.avb_append_options
                0x000000000029ae44      0x3d0 lib/built-in.o
                0x000000000029ae44                avb_append_options
 .text.avb_new_cmdline_subst_list
                0x000000000029b214        0x8 lib/built-in.o
                0x000000000029b214                avb_new_cmdline_subst_list
 .text.avb_free_cmdline_subst_list
                0x000000000029b21c       0x5c lib/built-in.o
                0x000000000029b21c                avb_free_cmdline_subst_list
 .text.avb_add_root_digest_substitution
                0x000000000029b278       0xcc lib/built-in.o
                0x000000000029b278                avb_add_root_digest_substitution
 .text.avb_get_algorithm_data
                0x000000000029b344       0x20 lib/built-in.o
                0x000000000029b344                avb_get_algorithm_data
 .text.avb_rsa_public_key_header_validate_and_byteswap
                0x000000000029b364       0xa8 lib/built-in.o
                0x000000000029b364                avb_rsa_public_key_header_validate_and_byteswap
 .text.count_descriptors
                0x000000000029b40c       0x14 lib/built-in.o
 .text.set_descriptors
                0x000000000029b420       0x18 lib/built-in.o
 .text.avb_descriptor_validate_and_byteswap
                0x000000000029b438      0x160 lib/built-in.o
                0x000000000029b438                avb_descriptor_validate_and_byteswap
 .text.avb_descriptor_foreach
                0x000000000029b598      0x3c8 lib/built-in.o
                0x000000000029b598                avb_descriptor_foreach
 .text.avb_descriptor_get_all
                0x000000000029b960       0x84 lib/built-in.o
                0x000000000029b960                avb_descriptor_get_all
 .text.avb_footer_validate_and_byteswap
                0x000000000029b9e4      0x2c0 lib/built-in.o
                0x000000000029b9e4                avb_footer_validate_and_byteswap
 .text.avb_hash_descriptor_validate_and_byteswap
                0x000000000029bca4      0x358 lib/built-in.o
                0x000000000029bca4                avb_hash_descriptor_validate_and_byteswap
 .text.avb_hashtree_descriptor_validate_and_byteswap
                0x000000000029bffc      0x638 lib/built-in.o
                0x000000000029bffc                avb_hashtree_descriptor_validate_and_byteswap
 .text.avb_kernel_cmdline_descriptor_validate_and_byteswap
                0x000000000029c634      0x204 lib/built-in.o
                0x000000000029c634                avb_kernel_cmdline_descriptor_validate_and_byteswap
 .text.subM     0x000000000029c838       0x3c lib/built-in.o
 .text.montMul  0x000000000029c874       0xe4 lib/built-in.o
 .text.avb_rsa_verify
                0x000000000029c958      0x568 lib/built-in.o
                0x000000000029c958                avb_rsa_verify
 .text.avb_sha256_init
                0x000000000029cec0       0x8c lib/built-in.o
                0x000000000029cec0                avb_sha256_init
 .text.avb_sha256_update
                0x000000000029cf4c       0x10 lib/built-in.o
                0x000000000029cf4c                avb_sha256_update
 .text.avb_sha256_final
                0x000000000029cf5c       0x38 lib/built-in.o
                0x000000000029cf5c                avb_sha256_final
 .text.SHA512_transform
                0x000000000029cf94      0x1c0 lib/built-in.o
 .text.avb_sha512_init
                0x000000000029d154      0x100 lib/built-in.o
                0x000000000029d154                avb_sha512_init
 .text.avb_sha512_update
                0x000000000029d254       0xe0 lib/built-in.o
                0x000000000029d254                avb_sha512_update
 .text.avb_sha512_final
                0x000000000029d334      0x130 lib/built-in.o
                0x000000000029d334                avb_sha512_final
 .text.avb_memcmp
                0x000000000029d464        0x4 lib/built-in.o
                0x000000000029d464                avb_memcmp
 .text.avb_memcpy
                0x000000000029d468        0x4 lib/built-in.o
                0x000000000029d468                avb_memcpy
 .text.avb_memset
                0x000000000029d46c        0x4 lib/built-in.o
                0x000000000029d46c                avb_memset
 .text.avb_strcmp
                0x000000000029d470        0x4 lib/built-in.o
                0x000000000029d470                avb_strcmp
 .text.avb_strncmp
                0x000000000029d474        0x4 lib/built-in.o
                0x000000000029d474                avb_strncmp
 .text.avb_strlen
                0x000000000029d478        0x4 lib/built-in.o
                0x000000000029d478                avb_strlen
 .text.avb_abort
                0x000000000029d47c        0x4 lib/built-in.o
                0x000000000029d47c                avb_abort
 .text.avb_printv
                0x000000000029d480       0x98 lib/built-in.o
                0x000000000029d480                avb_printv
 .text.avb_malloc_
                0x000000000029d518        0x4 lib/built-in.o
                0x000000000029d518                avb_malloc_
 .text.avb_free
                0x000000000029d51c        0x4 lib/built-in.o
                0x000000000029d51c                avb_free
 .text.avb_div_by_10
                0x000000000029d520       0x18 lib/built-in.o
                0x000000000029d520                avb_div_by_10
 .text.load_full_partition
                0x000000000029d538      0x1a4 lib/built-in.o
 .text.read_persistent_digest
                0x000000000029d6dc      0x32c lib/built-in.o
 .text.load_and_verify_vbmeta
                0x000000000029da08     0x13cc lib/built-in.o
 .text.avb_slot_verify_data_free
                0x000000000029edd4       0xd8 lib/built-in.o
                0x000000000029edd4                avb_slot_verify_data_free
 .text.avb_slot_verify_data_calculate_vbmeta_digest
                0x000000000029eeac      0x188 lib/built-in.o
                0x000000000029eeac                avb_slot_verify_data_calculate_vbmeta_digest
 .text.avb_slot_verify
                0x000000000029f034      0x638 lib/built-in.o
                0x000000000029f034                avb_slot_verify
 .text.avb_be32toh
                0x000000000029f66c        0x8 lib/built-in.o
                0x000000000029f66c                avb_be32toh
 .text.avb_be64toh
                0x000000000029f674        0x8 lib/built-in.o
                0x000000000029f674                avb_be64toh
 .text.avb_safe_memcmp
                0x000000000029f67c       0x40 lib/built-in.o
                0x000000000029f67c                avb_safe_memcmp
 .text.avb_validate_utf8
                0x000000000029f6bc       0x84 lib/built-in.o
                0x000000000029f6bc                avb_validate_utf8
 .text.avb_strstr
                0x000000000029f740       0x50 lib/built-in.o
                0x000000000029f740                avb_strstr
 .text.avb_strv_find_str
                0x000000000029f790       0x60 lib/built-in.o
                0x000000000029f790                avb_strv_find_str
 .text.avb_basename
                0x000000000029f7f0       0x50 lib/built-in.o
                0x000000000029f7f0                avb_basename
 .text.avb_safe_add_to
                0x000000000029f840       0x60 lib/built-in.o
                0x000000000029f840                avb_safe_add_to
 .text.avb_safe_add
                0x000000000029f8a0       0x28 lib/built-in.o
                0x000000000029f8a0                avb_safe_add
 .text.avb_str_concat
                0x000000000029f8c8      0x110 lib/built-in.o
                0x000000000029f8c8                avb_str_concat
 .text.avb_malloc
                0x000000000029f9d8       0x5c lib/built-in.o
                0x000000000029f9d8                avb_malloc
 .text.avb_calloc
                0x000000000029fa34       0x38 lib/built-in.o
                0x000000000029fa34                avb_calloc
 .text.avb_strdup
                0x000000000029fa6c       0x50 lib/built-in.o
                0x000000000029fa6c                avb_strdup
 .text.avb_replace
                0x000000000029fabc      0x1a0 lib/built-in.o
                0x000000000029fabc                avb_replace
 .text.avb_strdupv
                0x000000000029fc5c      0x1a0 lib/built-in.o
                0x000000000029fc5c                avb_strdupv
 .text.avb_uppercase
                0x000000000029fdfc       0x2c lib/built-in.o
                0x000000000029fdfc                avb_uppercase
 .text.avb_bin2hex
                0x000000000029fe28       0xa8 lib/built-in.o
                0x000000000029fe28                avb_bin2hex
 .text.avb_vbmeta_image_header_to_host_byte_order
                0x000000000029fed0      0x768 lib/built-in.o
                0x000000000029fed0                avb_vbmeta_image_header_to_host_byte_order
 .text.avb_vbmeta_image_verify
                0x00000000002a0638      0x614 lib/built-in.o
                0x00000000002a0638                avb_vbmeta_image_verify
 .text.avb_vbmeta_verify_result_to_string
                0x00000000002a0c4c       0x64 lib/built-in.o
                0x00000000002a0c4c                avb_vbmeta_verify_result_to_string
 .text.avb_version_string
                0x00000000002a0cb0        0xc lib/built-in.o
                0x00000000002a0cb0                avb_version_string
 .text.sha256   0x00000000002a0cbc       0x60 lib/built-in.o
 .text.avb_atx_generate_unlock_challenge
                0x00000000002a0d1c      0x110 lib/built-in.o
                0x00000000002a0d1c                avb_atx_generate_unlock_challenge
 .text.validate_vbmeta_public_key
                0x00000000002a0e2c       0x14 lib/built-in.o
 .text.validate_public_key_for_partition
                0x00000000002a0e40       0x18 lib/built-in.o
                0x00000000002a0e40                validate_public_key_for_partition
 .text.avb_read_perm_attr
                0x00000000002a0e58       0x2c lib/built-in.o
                0x00000000002a0e58                avb_read_perm_attr
 .text.avb_read_perm_attr_hash
                0x00000000002a0e84       0x24 lib/built-in.o
                0x00000000002a0e84                avb_read_perm_attr_hash
 .text.rk_get_random
                0x00000000002a0ea8       0x4c lib/built-in.o
                0x00000000002a0ea8                rk_get_random
 .text.avb_set_key_version
                0x00000000002a0ef4       0x78 lib/built-in.o
 .text.get_preloaded_partition
                0x00000000002a0f6c      0x344 lib/built-in.o
 .text.get_unique_guid_for_partition
                0x00000000002a12b0       0x90 lib/built-in.o
 .text.write_rollback_index
                0x00000000002a1340       0x38 lib/built-in.o
 .text.read_rollback_index
                0x00000000002a1378       0xc0 lib/built-in.o
 .text.get_size_of_partition
                0x00000000002a1438       0x64 lib/built-in.o
 .text.write_is_device_unlocked
                0x00000000002a149c       0x40 lib/built-in.o
 .text.read_is_device_unlocked
                0x00000000002a14dc       0xd8 lib/built-in.o
 .text.byte_to_block.isra.0
                0x00000000002a15b4       0x5c lib/built-in.o
 .text.write_to_partition
                0x00000000002a1610      0x138 lib/built-in.o
 .text.read_from_partition
                0x00000000002a1748      0x170 lib/built-in.o
 .text.avb_ops_user_new
                0x00000000002a18b8      0x1a4 lib/built-in.o
                0x00000000002a18b8                avb_ops_user_new
 .text.avb_ops_user_free
                0x00000000002a1a5c       0x38 lib/built-in.o
                0x00000000002a1a5c                avb_ops_user_free
 .text.rk_avb_get_perm_attr_cer
                0x00000000002a1a94       0x30 lib/built-in.o
                0x00000000002a1a94                rk_avb_get_perm_attr_cer
 .text.rk_avb_set_perm_attr_cer
                0x00000000002a1ac4       0x20 lib/built-in.o
                0x00000000002a1ac4                rk_avb_set_perm_attr_cer
 .text.rk_avb_read_permanent_attributes
                0x00000000002a1ae4       0x30 lib/built-in.o
                0x00000000002a1ae4                rk_avb_read_permanent_attributes
 .text.rk_avb_write_permanent_attributes
                0x00000000002a1b14       0x30 lib/built-in.o
                0x00000000002a1b14                rk_avb_write_permanent_attributes
 .text.rk_avb_read_flash_lock_state
                0x00000000002a1b44       0x98 lib/built-in.o
                0x00000000002a1b44                rk_avb_read_flash_lock_state
 .text.rk_avb_write_flash_lock_state
                0x00000000002a1bdc       0x30 lib/built-in.o
                0x00000000002a1bdc                rk_avb_write_flash_lock_state
 .text.rk_avb_write_lock_state
                0x00000000002a1c0c       0x30 lib/built-in.o
                0x00000000002a1c0c                rk_avb_write_lock_state
 .text.rk_avb_read_lock_state
                0x00000000002a1c3c       0xc0 lib/built-in.o
                0x00000000002a1c3c                rk_avb_read_lock_state
 .text.rk_avb_write_perm_attr_flag
                0x00000000002a1cfc       0x30 lib/built-in.o
                0x00000000002a1cfc                rk_avb_write_perm_attr_flag
 .text.rk_avb_read_perm_attr_flag
                0x00000000002a1d2c       0x9c lib/built-in.o
                0x00000000002a1d2c                rk_avb_read_perm_attr_flag
 .text.rk_avb_write_vbootkey_hash
                0x00000000002a1dc8       0x34 lib/built-in.o
                0x00000000002a1dc8                rk_avb_write_vbootkey_hash
 .text.rk_avb_read_attribute_hash
                0x00000000002a1dfc       0x34 lib/built-in.o
                0x00000000002a1dfc                rk_avb_read_attribute_hash
 .text.rk_avb_write_attribute_hash
                0x00000000002a1e30       0x34 lib/built-in.o
                0x00000000002a1e30                rk_avb_write_attribute_hash
 .text.rk_avb_read_all_rollback_index
                0x00000000002a1e64      0x214 lib/built-in.o
                0x00000000002a1e64                rk_avb_read_all_rollback_index
 .text.rk_avb_read_bootloader_locked_flag
                0x00000000002a2078       0x1c lib/built-in.o
                0x00000000002a2078                rk_avb_read_bootloader_locked_flag
 .text.rk_bootloader_rollback_index_read
                0x00000000002a2094      0x100 lib/built-in.o
                0x00000000002a2094                rk_bootloader_rollback_index_read
 .text.rk_avb_get_bootloader_min_version
                0x00000000002a2194      0x150 lib/built-in.o
                0x00000000002a2194                rk_avb_get_bootloader_min_version
 .text.rk_avb_get_at_vboot_state
                0x00000000002a22e4      0x1cc lib/built-in.o
                0x00000000002a22e4                rk_avb_get_at_vboot_state
 .text.rk_avb_get_ab_info
                0x00000000002a24b0       0x7c lib/built-in.o
                0x00000000002a24b0                rk_avb_get_ab_info
 .text.rk_avb_get_part_has_slot_info
                0x00000000002a252c      0x110 lib/built-in.o
                0x00000000002a252c                rk_avb_get_part_has_slot_info
 .text.rk_generate_unlock_challenge
                0x00000000002a263c       0x70 lib/built-in.o
                0x00000000002a263c                rk_generate_unlock_challenge
 .text.rk_avb_init_ab_metadata
                0x00000000002a26ac       0x94 lib/built-in.o
                0x00000000002a26ac                rk_avb_init_ab_metadata
 .text.rk_avb_write_perm_attr
                0x00000000002a2740      0x1d8 lib/built-in.o
                0x00000000002a2740                rk_avb_write_perm_attr
 .text.rk_avb_read_perm_attr
                0x00000000002a2918       0x30 lib/built-in.o
                0x00000000002a2918                rk_avb_read_perm_attr
 .text.slot_is_bootable
                0x00000000002a2948       0x30 lib/built-in.o
 .text.slot_normalize
                0x00000000002a2978       0x30 lib/built-in.o
 .text.save_metadata_if_changed
                0x00000000002a29a8       0x40 lib/built-in.o
                0x00000000002a29a8                save_metadata_if_changed
 .text.avb_ab_data_verify_and_byteswap
                0x00000000002a29e8       0xf4 lib/built-in.o
                0x00000000002a29e8                avb_ab_data_verify_and_byteswap
 .text.avb_ab_data_update_crc_and_byteswap
                0x00000000002a2adc       0x60 lib/built-in.o
                0x00000000002a2adc                avb_ab_data_update_crc_and_byteswap
 .text.avb_ab_data_init
                0x00000000002a2b3c       0x70 lib/built-in.o
                0x00000000002a2b3c                avb_ab_data_init
 .text.avb_ab_data_write
                0x00000000002a2bac       0x68 lib/built-in.o
                0x00000000002a2bac                avb_ab_data_write
 .text.avb_ab_data_read
                0x00000000002a2c14       0xb8 lib/built-in.o
                0x00000000002a2c14                avb_ab_data_read
 .text.load_metadata
                0x00000000002a2ccc       0x6c lib/built-in.o
                0x00000000002a2ccc                load_metadata
 .text.rk_avb_read_slot_count
                0x00000000002a2d38       0x10 lib/built-in.o
                0x00000000002a2d38                rk_avb_read_slot_count
 .text.rk_avb_read_slot_suffixes
                0x00000000002a2d48       0x40 lib/built-in.o
                0x00000000002a2d48                rk_avb_read_slot_suffixes
 .text.avb_ab_mark_slot_active
                0x00000000002a2d88       0x84 lib/built-in.o
                0x00000000002a2d88                avb_ab_mark_slot_active
 .text.rk_avb_set_slot_active
                0x00000000002a2e0c       0x70 lib/built-in.o
                0x00000000002a2e0c                rk_avb_set_slot_active
 .text.rk_avb_ab_slot_select
                0x00000000002a2e7c       0xf4 lib/built-in.o
                0x00000000002a2e7c                rk_avb_ab_slot_select
 .text.rk_avb_get_current_slot
                0x00000000002a2f70       0x58 lib/built-in.o
                0x00000000002a2f70                rk_avb_get_current_slot
 .text.zcalloc  0x00000000002a2fc8        0x8 lib/built-in.o
                0x00000000002a2fc8                zcalloc
 .text.zcfree   0x00000000002a2fd0        0x8 lib/built-in.o
                0x00000000002a2fd0                zcfree
 .text.inflate_fast
                0x00000000002a2fd8      0x508 lib/built-in.o
                0x00000000002a2fd8                inflate_fast
 .text.inflate_table
                0x00000000002a34e0      0x42c lib/built-in.o
                0x00000000002a34e0                inflate_table
 .text.inflateReset
                0x00000000002a390c       0x60 lib/built-in.o
                0x00000000002a390c                inflateReset
 .text.inflateInit2_
                0x00000000002a396c      0x104 lib/built-in.o
                0x00000000002a396c                inflateInit2_
 .text.inflateEnd
                0x00000000002a3a70       0x6c lib/built-in.o
                0x00000000002a3a70                inflateEnd
 .text.adler32  0x00000000002a3adc      0x308 lib/built-in.o
                0x00000000002a3adc                adler32
 .text.inflate  0x00000000002a3de4     0x1364 lib/built-in.o
                0x00000000002a3de4                inflate
 .text.gzalloc  0x00000000002a5148       0x10 lib/built-in.o
                0x00000000002a5148                gzalloc
 .text.gzfree   0x00000000002a5158        0x8 lib/built-in.o
                0x00000000002a5158                gzfree
 .text.gzip_parse_header
                0x00000000002a5160       0xac lib/built-in.o
                0x00000000002a5160                gzip_parse_header
 .text.zunzip   0x00000000002a520c      0x11c lib/built-in.o
                0x00000000002a520c                zunzip
 .text.gunzip   0x00000000002a5328       0x68 lib/built-in.o
                0x00000000002a5328                gunzip
 .text.lzop_is_valid_header
                0x00000000002a5390       0x38 lib/built-in.o
                0x00000000002a5390                lzop_is_valid_header
 .text.lzo1x_decompress_safe
                0x00000000002a53c8      0x5c8 lib/built-in.o
                0x00000000002a53c8                lzo1x_decompress_safe
 .text.lzop_decompress
                0x00000000002a5990      0x190 lib/built-in.o
                0x00000000002a5990                lzop_decompress
 .text.get_prop_check_min_len
                0x00000000002a5b20       0x48 lib/built-in.o
 .text.fdtdec_get_is_enabled
                0x00000000002a5b68       0x40 lib/built-in.o
                0x00000000002a5b68                fdtdec_get_is_enabled
 .text.fdtdec_get_alias_seq
                0x00000000002a5ba8      0x128 lib/built-in.o
                0x00000000002a5ba8                fdtdec_get_alias_seq
 .text.fdtdec_prepare_fdt
                0x00000000002a5cd0       0x44 lib/built-in.o
                0x00000000002a5cd0                fdtdec_prepare_fdt
 .text.fdtdec_get_int_array
                0x00000000002a5d14       0x60 lib/built-in.o
                0x00000000002a5d14                fdtdec_get_int_array
 .text.fdtdec_parse_phandle_with_args
                0x00000000002a5d74      0x150 lib/built-in.o
                0x00000000002a5d74                fdtdec_parse_phandle_with_args
 .text.fdtdec_get_config_int
                0x00000000002a5ec4       0x60 lib/built-in.o
                0x00000000002a5ec4                fdtdec_get_config_int
 .text.fdtdec_get_config_string
                0x00000000002a5f24       0x4c lib/built-in.o
                0x00000000002a5f24                fdtdec_get_config_string
 .text.fdtdec_get_number
                0x00000000002a5f70       0x30 lib/built-in.o
                0x00000000002a5f70                fdtdec_get_number
 .text.fdtdec_get_addr_size_fixed
                0x00000000002a5fa0       0xc4 lib/built-in.o
                0x00000000002a5fa0                fdtdec_get_addr_size_fixed
 .text.fdtdec_get_addr_size_auto_parent
                0x00000000002a6064       0xa8 lib/built-in.o
                0x00000000002a6064                fdtdec_get_addr_size_auto_parent
 .text.fdtdec_get_addr_size_auto_noparent
                0x00000000002a610c       0x7c lib/built-in.o
                0x00000000002a610c                fdtdec_get_addr_size_auto_noparent
 .text.fdtdec_get_addr_size
                0x00000000002a6188       0x20 lib/built-in.o
                0x00000000002a6188                fdtdec_get_addr_size
 .text.fdt_get_resource
                0x00000000002a61a8      0x110 lib/built-in.o
                0x00000000002a61a8                fdt_get_resource
 .text.fdtdec_setup
                0x00000000002a62b8       0x64 lib/built-in.o
                0x00000000002a62b8                fdtdec_setup
 .text.cmpkey   0x00000000002a631c       0x14 lib/built-in.o
 .text.match_string
                0x00000000002a6330       0xd0 lib/built-in.o
 .text.match_entry
                0x00000000002a6400       0xd4 lib/built-in.o
 .text.drop_var_from_set.part.0
                0x00000000002a64d4       0x6c lib/built-in.o
 .text._hdelete.constprop.0
                0x00000000002a6540       0x64 lib/built-in.o
 .text.hcreate_r
                0x00000000002a65a4       0x98 lib/built-in.o
                0x00000000002a65a4                hcreate_r
 .text.hdestroy_r
                0x00000000002a663c       0x88 lib/built-in.o
                0x00000000002a663c                hdestroy_r
 .text.hmatch_r
                0x00000000002a66c4       0xb8 lib/built-in.o
                0x00000000002a66c4                hmatch_r
 .text.hsearch_r
                0x00000000002a677c      0x424 lib/built-in.o
                0x00000000002a677c                hsearch_r
 .text.hdelete_r
                0x00000000002a6ba0       0xf4 lib/built-in.o
                0x00000000002a6ba0                hdelete_r
 .text.hexport_r
                0x00000000002a6c94      0x28c lib/built-in.o
                0x00000000002a6c94                hexport_r
 .text.himport_r
                0x00000000002a6f20      0x39c lib/built-in.o
                0x00000000002a6f20                himport_r
 .text.hwalk_r  0x00000000002a72bc       0x70 lib/built-in.o
                0x00000000002a72bc                hwalk_r
 .text.display_options_get_banner_priv
                0x00000000002a732c       0xb8 lib/built-in.o
                0x00000000002a732c                display_options_get_banner_priv
 .text.display_options_get_banner
                0x00000000002a73e4       0x10 lib/built-in.o
                0x00000000002a73e4                display_options_get_banner
 .text.display_options
                0x00000000002a73f4       0x34 lib/built-in.o
                0x00000000002a73f4                display_options
 .text.print_size
                0x00000000002a7428       0xe4 lib/built-in.o
                0x00000000002a7428                print_size
 .text.print_buffer
                0x00000000002a750c      0x220 lib/built-in.o
                0x00000000002a750c                print_buffer
 .text.crc32_no_comp
                0x00000000002a772c       0xd4 lib/built-in.o
                0x00000000002a772c                crc32_no_comp
 .text.crc32    0x00000000002a7800       0x1c lib/built-in.o
                0x00000000002a7800                crc32
 .text.crc32_wd
                0x00000000002a781c        0x4 lib/built-in.o
                0x00000000002a781c                crc32_wd
 .text.hang     0x00000000002a7820       0x20 lib/built-in.o
                0x00000000002a7820                hang
 .text.kmalloc  0x00000000002a7840       0x4c lib/built-in.o
                0x00000000002a7840                kmalloc
 .text.skip_spaces
                0x00000000002a788c       0x20 lib/built-in.o
                0x00000000002a788c                skip_spaces
 .text.strim    0x00000000002a78ac       0x5c lib/built-in.o
                0x00000000002a78ac                strim
 .text.emit     0x00000000002a7908       0x2c lib/built-in.o
 .text.store_char_in_data
                0x00000000002a7934       0x30 lib/built-in.o
 .text.get_escape_char
                0x00000000002a7964       0x98 lib/built-in.o
 .text.relocate
                0x00000000002a79fc       0x58 lib/built-in.o
 .text.match    0x00000000002a7a54      0x3f8 lib/built-in.o
 .text.loop_greedy
                0x00000000002a7e4c       0xb4 lib/built-in.o
 .text.loop_non_greedy
                0x00000000002a7f00       0xa0 lib/built-in.o
 .text.fixup_branch.part.0
                0x00000000002a7fa0       0x48 lib/built-in.o
 .text.quantifier
                0x00000000002a7fe8       0xb8 lib/built-in.o
 .text.compile  0x00000000002a80a0      0x38c lib/built-in.o
 .text.slre_compile
                0x00000000002a842c       0xb0 lib/built-in.o
                0x00000000002a842c                slre_compile
 .text.slre_match
                0x00000000002a84dc       0xa4 lib/built-in.o
                0x00000000002a84dc                slre_match
 .text.strncasecmp
                0x00000000002a8580       0x74 lib/built-in.o
                0x00000000002a8580                strncasecmp
 .text.strcasecmp
                0x00000000002a85f4        0x8 lib/built-in.o
                0x00000000002a85f4                strcasecmp
 .text.strcpy   0x00000000002a85fc       0x18 lib/built-in.o
                0x00000000002a85fc                strcpy
 .text.strncpy  0x00000000002a8614       0x20 lib/built-in.o
                0x00000000002a8614                strncpy
 .text.strcat   0x00000000002a8634       0x2c lib/built-in.o
                0x00000000002a8634                strcat
 .text.strncat  0x00000000002a8660       0x3c lib/built-in.o
                0x00000000002a8660                strncat
 .text.strcmp   0x00000000002a869c       0x28 lib/built-in.o
                0x00000000002a869c                strcmp
 .text.strncmp  0x00000000002a86c4       0x38 lib/built-in.o
                0x00000000002a86c4                strncmp
 .text.strchr   0x00000000002a86fc       0x28 lib/built-in.o
                0x00000000002a86fc                strchr
 .text.strchrnul
                0x00000000002a8724       0x20 lib/built-in.o
                0x00000000002a8724                strchrnul
 .text.strlen   0x00000000002a8744       0x1c lib/built-in.o
                0x00000000002a8744                strlen
 .text.strrchr  0x00000000002a8760       0x40 lib/built-in.o
                0x00000000002a8760                strrchr
 .text.strnlen  0x00000000002a87a0       0x28 lib/built-in.o
                0x00000000002a87a0                strnlen
 .text.strcspn  0x00000000002a87c8       0x38 lib/built-in.o
                0x00000000002a87c8                strcspn
 .text.strdup   0x00000000002a8800       0x4c lib/built-in.o
                0x00000000002a8800                strdup
 .text.strspn   0x00000000002a884c       0x38 lib/built-in.o
                0x00000000002a884c                strspn
 .text.strpbrk  0x00000000002a8884       0x34 lib/built-in.o
                0x00000000002a8884                strpbrk
 .text.strtok   0x00000000002a88b8       0x70 lib/built-in.o
                0x00000000002a88b8                strtok
 .text.strsep   0x00000000002a8928       0x3c lib/built-in.o
                0x00000000002a8928                strsep
 .text.memset   0x00000000002a8964       0x6c lib/built-in.o
                0x00000000002a8964                memset
 .text.memcpy   0x00000000002a89d0       0x68 lib/built-in.o
                0x00000000002a89d0                memcpy
 .text.memmove  0x00000000002a8a38       0x58 lib/built-in.o
                0x00000000002a8a38                memmove
 .text.memcmp   0x00000000002a8a90       0x30 lib/built-in.o
                0x00000000002a8a90                memcmp
 .text.strstr   0x00000000002a8ac0       0x64 lib/built-in.o
                0x00000000002a8ac0                strstr
 .text.memchr   0x00000000002a8b24       0x30 lib/built-in.o
                0x00000000002a8b24                memchr
 .text.atol     0x00000000002a8b54       0x74 lib/built-in.o
                0x00000000002a8b54                atol
 .text.atoi     0x00000000002a8bc8       0x14 lib/built-in.o
                0x00000000002a8bc8                atoi
 .text.timer_init
                0x00000000002a8bdc        0x8 lib/built-in.o
                0x00000000002a8bdc                timer_init
 .text.get_timer
                0x00000000002a8be4       0x3c lib/built-in.o
                0x00000000002a8be4                get_timer
 .text.timer_get_us
                0x00000000002a8c20       0x38 lib/built-in.o
                0x00000000002a8c20                timer_get_us
 .text.__udelay
                0x00000000002a8c58       0x4c lib/built-in.o
                0x00000000002a8c58                __udelay
 .text.udelay   0x00000000002a8ca4       0x44 lib/built-in.o
                0x00000000002a8ca4                udelay
 .text.uuid_str_valid
                0x00000000002a8ce8       0x90 lib/built-in.o
                0x00000000002a8ce8                uuid_str_valid
 .text.uuid_str_to_bin
                0x00000000002a8d78      0x174 lib/built-in.o
                0x00000000002a8d78                uuid_str_to_bin
 .text.uuid_bin_to_str
                0x00000000002a8eec       0xd8 lib/built-in.o
                0x00000000002a8eec                uuid_bin_to_str
 .text.gen_rand_uuid
                0x00000000002a8fc4       0x78 lib/built-in.o
                0x00000000002a8fc4                gen_rand_uuid
 .text.gen_rand_uuid_str
                0x00000000002a903c       0x38 lib/built-in.o
                0x00000000002a903c                gen_rand_uuid_str
 .text.rand_r   0x00000000002a9074       0x1c lib/built-in.o
                0x00000000002a9074                rand_r
 .text.rand     0x00000000002a9090        0xc lib/built-in.o
                0x00000000002a9090                rand
 .text.srand    0x00000000002a909c        0xc lib/built-in.o
                0x00000000002a909c                srand
 .text.put_dec_trunc
                0x00000000002a90a8       0xe0 lib/built-in.o
 .text.put_dec  0x00000000002a9188       0xd0 lib/built-in.o
 .text.number   0x00000000002a9258      0x2e4 lib/built-in.o
 .text.string   0x00000000002a953c      0x124 lib/built-in.o
 .text.vsnprintf_internal
                0x00000000002a9660      0xad4 lib/built-in.o
 .text.vscnprintf
                0x00000000002aa134       0x74 lib/built-in.o
                0x00000000002aa134                vscnprintf
 .text.snprintf
                0x00000000002aa1a8       0x7c lib/built-in.o
                0x00000000002aa1a8                snprintf
 .text.vsprintf
                0x00000000002aa224       0x44 lib/built-in.o
                0x00000000002aa224                vsprintf
 .text.sprintf  0x00000000002aa268       0x74 lib/built-in.o
                0x00000000002aa268                sprintf
 .text.printf   0x00000000002aa2dc       0xb4 lib/built-in.o
                0x00000000002aa2dc                printf
 .text.vprintf  0x00000000002aa390       0x54 lib/built-in.o
                0x00000000002aa390                vprintf
 .text.simple_itoa
                0x00000000002aa3e4       0x40 lib/built-in.o
                0x00000000002aa3e4                simple_itoa
 .text.panic    0x00000000002aa424       0x7c lib/built-in.o
                0x00000000002aa424                panic
 .text.simple_strtoul
                0x00000000002aa4a0      0x108 lib/built-in.o
                0x00000000002aa4a0                simple_strtoul
 .text.strict_strtoul
                0x00000000002aa5a8       0x88 lib/built-in.o
                0x00000000002aa5a8                strict_strtoul
 .text.simple_strtol
                0x00000000002aa630       0x2c lib/built-in.o
                0x00000000002aa630                simple_strtol
 .text.ustrtoul
                0x00000000002aa65c       0x78 lib/built-in.o
                0x00000000002aa65c                ustrtoul
 .text.ustrtoull
                0x00000000002aa6d4        0x4 lib/built-in.o
                0x00000000002aa6d4                ustrtoull
 .text.simple_strtoull
                0x00000000002aa6d8        0x4 lib/built-in.o
                0x00000000002aa6d8                simple_strtoull
 .text.trailing_strtoln
                0x00000000002aa6dc       0x78 lib/built-in.o
                0x00000000002aa6dc                trailing_strtoln
 .text.trailing_strtol
                0x00000000002aa754        0x8 lib/built-in.o
                0x00000000002aa754                trailing_strtol
 .text.compute_ip_checksum
                0x00000000002aa75c       0x8c net/built-in.o
                0x00000000002aa75c                compute_ip_checksum
 .text.ip_checksum_ok
                0x00000000002aa7e8       0x1c net/built-in.o
                0x00000000002aa7e8                ip_checksum_ok
 .text.arp_init
                0x00000000002aa804       0x3c net/built-in.o
                0x00000000002aa804                arp_init
 .text.arp_raw_request
                0x00000000002aa840       0xe4 net/built-in.o
                0x00000000002aa840                arp_raw_request
 .text.arp_request
                0x00000000002aa924       0x84 net/built-in.o
                0x00000000002aa924                arp_request
 .text.arp_timeout_check
                0x00000000002aa9a8       0x90 net/built-in.o
                0x00000000002aa9a8                arp_timeout_check
 .text.arp_receive
                0x00000000002aaa38      0x228 net/built-in.o
                0x00000000002aaa38                arp_receive
 .text.dhcp_extended
                0x00000000002aac60      0x268 net/built-in.o
 .text.dhcp_process_options
                0x00000000002aaec8      0x1f0 net/built-in.o
 .text.dhcp_packet_process_options
                0x00000000002ab0b8       0x94 net/built-in.o
 .text.dhcp_handler
                0x00000000002ab14c      0x3d4 net/built-in.o
 .text.bootp_reset
                0x00000000002ab520       0x3c net/built-in.o
                0x00000000002ab520                bootp_reset
 .text.bootp_request
                0x00000000002ab55c      0x270 net/built-in.o
                0x00000000002ab55c                bootp_request
 .text.bootp_timeout_handler
                0x00000000002ab7cc       0x68 net/built-in.o
 .text.dhcp_request
                0x00000000002ab834        0x4 net/built-in.o
                0x00000000002ab834                dhcp_request
 .text.eth_get_uclass_priv
                0x00000000002ab838       0x24 net/built-in.o
 .text.eth_pre_remove
                0x00000000002ab85c       0x40 net/built-in.o
 .text.eth_post_probe
                0x00000000002ab89c      0x194 net/built-in.o
 .text.eth_post_bind
                0x00000000002aba30       0x48 net/built-in.o
 .text.eth_write_hwaddr.isra.0
                0x00000000002aba78       0xd8 net/built-in.o
 .text.on_ethaddr
                0x00000000002abb50       0x8c net/built-in.o
 .text.eth_set_current_to_next
                0x00000000002abbdc       0x48 net/built-in.o
                0x00000000002abbdc                eth_set_current_to_next
 .text.eth_get_dev
                0x00000000002abc24       0x40 net/built-in.o
                0x00000000002abc24                eth_get_dev
 .text.eth_set_dev
                0x00000000002abc64       0x44 net/built-in.o
                0x00000000002abc64                eth_set_dev
 .text.eth_pre_unbind
                0x00000000002abca8       0x38 net/built-in.o
 .text.eth_get_dev_by_name
                0x00000000002abce0       0xf8 net/built-in.o
                0x00000000002abce0                eth_get_dev_by_name
 .text.eth_get_ethaddr
                0x00000000002abdd8       0x24 net/built-in.o
                0x00000000002abdd8                eth_get_ethaddr
 .text.eth_halt_state_only
                0x00000000002abdfc       0x2c net/built-in.o
                0x00000000002abdfc                eth_halt_state_only
 .text.eth_get_dev_index
                0x00000000002abe28       0x28 net/built-in.o
                0x00000000002abe28                eth_get_dev_index
 .text.eth_init
                0x00000000002abe50       0xf8 net/built-in.o
                0x00000000002abe50                eth_init
 .text.eth_halt
                0x00000000002abf48       0x48 net/built-in.o
                0x00000000002abf48                eth_halt
 .text.eth_send
                0x00000000002abf90       0x60 net/built-in.o
                0x00000000002abf90                eth_send
 .text.eth_rx   0x00000000002abff0       0xc8 net/built-in.o
                0x00000000002abff0                eth_rx
 .text.eth_initialize
                0x00000000002ac0b8      0x118 net/built-in.o
                0x00000000002ac0b8                eth_initialize
 .text.eth_parse_enetaddr
                0x00000000002ac1d0       0x70 net/built-in.o
                0x00000000002ac1d0                eth_parse_enetaddr
 .text.eth_env_get_enetaddr
                0x00000000002ac240       0x68 net/built-in.o
                0x00000000002ac240                eth_env_get_enetaddr
 .text.eth_env_set_enetaddr
                0x00000000002ac2a8       0x54 net/built-in.o
                0x00000000002ac2a8                eth_env_set_enetaddr
 .text.eth_env_get_enetaddr_by_index
                0x00000000002ac2fc       0x50 net/built-in.o
                0x00000000002ac2fc                eth_env_get_enetaddr_by_index
 .text.eth_env_set_enetaddr_by_index
                0x00000000002ac34c       0x50 net/built-in.o
                0x00000000002ac34c                eth_env_set_enetaddr_by_index
 .text.eth_common_init
                0x00000000002ac39c       0x1c net/built-in.o
                0x00000000002ac39c                eth_common_init
 .text.eth_mac_skip
                0x00000000002ac3b8       0x44 net/built-in.o
                0x00000000002ac3b8                eth_mac_skip
 .text.eth_get_name
                0x00000000002ac3fc       0x2c net/built-in.o
                0x00000000002ac3fc                eth_get_name
 .text.eth_current_changed
                0x00000000002ac428       0x94 net/built-in.o
                0x00000000002ac428                eth_current_changed
 .text.eth_try_another
                0x00000000002ac4bc       0x80 net/built-in.o
                0x00000000002ac4bc                eth_try_another
 .text.eth_set_current
                0x00000000002ac53c       0x8c net/built-in.o
                0x00000000002ac53c                eth_set_current
 .text.net_clear_handlers
                0x00000000002ac5c8       0x24 net/built-in.o
 .text.start_again_timeout_handler
                0x00000000002ac5ec       0x10 net/built-in.o
 .text.dummy_handler
                0x00000000002ac5fc        0x4 net/built-in.o
 .text.on_ipaddr
                0x00000000002ac600       0x30 net/built-in.o
 .text.on_gatewayip
                0x00000000002ac630       0x30 net/built-in.o
 .text.on_netmask
                0x00000000002ac660       0x30 net/built-in.o
 .text.on_serverip
                0x00000000002ac690       0x30 net/built-in.o
 .text.net_init_loop
                0x00000000002ac6c0       0x34 net/built-in.o
 .text.net_auto_load
                0x00000000002ac6f4       0x70 net/built-in.o
                0x00000000002ac6f4                net_auto_load
 .text.net_init
                0x00000000002ac764       0x70 net/built-in.o
                0x00000000002ac764                net_init
 .text.net_start_again
                0x00000000002ac7d4      0x14c net/built-in.o
                0x00000000002ac7d4                net_start_again
 .text.net_loop
                0x00000000002ac920      0x2fc net/built-in.o
                0x00000000002ac920                net_loop
 .text.net_set_udp_handler
                0x00000000002acc1c       0x18 net/built-in.o
                0x00000000002acc1c                net_set_udp_handler
 .text.net_get_arp_handler
                0x00000000002acc34        0xc net/built-in.o
                0x00000000002acc34                net_get_arp_handler
 .text.net_set_timeout_handler
                0x00000000002acc40       0x54 net/built-in.o
                0x00000000002acc40                net_set_timeout_handler
 .text.net_process_received_packet
                0x00000000002acc94      0x2c4 net/built-in.o
                0x00000000002acc94                net_process_received_packet
 .text.net_eth_hdr_size
                0x00000000002acf58       0x3c net/built-in.o
                0x00000000002acf58                net_eth_hdr_size
 .text.net_set_ether
                0x00000000002acf94       0xb4 net/built-in.o
                0x00000000002acf94                net_set_ether
 .text.net_update_ether
                0x00000000002ad048       0x9c net/built-in.o
                0x00000000002ad048                net_update_ether
 .text.net_set_ip_header
                0x00000000002ad0e4       0x9c net/built-in.o
                0x00000000002ad0e4                net_set_ip_header
 .text.net_set_udp_header
                0x00000000002ad180       0xc0 net/built-in.o
                0x00000000002ad180                net_set_udp_header
 .text.net_send_udp_packet
                0x00000000002ad240      0x110 net/built-in.o
                0x00000000002ad240                net_send_udp_packet
 .text.copy_filename
                0x00000000002ad350       0x50 net/built-in.o
                0x00000000002ad350                copy_filename
 .text.on_bootfile
                0x00000000002ad3a0       0x38 net/built-in.o
 .text.ip_to_string
                0x00000000002ad3d8       0x28 net/built-in.o
                0x00000000002ad3d8                ip_to_string
 .text.string_to_vlan
                0x00000000002ad400       0x58 net/built-in.o
                0x00000000002ad400                string_to_vlan
 .text.on_nvlan
                0x00000000002ad458       0x30 net/built-in.o
 .text.on_vlan  0x00000000002ad488       0x30 net/built-in.o
 .text.rpc_lookup_reply
                0x00000000002ad4b8       0xbc net/built-in.o
 .text.nfs_mount_reply
                0x00000000002ad574       0x9c net/built-in.o
 .text.nfs_umountall_reply
                0x00000000002ad610       0x90 net/built-in.o
 .text.nfs_lookup_reply
                0x00000000002ad6a0      0x110 net/built-in.o
 .text.nfs3_get_attributes_offset
                0x00000000002ad7b0       0x14 net/built-in.o
 .text.nfs_readlink_reply
                0x00000000002ad7c4      0x154 net/built-in.o
 .text.basename
                0x00000000002ad918       0x48 net/built-in.o
 .text.rpc_req  0x00000000002ad960      0x134 net/built-in.o
 .text.nfs_mount_req
                0x00000000002ada94       0xbc net/built-in.o
 .text.nfs_read_reply.constprop.0
                0x00000000002adb50      0x18c net/built-in.o
 .text.nfs_readlink_req
                0x00000000002adcdc       0xbc net/built-in.o
 .text.nfs_read_req
                0x00000000002add98       0xe4 net/built-in.o
 .text.nfs_lookup_req
                0x00000000002ade7c      0x148 net/built-in.o
 .text.nfs_umountall_req
                0x00000000002adfc4       0x78 net/built-in.o
 .text.nfs_send
                0x00000000002ae03c      0x104 net/built-in.o
 .text.nfs_handler
                0x00000000002ae140      0x234 net/built-in.o
 .text.nfs_timeout_handler
                0x00000000002ae374       0x6c net/built-in.o
 .text.nfs_start
                0x00000000002ae3e0      0x148 net/built-in.o
                0x00000000002ae3e0                nfs_start
 .text.ping_timeout_handler
                0x00000000002ae528       0x20 net/built-in.o
 .text.ping_start
                0x00000000002ae548      0x138 net/built-in.o
                0x00000000002ae548                ping_start
 .text.ping_receive
                0x00000000002ae680      0x11c net/built-in.o
                0x00000000002ae680                ping_receive
 .text.tftp_send
                0x00000000002ae79c      0x1a8 net/built-in.o
 .text.tftp_handler
                0x00000000002ae944      0x370 net/built-in.o
 .text.tftp_timeout_handler
                0x00000000002aecb4       0x84 net/built-in.o
 .text.tftp_start
                0x00000000002aed38      0x314 net/built-in.o
                0x00000000002aed38                tftp_start
 .text.do_rockchip_test
                0x00000000002af04c      0x4a8 test/built-in.o
 .text.do_test_distro
                0x00000000002af4f4       0x10 test/built-in.o
 .text.do_test_bootrkp
                0x00000000002af504       0x10 test/built-in.o
 .text.do_test_android
                0x00000000002af514       0x10 test/built-in.o
 .text.do_test_android_avb
                0x00000000002af524       0x10 test/built-in.o
 .text.do_test_rockusb
                0x00000000002af534       0x10 test/built-in.o
 .text.do_test_fastboot
                0x00000000002af544       0x10 test/built-in.o
 .text.do_test_brom
                0x00000000002af554       0x10 test/built-in.o
 .text.do_test_tftp
                0x00000000002af564       0xa4 test/built-in.o
 .text.do_test_display
                0x00000000002af608       0x98 test/built-in.o
                0x00000000002af608                do_test_display
 .text.timer_irq_handler
                0x00000000002af6a0       0x58 test/built-in.o
 .text.do_test_adc
                0x00000000002af6f8       0x84 test/built-in.o
 .text.do_test_crypto
                0x00000000002af77c       0x10 test/built-in.o
 .text.do_test_key
                0x00000000002af78c       0xcc test/built-in.o
                0x00000000002af78c                do_test_key
 .text.do_test_timer
                0x00000000002af858      0x174 test/built-in.o
                0x00000000002af858                do_test_timer
 .text.eth_loopback_test
                0x00000000002af9cc      0x3c4 test/built-in.o
 .text.do_test_eth
                0x00000000002afd90      0x228 test/built-in.o
                0x00000000002afd90                do_test_eth
 .text.do_test_charge
                0x00000000002affb8        0x8 test/built-in.o
 .text.do_test_thermal
                0x00000000002affc0       0x78 test/built-in.o
 .text.do_test_reset
                0x00000000002b0038       0x10 test/built-in.o
 .text.do_test_dvfs
                0x00000000002b0048       0x10 test/built-in.o
 .text.do_test_regulator
                0x00000000002b0058      0x1c4 test/built-in.o
 .text.do_test_vendor
                0x00000000002b021c        0x4 test/built-in.o
 .text.do_test_part
                0x00000000002b0220       0x10 test/built-in.o
 .text.do_test_secure_storage
                0x00000000002b0230       0x10 test/built-in.o
 .text.do_test_storage.constprop.0
                0x00000000002b0240      0x45c test/built-in.o
 .text.do_test_emmc
                0x00000000002b069c       0x1c test/built-in.o
 .text.do_test_rknand
                0x00000000002b06b8       0x1c test/built-in.o
 .text.do_test_usb
                0x00000000002b06d4       0x38 test/built-in.o
 .text.do_test_sdmmc
                0x00000000002b070c       0x1c test/built-in.o
 .text.do_dm_dump_devres
                0x00000000002b0728        0x8 test/dm/built-in.o
 .text.do_dm    0x00000000002b0730       0x94 test/dm/built-in.o
 .text.do_dm_dump_aliases
                0x00000000002b07c4       0x18 test/dm/built-in.o
 .text.do_dm_dump_uclass
                0x00000000002b07dc       0x18 test/dm/built-in.o
 .text.do_dm_dump_all
                0x00000000002b07f4       0x18 test/dm/built-in.o
                0x00000000002b0810                . = ALIGN (0x8)

.rodata         0x00000000002b0810    0x3482b
 *(SORT_BY_ALIGNMENT(SORT_BY_NAME(.rodata*)))
 .rodata        0x00000000002b0810       0x60 arch/arm/mach-rockchip/built-in.o
 .rodata        0x00000000002b0870       0x70 cmd/built-in.o
 .rodata        0x00000000002b08e0       0xa0 common/built-in.o
 .rodata        0x00000000002b0980      0x368 drivers/built-in.o
 .rodata        0x00000000002b0ce8       0xe5 lib/built-in.o
 *fill*         0x00000000002b0dcd        0x3 
 .rodata.CSWTCH.111
                0x00000000002b0dd0       0x18 drivers/usb/host/built-in.o
 .rodata.CSWTCH.192
                0x00000000002b0de8       0xe0 common/built-in.o
 .rodata.CSWTCH.29
                0x00000000002b0ec8       0x40 disk/built-in.o
 .rodata.CSWTCH.40
                0x00000000002b0f08       0x28 cmd/built-in.o
 .rodata.CSWTCH.8
                0x00000000002b0f30       0x30 lib/built-in.o
 .rodata.CSWTCH.88
                0x00000000002b0f60       0x18 common/built-in.o
 .rodata.__func__.10004
                0x00000000002b0f78        0xd drivers/built-in.o
 *fill*         0x00000000002b0f85        0x3 
 .rodata.__func__.10150
                0x00000000002b0f88        0xc drivers/built-in.o
 *fill*         0x00000000002b0f94        0x4 
 .rodata.__func__.10160
                0x00000000002b0f98        0xc drivers/built-in.o
 *fill*         0x00000000002b0fa4        0x4 
 .rodata.__func__.10207
                0x00000000002b0fa8       0x15 drivers/built-in.o
 *fill*         0x00000000002b0fbd        0x3 
 .rodata.__func__.10239
                0x00000000002b0fc0       0x16 drivers/built-in.o
 *fill*         0x00000000002b0fd6        0x2 
 .rodata.__func__.10252
                0x00000000002b0fd8       0x13 drivers/built-in.o
 *fill*         0x00000000002b0feb        0x5 
 .rodata.__func__.10282
                0x00000000002b0ff0       0x10 drivers/built-in.o
 .rodata.__func__.10309
                0x00000000002b1000       0x10 drivers/built-in.o
 .rodata.__func__.10353
                0x00000000002b1010       0x10 drivers/built-in.o
 .rodata.__func__.10414
                0x00000000002b1020       0x14 drivers/built-in.o
 *fill*         0x00000000002b1034        0x4 
 .rodata.__func__.10508
                0x00000000002b1038        0xb drivers/built-in.o
 *fill*         0x00000000002b1043        0x5 
 .rodata.__func__.10603
                0x00000000002b1048       0x12 drivers/built-in.o
 *fill*         0x00000000002b105a        0x6 
 .rodata.__func__.10628
                0x00000000002b1060       0x17 drivers/built-in.o
 *fill*         0x00000000002b1077        0x1 
 .rodata.__func__.10703
                0x00000000002b1078       0x14 drivers/built-in.o
 *fill*         0x00000000002b108c        0x4 
 .rodata.__func__.10737
                0x00000000002b1090        0xf drivers/built-in.o
 *fill*         0x00000000002b109f        0x1 
 .rodata.__func__.10792
                0x00000000002b10a0        0xf drivers/built-in.o
 *fill*         0x00000000002b10af        0x1 
 .rodata.__func__.10834
                0x00000000002b10b0       0x12 drivers/built-in.o
 *fill*         0x00000000002b10c2        0x6 
 .rodata.__func__.10844
                0x00000000002b10c8       0x11 drivers/built-in.o
 *fill*         0x00000000002b10d9        0x7 
 .rodata.__func__.10879
                0x00000000002b10e0        0xe drivers/built-in.o
 *fill*         0x00000000002b10ee        0x2 
 .rodata.__func__.10928
                0x00000000002b10f0       0x17 drivers/built-in.o
 *fill*         0x00000000002b1107        0x1 
 .rodata.__func__.10961
                0x00000000002b1108       0x17 drivers/built-in.o
 *fill*         0x00000000002b111f        0x1 
 .rodata.__func__.10982
                0x00000000002b1120       0x13 drivers/built-in.o
 *fill*         0x00000000002b1133        0x5 
 .rodata.__func__.11001
                0x00000000002b1138       0x16 drivers/built-in.o
 *fill*         0x00000000002b114e        0x2 
 .rodata.__func__.11012
                0x00000000002b1150       0x16 drivers/built-in.o
 *fill*         0x00000000002b1166        0x2 
 .rodata.__func__.11038
                0x00000000002b1168       0x13 drivers/built-in.o
 *fill*         0x00000000002b117b        0x5 
 .rodata.__func__.11050
                0x00000000002b1180       0x12 drivers/built-in.o
 *fill*         0x00000000002b1192        0x6 
 .rodata.__func__.11152
                0x00000000002b1198        0xe drivers/built-in.o
 *fill*         0x00000000002b11a6        0x2 
 .rodata.__func__.11275
                0x00000000002b11a8       0x1f drivers/built-in.o
 *fill*         0x00000000002b11c7        0x1 
 .rodata.__func__.11329
                0x00000000002b11c8        0xf drivers/built-in.o
 *fill*         0x00000000002b11d7        0x1 
 .rodata.__func__.11356
                0x00000000002b11d8        0xf drivers/built-in.o
 *fill*         0x00000000002b11e7        0x1 
 .rodata.__func__.11426
                0x00000000002b11e8       0x10 drivers/built-in.o
 .rodata.__func__.11442
                0x00000000002b11f8        0xd drivers/built-in.o
 *fill*         0x00000000002b1205        0x3 
 .rodata.__func__.11466
                0x00000000002b1208        0x6 drivers/built-in.o
 *fill*         0x00000000002b120e        0x2 
 .rodata.__func__.11482
                0x00000000002b1210       0x11 drivers/built-in.o
 *fill*         0x00000000002b1221        0x7 
 .rodata.__func__.11492
                0x00000000002b1228        0xe drivers/built-in.o
 *fill*         0x00000000002b1236        0x2 
 .rodata.__func__.11510
                0x00000000002b1238       0x15 drivers/built-in.o
 *fill*         0x00000000002b124d        0x3 
 .rodata.__func__.8803
                0x00000000002b1250       0x13 drivers/built-in.o
 *fill*         0x00000000002b1263        0x5 
 .rodata.__func__.8864
                0x00000000002b1268       0x13 drivers/built-in.o
 *fill*         0x00000000002b127b        0x5 
 .rodata.__func__.8880
                0x00000000002b1280       0x1a drivers/built-in.o
 *fill*         0x00000000002b129a        0x6 
 .rodata.__func__.8891
                0x00000000002b12a0       0x15 drivers/built-in.o
 *fill*         0x00000000002b12b5        0x3 
 .rodata.__func__.8905
                0x00000000002b12b8       0x1c drivers/built-in.o
 *fill*         0x00000000002b12d4        0x4 
 .rodata.__func__.8929
                0x00000000002b12d8       0x1a drivers/built-in.o
 *fill*         0x00000000002b12f2        0x6 
 .rodata.__func__.8940
                0x00000000002b12f8       0x1d drivers/built-in.o
 *fill*         0x00000000002b1315        0x3 
 .rodata.__func__.8958
                0x00000000002b1318       0x16 drivers/built-in.o
 *fill*         0x00000000002b132e        0x2 
 .rodata.__func__.8969
                0x00000000002b1330       0x16 drivers/built-in.o
 *fill*         0x00000000002b1346        0x2 
 .rodata.__func__.8982
                0x00000000002b1348       0x1f drivers/built-in.o
 *fill*         0x00000000002b1367        0x1 
 .rodata.__func__.8994
                0x00000000002b1368       0x17 drivers/built-in.o
 *fill*         0x00000000002b137f        0x1 
 .rodata.__func__.9007
                0x00000000002b1380       0x19 drivers/built-in.o
 *fill*         0x00000000002b1399        0x7 
 .rodata.__func__.9422
                0x00000000002b13a0       0x14 drivers/built-in.o
 *fill*         0x00000000002b13b4        0x4 
 .rodata.__func__.9432
                0x00000000002b13b8       0x16 drivers/built-in.o
 *fill*         0x00000000002b13ce        0x2 
 .rodata.__func__.9477
                0x00000000002b13d0       0x10 drivers/built-in.o
 .rodata.__func__.9500
                0x00000000002b13e0        0xb drivers/built-in.o
 *fill*         0x00000000002b13eb        0x5 
 .rodata.__func__.9665
                0x00000000002b13f0        0xd drivers/built-in.o
 *fill*         0x00000000002b13fd        0x3 
 .rodata.__func__.9678
                0x00000000002b1400        0xa drivers/built-in.o
 *fill*         0x00000000002b140a        0x6 
 .rodata.__func__.9713
                0x00000000002b1410       0x14 drivers/built-in.o
 *fill*         0x00000000002b1424        0x4 
 .rodata.__func__.9750
                0x00000000002b1428       0x11 drivers/built-in.o
 *fill*         0x00000000002b1439        0x7 
 .rodata.__func__.9826
                0x00000000002b1440       0x11 drivers/built-in.o
 *fill*         0x00000000002b1451        0x7 
 .rodata.__func__.9876
                0x00000000002b1458       0x11 drivers/built-in.o
 *fill*         0x00000000002b1469        0x7 
 .rodata.__func__.9894
                0x00000000002b1470        0xe drivers/built-in.o
 *fill*         0x00000000002b147e        0x2 
 .rodata.__func__.9939
                0x00000000002b1480       0x12 drivers/built-in.o
 *fill*         0x00000000002b1492        0x6 
 .rodata.__func__.9972
                0x00000000002b1498        0xa drivers/built-in.o
 *fill*         0x00000000002b14a2        0x6 
 .rodata.adc_key_bus_match
                0x00000000002b14a8       0x20 drivers/built-in.o
 .rodata.anx6345_bridge_funcs
                0x00000000002b14c8       0x30 drivers/built-in.o
 .rodata.anx6345_ids
                0x00000000002b14f8       0x20 drivers/built-in.o
 .rodata.anx6345_ops
                0x00000000002b1518       0x28 drivers/built-in.o
 .rodata.boot_os
                0x00000000002b1540       0xc0 common/built-in.o
 .rodata.cc_to_string
                0x00000000002b1600       0x80 drivers/usb/host/built-in.o
 .rodata.charge_animation_ids
                0x00000000002b1680       0x20 drivers/power/built-in.o
 .rodata.charge_animation_ops
                0x00000000002b16a0        0x8 drivers/power/built-in.o
 .rodata.clk_fixed_rate_match
                0x00000000002b16a8       0x20 drivers/built-in.o
 .rodata.clk_fixed_rate_ops
                0x00000000002b16c8       0x50 drivers/built-in.o
                0x00000000002b16c8                clk_fixed_rate_ops
 .rodata.clks_dump
                0x00000000002b1718      0x108 drivers/built-in.o
 .rodata.cmd_dispatch_info
                0x00000000002b1820       0xb0 drivers/usb/gadget/built-in.o
 .rodata.cmd_groups
                0x00000000002b18d0       0x38 test/built-in.o
 .rodata.cmd_grp_boot
                0x00000000002b1908       0x20 test/built-in.o
                0x00000000002b1908                cmd_grp_boot
 .rodata.cmd_grp_display
                0x00000000002b1928       0x20 test/built-in.o
                0x00000000002b1928                cmd_grp_display
 .rodata.cmd_grp_download
                0x00000000002b1948       0x20 test/built-in.o
                0x00000000002b1948                cmd_grp_download
 .rodata.cmd_grp_misc
                0x00000000002b1968       0x20 test/built-in.o
                0x00000000002b1968                cmd_grp_misc
 .rodata.cmd_grp_name
                0x00000000002b1988       0x58 test/built-in.o
 .rodata.cmd_grp_power
                0x00000000002b19e0       0x20 test/built-in.o
                0x00000000002b19e0                cmd_grp_power
 .rodata.cmd_grp_storage
                0x00000000002b1a00       0x20 test/built-in.o
                0x00000000002b1a00                cmd_grp_storage
 .rodata.desc_and_len_tbl
                0x00000000002b1a20       0x60 cmd/built-in.o
 .rodata.designware_eth_ids
                0x00000000002b1a80       0x60 drivers/net/built-in.o
 .rodata.designware_eth_ops
                0x00000000002b1ae0       0x38 drivers/net/built-in.o
                0x00000000002b1ae0                designware_eth_ops
 .rodata.dm_dwmci_ops
                0x00000000002b1b18       0x38 drivers/built-in.o
                0x00000000002b1b18                dm_dwmci_ops
 .rodata.dmc_ids
                0x00000000002b1b50       0x20 drivers/built-in.o
 .rodata.dw_mipi_dsi_connector_funcs
                0x00000000002b1b70       0x60 drivers/built-in.o
 .rodata.dw_mipi_dsi_host_ops
                0x00000000002b1bd0       0x18 drivers/built-in.o
 .rodata.dw_mipi_dsi_ids
                0x00000000002b1be8       0xc0 drivers/built-in.o
 .rodata.dwc2_udc_ops
                0x00000000002b1ca8       0x58 drivers/usb/gadget/built-in.o
 .rodata.ehci_usb_ids
                0x00000000002b1d00       0x20 drivers/usb/host/built-in.o
 .rodata.fdt_errtable
                0x00000000002b1d20       0x90 lib/built-in.o
 .rodata.fixed_regulator_ids
                0x00000000002b1db0       0x20 drivers/power/regulator/built-in.o
 .rodata.fixed_regulator_ops
                0x00000000002b1dd0       0x68 drivers/power/regulator/built-in.o
 .rodata.fuel_gauge_info
                0x00000000002b1e38       0x60 drivers/power/pmic/built-in.o
 .rodata.g_mode_csc_coef
                0x00000000002b1e98      0xdc8 drivers/built-in.o
 .rodata.generic_simple_bus_ids
                0x00000000002b2c60       0x30 drivers/built-in.o
 .rodata.generic_syscon_ids
                0x00000000002b2c90       0x20 drivers/built-in.o
 .rodata.getvar_table
                0x00000000002b2cb0      0x2a0 drivers/usb/gadget/built-in.o
 .rodata.gmac_rockchip_eth_ops
                0x00000000002b2f50       0x38 drivers/net/built-in.o
                0x00000000002b2f50                gmac_rockchip_eth_ops
 .rodata.gpio_rockchip_ops
                0x00000000002b2f88       0x50 drivers/gpio/built-in.o
 .rodata.hub_id_table
                0x00000000002b2fd8       0x40 common/built-in.o
 .rodata.if_typename_str
                0x00000000002b3018       0x88 drivers/built-in.o
 .rodata.image  0x00000000002b30a0       0x70 drivers/power/built-in.o
 .rodata.init_sequence_f
                0x00000000002b3110      0x158 common/built-in.o
 .rodata.inno_video_mipi_dphy_max_1GHz
                0x00000000002b3268       0x10 drivers/built-in.o
                0x00000000002b3268                inno_video_mipi_dphy_max_1GHz
 .rodata.inno_video_mipi_dphy_max_2_5GHz
                0x00000000002b3278       0x10 drivers/built-in.o
                0x00000000002b3278                inno_video_mipi_dphy_max_2_5GHz
 .rodata.inno_video_phy_funcs
                0x00000000002b3288       0x38 drivers/built-in.o
 .rodata.inno_video_phy_ids
                0x00000000002b32c0       0x60 drivers/built-in.o
 .rodata.keywords
                0x00000000002b3320      0x130 cmd/built-in.o
 .rodata.mass_storage_id_table
                0x00000000002b3450       0x40 common/built-in.o
 .rodata.mmc_blk_ops
                0x00000000002b3490       0x20 drivers/built-in.o
 .rodata.ns16550_serial_ids
                0x00000000002b34b0       0xc0 drivers/serial/built-in.o
 .rodata.ns16550_serial_ops
                0x00000000002b3570       0x28 drivers/serial/built-in.o
                0x00000000002b3570                ns16550_serial_ops
 .rodata.ohci_usb_ids
                0x00000000002b3598       0x20 drivers/usb/host/built-in.o
 .rodata.op_adv
                0x00000000002b35b8      0x180 cmd/built-in.o
                0x00000000002b35b8                op_adv
 .rodata.phy_interface_strings
                0x00000000002b3738       0x90 drivers/net/phy/built-in.o
 .rodata.plat_mem_attr
                0x00000000002b37c8      0x2c0 arch/arm/mach-rockchip/built-in.o
 .rodata.pmic_children_info
                0x00000000002b3a88       0x60 drivers/power/pmic/built-in.o
 .rodata.power_key_info
                0x00000000002b3ae8       0x30 drivers/power/pmic/built-in.o
 .rodata.psci_of_match
                0x00000000002b3b18       0x40 drivers/built-in.o
 .rodata.pwm_backlight_ids
                0x00000000002b3b58       0x20 drivers/built-in.o
 .rodata.pwm_backlight_ops
                0x00000000002b3b78       0x10 drivers/built-in.o
 .rodata.pwm_data_v1
                0x00000000002b3b88       0x30 drivers/built-in.o
 .rodata.pwm_data_v2
                0x00000000002b3bb8       0x30 drivers/built-in.o
 .rodata.pwm_data_v3
                0x00000000002b3be8       0x30 drivers/built-in.o
 .rodata.pwm_data_vop
                0x00000000002b3c18       0x30 drivers/built-in.o
 .rodata.pwm_regulator_ids
                0x00000000002b3c48       0x20 drivers/power/regulator/built-in.o
 .rodata.pwm_regulator_ops
                0x00000000002b3c68       0x68 drivers/power/regulator/built-in.o
 .rodata.px30_clk_ids
                0x00000000002b3cd0       0x20 drivers/built-in.o
 .rodata.px30_gmac_ops
                0x00000000002b3cf0       0x28 drivers/net/built-in.o
                0x00000000002b3cf0                px30_gmac_ops
 .rodata.px30_lvds_funcs
                0x00000000002b3d18       0x10 drivers/built-in.o
 .rodata.px30_mipi_dsi_plat_data
                0x00000000002b3d28       0x18 drivers/built-in.o
 .rodata.px30_pin_ctrl
                0x00000000002b3d40       0x80 drivers/built-in.o
 .rodata.px30_pmuclk_ids
                0x00000000002b3dc0       0x20 drivers/built-in.o
 .rodata.px30_rgb_funcs
                0x00000000002b3de0       0x10 drivers/built-in.o
 .rodata.px30_syscon_ids
                0x00000000002b3df0       0x40 arch/arm/mach-rockchip/built-in.o
 .rodata.px30_tsadc_data
                0x00000000002b3e30       0x98 drivers/built-in.o
 .rodata.px30_vop_big
                0x00000000002b3ec8       0x50 drivers/built-in.o
                0x00000000002b3ec8                px30_vop_big
 .rodata.px30_vop_big_data
                0x00000000002b3f18       0xd0 drivers/built-in.o
 .rodata.px30_vop_lit
                0x00000000002b3fe8       0x50 drivers/built-in.o
                0x00000000002b3fe8                px30_vop_lit
 .rodata.px30_vop_lit_data
                0x00000000002b4038       0xd0 drivers/built-in.o
 .rodata.px30s_tsadc_data
                0x00000000002b4108       0x98 drivers/built-in.o
 .rodata.random_seed
                0x00000000002b41a0      0x100 drivers/built-in.o
 .rodata.reg_0_5_desc_tbl
                0x00000000002b42a0       0x60 cmd/built-in.o
 .rodata.reg_0_desc_tbl
                0x00000000002b4300       0xa0 cmd/built-in.o
 .rodata.reg_1_desc_tbl
                0x00000000002b43a0      0x100 cmd/built-in.o
 .rodata.reg_2_desc_tbl
                0x00000000002b44a0       0x10 cmd/built-in.o
 .rodata.reg_3_desc_tbl
                0x00000000002b44b0       0x30 cmd/built-in.o
 .rodata.reg_4_desc_tbl
                0x00000000002b44e0       0xc0 cmd/built-in.o
 .rodata.reg_5_desc_tbl
                0x00000000002b45a0       0xc0 cmd/built-in.o
 .rodata.rk1808_code_table
                0x00000000002b4660      0x260 drivers/built-in.o
 .rodata.rk1808_mipi_dsi_plat_data
                0x00000000002b48c0       0x18 drivers/built-in.o
 .rodata.rk1808_pin_ctrl
                0x00000000002b48d8       0x80 drivers/built-in.o
 .rodata.rk1808_rgb_funcs
                0x00000000002b4958       0x10 drivers/built-in.o
 .rodata.rk1808_tsadc_data
                0x00000000002b4968       0x98 drivers/built-in.o
 .rodata.rk1808_vop
                0x00000000002b4a00       0x50 drivers/built-in.o
                0x00000000002b4a00                rk1808_vop
 .rodata.rk1808_vop_data
                0x00000000002b4a50       0xd0 drivers/built-in.o
 .rodata.rk2928_pin_ctrl
                0x00000000002b4b20       0x80 drivers/built-in.o
 .rodata.rk3036_pin_ctrl
                0x00000000002b4ba0       0x80 drivers/built-in.o
 .rodata.rk3036_vop
                0x00000000002b4c20       0x50 drivers/built-in.o
                0x00000000002b4c20                rk3036_vop
 .rodata.rk3036_vop_data
                0x00000000002b4c70       0xd0 drivers/built-in.o
 .rodata.rk3066_tsadc_data
                0x00000000002b4d40       0x10 drivers/built-in.o
 .rodata.rk3066a_pin_ctrl
                0x00000000002b4d50       0x80 drivers/built-in.o
 .rodata.rk3066b_pin_ctrl
                0x00000000002b4dd0       0x80 drivers/built-in.o
 .rodata.rk3126_lvds_funcs
                0x00000000002b4e50       0x10 drivers/built-in.o
 .rodata.rk3126_win1_data
                0x00000000002b4e60       0xd8 drivers/built-in.o
 .rodata.rk3128_mipi_dsi_plat_data
                0x00000000002b4f38       0x18 drivers/built-in.o
 .rodata.rk3128_pin_ctrl
                0x00000000002b4f50       0x80 drivers/built-in.o
 .rodata.rk3188_pin_ctrl
                0x00000000002b4fd0       0x80 drivers/built-in.o
 .rodata.rk3228_code_table
                0x00000000002b5050      0x260 drivers/built-in.o
 .rodata.rk3228_pin_ctrl
                0x00000000002b52b0       0x80 drivers/built-in.o
 .rodata.rk3228_tsadc_data
                0x00000000002b5330       0x98 drivers/built-in.o
 .rodata.rk322x_vop
                0x00000000002b53c8       0x50 drivers/built-in.o
                0x00000000002b53c8                rk322x_vop
 .rodata.rk322x_vop_data
                0x00000000002b5418       0xd0 drivers/built-in.o
 .rodata.rk3288_code_table
                0x00000000002b54e8      0x280 drivers/built-in.o
 .rodata.rk3288_lvds_funcs
                0x00000000002b5768       0x10 drivers/built-in.o
 .rodata.rk3288_mipi_dsi_plat_data
                0x00000000002b5778       0x18 drivers/built-in.o
 .rodata.rk3288_pin_ctrl
                0x00000000002b5790       0x80 drivers/built-in.o
 .rodata.rk3288_rgb_funcs
                0x00000000002b5810       0x10 drivers/built-in.o
 .rodata.rk3288_tsadc_data
                0x00000000002b5820       0x98 drivers/built-in.o
 .rodata.rk3288_vop_big
                0x00000000002b58b8       0x50 drivers/built-in.o
                0x00000000002b58b8                rk3288_vop_big
 .rodata.rk3288_vop_big_data
                0x00000000002b5908       0xd0 drivers/built-in.o
 .rodata.rk3288_vop_lit
                0x00000000002b59d8       0x50 drivers/built-in.o
                0x00000000002b59d8                rk3288_vop_lit
 .rodata.rk3288_vop_lit_data
                0x00000000002b5a28       0xd0 drivers/built-in.o
 .rodata.rk3288_win01_data
                0x00000000002b5af8       0xd8 drivers/built-in.o
 .rodata.rk3288_win_full_scl
                0x00000000002b5bd0       0x38 drivers/built-in.o
 .rodata.rk3308_tsadc_data
                0x00000000002b5c08       0x98 drivers/built-in.o
 .rodata.rk3308_vop
                0x00000000002b5ca0       0x50 drivers/built-in.o
                0x00000000002b5ca0                rk3308_vop
 .rodata.rk3308_vop_data
                0x00000000002b5cf0       0xd0 drivers/built-in.o
 .rodata.rk3308bs_tsadc_data
                0x00000000002b5dc0       0x98 drivers/built-in.o
 .rodata.rk3328_code_table
                0x00000000002b5e58      0x270 drivers/built-in.o
 .rodata.rk3328_pin_ctrl
                0x00000000002b60c8       0x80 drivers/built-in.o
 .rodata.rk3328_tsadc_data
                0x00000000002b6148       0x98 drivers/built-in.o
 .rodata.rk3328_vop
                0x00000000002b61e0       0x50 drivers/built-in.o
                0x00000000002b61e0                rk3328_vop
 .rodata.rk3328_vop_data
                0x00000000002b6230       0xd0 drivers/built-in.o
 .rodata.rk3366_lit_win_scl
                0x00000000002b6300       0x38 drivers/built-in.o
 .rodata.rk3366_mipi_dsi_plat_data
                0x00000000002b6338       0x18 drivers/built-in.o
 .rodata.rk3366_tsadc_data
                0x00000000002b6350       0x98 drivers/built-in.o
 .rodata.rk3366_vop
                0x00000000002b63e8       0x50 drivers/built-in.o
                0x00000000002b63e8                rk3366_vop
 .rodata.rk3366_vop_data
                0x00000000002b6438       0xd0 drivers/built-in.o
 .rodata.rk3366_win0_data
                0x00000000002b6508       0xd8 drivers/built-in.o
 .rodata.rk3366_win1_data
                0x00000000002b65e0       0xd8 drivers/built-in.o
 .rodata.rk3368_code_table
                0x00000000002b66b8      0x260 drivers/built-in.o
 .rodata.rk3368_lvds_funcs
                0x00000000002b6918       0x10 drivers/built-in.o
 .rodata.rk3368_mipi_dsi_plat_data
                0x00000000002b6928       0x18 drivers/built-in.o
 .rodata.rk3368_pin_ctrl
                0x00000000002b6940       0x80 drivers/built-in.o
 .rodata.rk3368_rgb_funcs
                0x00000000002b69c0       0x10 drivers/built-in.o
 .rodata.rk3368_tsadc_data
                0x00000000002b69d0       0x98 drivers/built-in.o
 .rodata.rk3368_vop
                0x00000000002b6a68       0x50 drivers/built-in.o
                0x00000000002b6a68                rk3368_vop
 .rodata.rk3368_vop_data
                0x00000000002b6ab8       0xd0 drivers/built-in.o
 .rodata.rk3368_win23_data
                0x00000000002b6b88       0xd8 drivers/built-in.o
 .rodata.rk3399_code_table
                0x00000000002b6c60      0x260 drivers/built-in.o
 .rodata.rk3399_csc_table
                0x00000000002b6ec0       0x20 drivers/built-in.o
 .rodata.rk3399_mipi_dsi_plat_data
                0x00000000002b6ee0       0x18 drivers/built-in.o
 .rodata.rk3399_pin_ctrl
                0x00000000002b6ef8       0x80 drivers/built-in.o
 .rodata.rk3399_saradc_data
                0x00000000002b6f78       0x10 drivers/built-in.o
 .rodata.rk3399_tsadc_data
                0x00000000002b6f88       0x98 drivers/built-in.o
 .rodata.rk3399_vop_big
                0x00000000002b7020       0x50 drivers/built-in.o
                0x00000000002b7020                rk3399_vop_big
 .rodata.rk3399_vop_big_data
                0x00000000002b7070       0xd0 drivers/built-in.o
 .rodata.rk3399_vop_lit
                0x00000000002b7140       0x50 drivers/built-in.o
                0x00000000002b7140                rk3399_vop_lit
 .rodata.rk3399_vop_lit_data
                0x00000000002b7190       0xd0 drivers/built-in.o
 .rodata.rk3528_code_table
                0x00000000002b7260      0x260 drivers/built-in.o
 .rodata.rk3528_tsadc_data
                0x00000000002b74c0       0x98 drivers/built-in.o
 .rodata.rk3528_vop
                0x00000000002b7558       0x68 drivers/built-in.o
                0x00000000002b7558                rk3528_vop
 .rodata.rk3528_vop_data
                0x00000000002b75c0       0xd0 drivers/built-in.o
 .rodata.rk3562_code_table
                0x00000000002b7690      0x260 drivers/built-in.o
 .rodata.rk3562_lvds_funcs
                0x00000000002b78f0       0x10 drivers/built-in.o
 .rodata.rk3562_mipi_dsi_plat_data
                0x00000000002b7900       0x18 drivers/built-in.o
 .rodata.rk3562_rgb_funcs
                0x00000000002b7918       0x10 drivers/built-in.o
 .rodata.rk3562_tsadc_data
                0x00000000002b7928       0x98 drivers/built-in.o
 .rodata.rk3562_vop
                0x00000000002b79c0       0x68 drivers/built-in.o
                0x00000000002b79c0                rk3562_vop
 .rodata.rk3562_vop_data
                0x00000000002b7a28       0xd0 drivers/built-in.o
 .rodata.rk3568_code_table
                0x00000000002b7af8      0x260 drivers/built-in.o
 .rodata.rk3568_lvds_funcs
                0x00000000002b7d58       0x10 drivers/built-in.o
 .rodata.rk3568_mipi_dsi_plat_data
                0x00000000002b7d68       0x18 drivers/built-in.o
 .rodata.rk3568_rgb_funcs
                0x00000000002b7d80       0x10 drivers/built-in.o
 .rodata.rk3568_tsadc_data
                0x00000000002b7d90       0x98 drivers/built-in.o
 .rodata.rk3568_vop
                0x00000000002b7e28       0x68 drivers/built-in.o
                0x00000000002b7e28                rk3568_vop
 .rodata.rk3568_vop_data
                0x00000000002b7e90       0xd0 drivers/built-in.o
 .rodata.rk3588_code_table
                0x00000000002b7f60       0x80 drivers/built-in.o
 .rodata.rk3588_tsadc_data
                0x00000000002b7fe0       0x98 drivers/built-in.o
 .rodata.rk3588_vop
                0x00000000002b8078       0x68 drivers/built-in.o
                0x00000000002b8078                rk3588_vop
 .rodata.rk3588_vop_data
                0x00000000002b80e0       0xd0 drivers/built-in.o
 .rodata.rk618_dsi_bridge_funcs
                0x00000000002b81b0       0x30 drivers/built-in.o
 .rodata.rk618_dsi_host_ops
                0x00000000002b81e0       0x18 drivers/built-in.o
 .rodata.rk618_dsi_ids
                0x00000000002b81f8       0x20 drivers/built-in.o
 .rodata.rk618_lvds_bridge_funcs
                0x00000000002b8218       0x30 drivers/built-in.o
 .rodata.rk618_lvds_ids
                0x00000000002b8248       0x20 drivers/built-in.o
 .rodata.rk618_of_match
                0x00000000002b8268       0x20 drivers/built-in.o
 .rodata.rk817_codec_ids
                0x00000000002b8288       0x20 drivers/built-in.o
 .rodata.rk817_codec_info
                0x00000000002b82a8       0x30 drivers/power/pmic/built-in.o
 .rodata.rk817_codec_ops
                0x00000000002b82d8       0x28 drivers/built-in.o
 .rodata.rk8xx_buck_ops
                0x00000000002b8300       0x68 drivers/power/regulator/built-in.o
 .rodata.rk8xx_ids
                0x00000000002b8368       0x70 drivers/power/pmic/built-in.o
 .rodata.rk8xx_ldo_ops
                0x00000000002b83d8       0x68 drivers/power/regulator/built-in.o
 .rodata.rk8xx_switch_ops
                0x00000000002b8440       0x68 drivers/power/regulator/built-in.o
 .rodata.rk_pwm_ids
                0x00000000002b84a8       0x60 drivers/built-in.o
 .rodata.rk_pwm_ops
                0x00000000002b8508       0x18 drivers/built-in.o
 .rodata.rknand_blk_ops
                0x00000000002b8520       0x20 drivers/built-in.o
 .rodata.rockchip_conf_params
                0x00000000002b8540      0x120 drivers/built-in.o
 .rodata.rockchip_crypto_ids
                0x00000000002b8660       0x90 drivers/built-in.o
 .rodata.rockchip_crypto_ops
                0x00000000002b86f0       0x58 drivers/built-in.o
 .rodata.rockchip_display_ids
                0x00000000002b8748       0x20 drivers/built-in.o
 .rodata.rockchip_dmc_fsp_ids
                0x00000000002b8768       0x30 drivers/built-in.o
 .rodata.rockchip_dwmmc_ids
                0x00000000002b8798       0x30 drivers/built-in.o
 .rodata.rockchip_gmac_ids
                0x00000000002b87c8       0x20 drivers/net/built-in.o
 .rodata.rockchip_gpio_ids
                0x00000000002b87e8       0x20 drivers/gpio/built-in.o
 .rodata.rockchip_i2c_ids
                0x00000000002b8808       0x80 drivers/i2c/built-in.o
 .rodata.rockchip_i2c_ops
                0x00000000002b8888       0x30 drivers/i2c/built-in.o
 .rodata.rockchip_i2s_ids
                0x00000000002b88b8       0xa0 drivers/built-in.o
 .rodata.rockchip_i2s_ops
                0x00000000002b8958       0x28 drivers/built-in.o
 .rodata.rockchip_iodomain_match
                0x00000000002b8980      0x110 drivers/power/io-domain/built-in.o
 .rodata.rockchip_lvds_connector_funcs
                0x00000000002b8a90       0x60 drivers/built-in.o
 .rodata.rockchip_lvds_ids
                0x00000000002b8af0       0x70 drivers/built-in.o
 .rodata.rockchip_mcu_panel_funcs
                0x00000000002b8b60       0x28 drivers/built-in.o
 .rodata.rockchip_nand_ids
                0x00000000002b8b88       0x20 drivers/built-in.o
 .rodata.rockchip_panel_funcs
                0x00000000002b8ba8       0x28 drivers/built-in.o
 .rodata.rockchip_panel_ids
                0x00000000002b8bd0       0x30 drivers/built-in.o
 .rodata.rockchip_pinctrl_dt_match
                0x00000000002b8c00      0x110 drivers/built-in.o
 .rodata.rockchip_rgb_connector_funcs
                0x00000000002b8d10       0x60 drivers/built-in.o
 .rodata.rockchip_rgb_ids
                0x00000000002b8d70       0xd0 drivers/built-in.o
 .rodata.rockchip_saradc_ids
                0x00000000002b8e40       0x40 drivers/built-in.o
 .rodata.rockchip_saradc_ops
                0x00000000002b8e80       0x28 drivers/built-in.o
 .rodata.rockchip_thermal_match
                0x00000000002b8ea8      0x100 drivers/built-in.o
 .rodata.rockchip_thermal_ops
                0x00000000002b8fa8        0x8 drivers/built-in.o
 .rodata.rockchip_usb2phy_ids
                0x00000000002b8fb0       0x10 drivers/built-in.o
 .rodata.rockchip_vop2_funcs
                0x00000000002b8fc0       0x80 drivers/built-in.o
                0x00000000002b8fc0                rockchip_vop2_funcs
 .rodata.rockchip_vop_funcs
                0x00000000002b9040       0x80 drivers/built-in.o
                0x00000000002b9040                rockchip_vop_funcs
 .rodata.rockchip_vop_ids
                0x00000000002b90c0      0x160 drivers/built-in.o
 .rodata.rockchip_vp_ids
                0x00000000002b9220       0x20 drivers/built-in.o
 .rodata.root_info
                0x00000000002b9240       0x10 drivers/built-in.o
 .rodata.rpmb_err_msg
                0x00000000002b9250       0x40 drivers/built-in.o
 .rodata.rtc_info
                0x00000000002b9290       0x30 drivers/power/pmic/built-in.o
 .rodata.rv1106_rgb_funcs
                0x00000000002b92c0       0x10 drivers/built-in.o
 .rodata.rv1106_vop
                0x00000000002b92d0       0x50 drivers/built-in.o
                0x00000000002b92d0                rv1106_vop
 .rodata.rv1106_vop_data
                0x00000000002b9320       0xd0 drivers/built-in.o
 .rodata.rv1106_win1_data
                0x00000000002b93f0       0xd8 drivers/built-in.o
 .rodata.rv1108_mipi_dsi_plat_data
                0x00000000002b94c8       0x18 drivers/built-in.o
 .rodata.rv1108_pin_ctrl
                0x00000000002b94e0       0x80 drivers/built-in.o
 .rodata.rv1108_vop
                0x00000000002b9560       0x50 drivers/built-in.o
                0x00000000002b9560                rv1108_vop
 .rodata.rv1108_vop_data
                0x00000000002b95b0       0xd0 drivers/built-in.o
 .rodata.rv1126_mipi_dsi_plat_data
                0x00000000002b9680       0x18 drivers/built-in.o
 .rodata.rv1126_pin_ctrl
                0x00000000002b9698       0x80 drivers/built-in.o
 .rodata.rv1126_rgb_funcs
                0x00000000002b9718       0x10 drivers/built-in.o
 .rodata.rv1126_vop
                0x00000000002b9728       0x50 drivers/built-in.o
                0x00000000002b9728                rv1126_vop
 .rodata.rv1126_vop_data
                0x00000000002b9778       0xd0 drivers/built-in.o
 .rodata.rv1126_win2_data
                0x00000000002b9848       0xd8 drivers/built-in.o
 .rodata.samsung_14nm_mlc_rr
                0x00000000002b9920       0x68 drivers/built-in.o
 .rodata.samsung_14nm_slc_rr
                0x00000000002b9988       0x1a drivers/built-in.o
 *fill*         0x00000000002b99a2        0x6 
 .rodata.saradc_data
                0x00000000002b99a8       0x10 drivers/built-in.o
 .rodata.sha512_k
                0x00000000002b99b8      0x280 lib/built-in.o
 .rodata.simple_panel_ids
                0x00000000002b9c38       0x50 drivers/built-in.o
 .rodata.simple_panel_ops
                0x00000000002b9c88        0x8 drivers/built-in.o
 .rodata.soc_data_base
                0x00000000002b9c90       0x10 drivers/built-in.o
 .rodata.soc_data_base_sm
                0x00000000002b9ca0       0x10 drivers/built-in.o
 .rodata.soc_data_cryptov3
                0x00000000002b9cb0       0x10 drivers/built-in.o
 .rodata.soc_data_px30
                0x00000000002b9cc0       0x90 drivers/power/io-domain/built-in.o
 .rodata.soc_data_px30_pmu
                0x00000000002b9d50       0x90 drivers/power/io-domain/built-in.o
 .rodata.soc_data_rk1808
                0x00000000002b9de0       0x10 drivers/built-in.o
 .rodata.soc_data_rk3188
                0x00000000002b9df0       0x90 drivers/power/io-domain/built-in.o
 .rodata.soc_data_rk322x
                0x00000000002b9e80       0x90 drivers/power/io-domain/built-in.o
 .rodata.soc_data_rk3288
                0x00000000002b9f10       0x90 drivers/power/io-domain/built-in.o
 .rodata.soc_data_rk3308
                0x00000000002b9fa0       0x90 drivers/power/io-domain/built-in.o
 .rodata.soc_data_rk3328
                0x00000000002ba030       0x90 drivers/power/io-domain/built-in.o
 .rodata.soc_data_rk3366
                0x00000000002ba0c0       0x90 drivers/power/io-domain/built-in.o
 .rodata.soc_data_rk3368
                0x00000000002ba150       0x90 drivers/power/io-domain/built-in.o
 .rodata.soc_data_rk3368_pmu
                0x00000000002ba1e0       0x90 drivers/power/io-domain/built-in.o
 .rodata.soc_data_rk3399
                0x00000000002ba270       0x90 drivers/power/io-domain/built-in.o
 .rodata.soc_data_rk3399_pmu
                0x00000000002ba300       0x90 drivers/power/io-domain/built-in.o
 .rodata.soc_data_rk3568_pmu
                0x00000000002ba390       0x90 drivers/power/io-domain/built-in.o
 .rodata.soc_data_rv1108
                0x00000000002ba420       0x90 drivers/power/io-domain/built-in.o
 .rodata.soc_data_rv1108_pmu
                0x00000000002ba4b0       0x90 drivers/power/io-domain/built-in.o
 .rodata.soc_data_rv1126_pmu
                0x00000000002ba540       0x90 drivers/power/io-domain/built-in.o
 .rodata.syscon_reboot_match
                0x00000000002ba5d0       0x20 drivers/built-in.o
 .rodata.syscon_reboot_ops
                0x00000000002ba5f0       0x10 drivers/built-in.o
 .rodata.toshiba_15ref_value
                0x00000000002ba600       0x5f drivers/built-in.o
 *fill*         0x00000000002ba65f        0x1 
 .rodata.toshiba_3D_slc_value
                0x00000000002ba660        0xb drivers/built-in.o
 *fill*         0x00000000002ba66b        0x5 
 .rodata.toshiba_3D_tlc_value
                0x00000000002ba670      0x18f drivers/built-in.o
 *fill*         0x00000000002ba7ff        0x1 
 .rodata.toshiba_A19ref_value
                0x00000000002ba800       0x2d drivers/built-in.o
 *fill*         0x00000000002ba82d        0x3 
 .rodata.toshiba_ref_value
                0x00000000002ba830        0x8 drivers/built-in.o
 .rodata.uimage_arch
                0x00000000002ba838      0x288 common/built-in.o
 .rodata.uimage_comp
                0x00000000002baac0       0xa8 common/built-in.o
 .rodata.uimage_os
                0x00000000002bab68      0x108 common/built-in.o
 .rodata.uimage_type
                0x00000000002bac70      0x330 common/built-in.o
 .rodata.usb_hub_ids
                0x00000000002bafa0       0x20 common/built-in.o
 .rodata.usb_mass_storage_ids
                0x00000000002bafc0       0x20 common/built-in.o
 .rodata.usb_storage_ops
                0x00000000002bafe0       0x20 common/built-in.o
 .rodata.wtemp_dvfs_match
                0x00000000002bb000       0x20 drivers/power/dvfs/built-in.o
 .rodata.wtemp_dvfs_ops
                0x00000000002bb020       0x10 drivers/power/dvfs/built-in.o
 .rodata.ymtc_3D_slc_value
                0x00000000002bb030        0xa drivers/built-in.o
 *fill*         0x00000000002bb03a        0x6 
 .rodata.ymtc_3D_tlc_value
                0x00000000002bb040      0x165 drivers/built-in.o
 *fill*         0x00000000002bb1a5        0x3 
 .rodata.OpteeRpcCallback
                0x00000000002bb1a8       0x10 lib/built-in.o
 .rodata.OpteeRpcCmdRpmb
                0x00000000002bb1b8        0x4 lib/built-in.o
 .rodata.avb_append_options
                0x00000000002bb1bc        0x4 lib/built-in.o
 .rodata.bootm_decomp_image
                0x00000000002bb1c0        0x5 common/built-in.o
 *fill*         0x00000000002bb1c5        0x3 
 .rodata.cb_getvar
                0x00000000002bb1c8       0x20 drivers/usb/gadget/built-in.o
 .rodata.cc_to_error
                0x00000000002bb1e8       0x40 drivers/usb/host/built-in.o
 .rodata.cli_readline_into_buffer
                0x00000000002bb228       0x86 common/built-in.o
 *fill*         0x00000000002bb2ae        0x2 
 .rodata.compile
                0x00000000002bb2b0       0x16 lib/built-in.o
 *fill*         0x00000000002bb2c6        0x2 
 .rodata.composite_setup
                0x00000000002bb2c8       0x2a drivers/usb/gadget/built-in.o
 *fill*         0x00000000002bb2f2        0x2 
 .rodata.crc_table
                0x00000000002bb2f4      0x400 lib/built-in.o
 .rodata.crypto_algo_nbits
                0x00000000002bb6f4        0x8 drivers/built-in.o
 .rodata.crypto_sha_final
                0x00000000002bb6fc        0x8 drivers/built-in.o
 .rodata.csc_mapping_table
                0x00000000002bb704       0x80 drivers/built-in.o
 .rodata.dev_print
                0x00000000002bb784       0x1c disk/built-in.o
 .rodata.dhcp_process_options
                0x00000000002bb7a0       0x26 net/built-in.o
 *fill*         0x00000000002bb7c6        0x2 
 .rodata.do_dump_atags
                0x00000000002bb7c8       0x14 cmd/built-in.o
 .rodata.do_fdt
                0x00000000002bb7dc       0x12 cmd/built-in.o
 *fill*         0x00000000002bb7ee        0x2 
 .rodata.do_test
                0x00000000002bb7f0        0xd cmd/built-in.o
 *fill*         0x00000000002bb7fd        0x3 
 .rodata.do_usb
                0x00000000002bb800        0xe cmd/built-in.o
 *fill*         0x00000000002bb80e        0x2 
 .rodata.dw_mipi_dsi_transfer
                0x00000000002bb810       0x36 drivers/built-in.o
 *fill*         0x00000000002bb846        0x2 
 .rodata.dwc2_udc_handle_interrupt
                0x00000000002bb848       0x18 drivers/usb/gadget/built-in.o
 .rodata.env_flags_validate
                0x00000000002bb860        0x6 env/built-in.o
 *fill*         0x00000000002bb866        0x2 
 .rodata.env_flags_varaccess_mask
                0x00000000002bb868       0x10 env/built-in.o
 .rodata.fast_mode_spec
                0x00000000002bb878       0x10 drivers/i2c/built-in.o
 .rodata.fast_modeplus_spec
                0x00000000002bb888       0x10 drivers/i2c/built-in.o
 .rodata.fastboot_tx_write_str.isra.0
                0x00000000002bb898        0x8 drivers/usb/gadget/built-in.o
 .rodata.fb_read_var
                0x00000000002bb8a0       0x38 drivers/usb/gadget/built-in.o
 .rodata.fdt_next_tag
                0x00000000002bb8d8        0x9 lib/built-in.o
 *fill*         0x00000000002bb8e1        0x3 
 .rodata.file_fat_detectfs
                0x00000000002bb8e4        0x8 fs/built-in.o
 .rodata.fsg_main_thread
                0x00000000002bb8ec       0xb3 drivers/usb/gadget/built-in.o
 *fill*         0x00000000002bb99f        0x1 
 .rodata.g_hue_cos_table
                0x00000000002bb9a0      0x400 drivers/built-in.o
 .rodata.g_hue_sin_table
                0x00000000002bbda0      0x400 drivers/built-in.o
 .rodata.gc_ink_check_sblk
                0x00000000002bc1a0        0x8 drivers/built-in.o
 .rodata.get_escape_char
                0x00000000002bc1a8        0x7 lib/built-in.o
 *fill*         0x00000000002bc1af        0x1 
 .rodata.get_plane_name
                0x00000000002bc1b0        0xa drivers/built-in.o
 *fill*         0x00000000002bc1ba        0x2 
 .rodata.gpio_irq_set_type
                0x00000000002bc1bc        0x8 drivers/built-in.o
 .rodata.gpio_set_intr_type
                0x00000000002bc1c4        0x4 drivers/built-in.o
 .rodata.hotkey_run
                0x00000000002bc1c8        0x9 arch/arm/mach-rockchip/built-in.o
 *fill*         0x00000000002bc1d1        0x3 
 .rodata.if_type_uclass_id
                0x00000000002bc1d4       0x44 drivers/built-in.o
 .rodata.image_load.constprop.0
                0x00000000002bc218        0xe common/built-in.o
 *fill*         0x00000000002bc226        0x2 
 .rodata.inflate
                0x00000000002bc228       0x3a lib/built-in.o
 *fill*         0x00000000002bc262        0x2 
 .rodata.inno_mipi_dphy_timing_table_max_1GHz
                0x00000000002bc264       0x84 drivers/built-in.o
 .rodata.inno_mipi_dphy_timing_table_max_2_5GHz
                0x00000000002bc2e8       0xe4 drivers/built-in.o
 .rodata.is_hotkey
                0x00000000002bc3cc        0xa arch/arm/mach-rockchip/built-in.o
 *fill*         0x00000000002bc3d6        0x2 
 .rodata.is_yuv_output
                0x00000000002bc3d8       0x11 drivers/built-in.o
 *fill*         0x00000000002bc3e9        0x3 
 .rodata.load_and_verify_vbmeta
                0x00000000002bc3ec       0x10 lib/built-in.o
 .rodata.match  0x00000000002bc3fc       0x22 lib/built-in.o
 *fill*         0x00000000002bc41e        0x2 
 .rodata.mmc_set_capacity
                0x00000000002bc420        0x8 drivers/built-in.o
 .rodata.mmc_startup
                0x00000000002bc428       0x14 drivers/built-in.o
 .rodata.net_loop
                0x00000000002bc43c       0x18 net/built-in.o
 .rodata.nfs_handler
                0x00000000002bc454        0x7 net/built-in.o
 *fill*         0x00000000002bc45b        0x1 
 .rodata.nfs_send
                0x00000000002bc45c        0x7 net/built-in.o
 *fill*         0x00000000002bc463        0x1 
 .rodata.ohci_submit_control_msg
                0x00000000002bc464       0x24 drivers/usb/host/built-in.o
 .rodata.param_parse_atags_bootdev
                0x00000000002bc488        0x8 arch/arm/mach-rockchip/built-in.o
 .rodata.parse_pxefile_top
                0x00000000002bc490       0x37 cmd/built-in.o
 *fill*         0x00000000002bc4c7        0x1 
 .rodata.parse_stream_outer
                0x00000000002bc4c8        0xc common/built-in.o
 .rodata.part_print
                0x00000000002bc4d4       0x10 disk/built-in.o
 .rodata.playback_power_down_list
                0x00000000002bc4e4       0x28 drivers/built-in.o
 .rodata.playback_power_up_list
                0x00000000002bc50c       0x88 drivers/built-in.o
 .rodata.pll_mode_mask
                0x00000000002bc594       0x14 drivers/built-in.o
 .rodata.px30_clk_get_rate
                0x00000000002bc5a8       0x3d drivers/built-in.o
 *fill*         0x00000000002bc5e5        0x3 
 .rodata.px30_clk_set_rate
                0x00000000002bc5e8       0x76 drivers/built-in.o
 *fill*         0x00000000002bc65e        0x2 
 .rodata.px30_ctrl_data
                0x00000000002bc660      0x5ac drivers/built-in.o
 .rodata.px30_dsi_grf_reg_fields
                0x00000000002bcc0c       0x34 drivers/built-in.o
 .rodata.px30_grf_ctrl
                0x00000000002bcc40        0xc drivers/built-in.o
 .rodata.px30_i2c_get_clk
                0x00000000002bcc4c        0x4 drivers/built-in.o
 .rodata.queue_lun_state
                0x00000000002bcc50        0x4 drivers/built-in.o
 .rodata.queue_wait_first_req_completed
                0x00000000002bcc54       0x16 drivers/built-in.o
 *fill*         0x00000000002bcc6a        0x2 
 .rodata.r2y_for_y2y
                0x00000000002bcc6c       0x24 drivers/built-in.o
 .rodata.rgb_input_swap_matrix
                0x00000000002bcc90       0x24 drivers/built-in.o
 .rodata.rk1808_dsi_grf_reg_fields
                0x00000000002bccb4       0x34 drivers/built-in.o
 .rodata.rk1808_grf_ctrl
                0x00000000002bcce8        0xc drivers/built-in.o
 .rodata.rk3036_ctrl_data
                0x00000000002bccf4      0x5ac drivers/built-in.o
 .rodata.rk3036_vop_line_flag
                0x00000000002bd2a0       0x18 drivers/built-in.o
 .rodata.rk3128_dsi_grf_reg_fields
                0x00000000002bd2b8       0x34 drivers/built-in.o
 .rodata.rk3288_ctrl_data
                0x00000000002bd2ec      0x5ac drivers/built-in.o
 .rodata.rk3288_dsi0_grf_reg_fields
                0x00000000002bd898       0x34 drivers/built-in.o
 .rodata.rk3288_dsi1_grf_reg_fields
                0x00000000002bd8cc       0x34 drivers/built-in.o
 .rodata.rk3288_vop_big_grf_ctrl
                0x00000000002bd900        0xc drivers/built-in.o
 .rodata.rk3288_vop_line_flag
                0x00000000002bd90c       0x18 drivers/built-in.o
 .rodata.rk3288_vop_lit_grf_ctrl
                0x00000000002bd924        0xc drivers/built-in.o
 .rodata.rk3288_win_full_scl_ext
                0x00000000002bd930       0xfc drivers/built-in.o
 .rodata.rk3308_ctrl_data
                0x00000000002bda2c      0x5ac drivers/built-in.o
 .rodata.rk3328_ctrl_data
                0x00000000002bdfd8      0x5ac drivers/built-in.o
 .rodata.rk3328_vop_line_flag
                0x00000000002be584       0x18 drivers/built-in.o
 .rodata.rk3366_dsi_grf_reg_fields
                0x00000000002be59c       0x34 drivers/built-in.o
 .rodata.rk3366_vop_line_flag
                0x00000000002be5d0       0x18 drivers/built-in.o
 .rodata.rk3366_vop_lite_line_flag
                0x00000000002be5e8       0x18 drivers/built-in.o
 .rodata.rk3368_dsi_grf_reg_fields
                0x00000000002be600       0x34 drivers/built-in.o
 .rodata.rk3368_vop_grf_ctrl
                0x00000000002be634        0xc drivers/built-in.o
 .rodata.rk3368_vop_line_flag
                0x00000000002be640       0x18 drivers/built-in.o
 .rodata.rk3399_dsi0_grf_reg_fields
                0x00000000002be658       0x34 drivers/built-in.o
 .rodata.rk3399_dsi1_grf_reg_fields
                0x00000000002be68c       0x34 drivers/built-in.o
 .rodata.rk3399_win0_csc
                0x00000000002be6c0       0x30 drivers/built-in.o
 .rodata.rk3399_win2_csc
                0x00000000002be6f0       0x30 drivers/built-in.o
 .rodata.rk3562_dsi_grf_reg_fields
                0x00000000002be720       0x34 drivers/built-in.o
 .rodata.rk3568_dsi0_grf_reg_fields
                0x00000000002be754       0x34 drivers/built-in.o
 .rodata.rk3568_dsi1_grf_reg_fields
                0x00000000002be788       0x34 drivers/built-in.o
 .rodata.rk618_dsi_host_transfer
                0x00000000002be7bc       0x26 drivers/built-in.o
 *fill*         0x00000000002be7e2        0x2 
 .rodata.rk805_irqs
                0x00000000002be7e4       0x10 drivers/power/pmic/built-in.o
 .rodata.rk808_buck
                0x00000000002be7f4       0x40 drivers/power/regulator/built-in.o
 .rodata.rk808_irqs
                0x00000000002be834       0x18 drivers/power/pmic/built-in.o
 .rodata.rk808_ldo
                0x00000000002be84c       0x80 drivers/power/regulator/built-in.o
 .rodata.rk809_buck5
                0x00000000002be8cc       0x40 drivers/power/regulator/built-in.o
 .rodata.rk816_buck
                0x00000000002be90c       0x80 drivers/power/regulator/built-in.o
 .rodata.rk816_irqs
                0x00000000002be98c       0x28 drivers/power/pmic/built-in.o
 .rodata.rk816_ldo
                0x00000000002be9b4       0x60 drivers/power/regulator/built-in.o
 .rodata.rk817_buck
                0x00000000002bea14       0xc0 drivers/power/regulator/built-in.o
 .rodata.rk817_irqs
                0x00000000002bead4       0x20 drivers/power/pmic/built-in.o
 .rodata.rk817_ldo
                0x00000000002beaf4      0x120 drivers/power/regulator/built-in.o
 .rodata.rk817_startup
                0x00000000002bec14        0xb drivers/built-in.o
 *fill*         0x00000000002bec1f        0x1 
 .rodata.rk818_buck
                0x00000000002bec20       0x40 drivers/power/regulator/built-in.o
 .rodata.rk818_irqs
                0x00000000002bec60       0x28 drivers/power/pmic/built-in.o
 .rodata.rk818_ldo
                0x00000000002bec88       0x80 drivers/power/regulator/built-in.o
 .rodata.rk_csc_table_hdy_cb_cr_limit_to_rgb_full
                0x00000000002bed08       0x24 drivers/built-in.o
 .rodata.rk_csc_table_hdy_cb_cr_limit_to_rgb_limit
                0x00000000002bed2c       0x24 drivers/built-in.o
 .rodata.rk_csc_table_hdy_cb_cr_to_rgb_full
                0x00000000002bed50       0x24 drivers/built-in.o
 .rodata.rk_csc_table_hdy_cb_cr_to_rgb_limit
                0x00000000002bed74       0x24 drivers/built-in.o
 .rodata.rk_csc_table_hdy_cb_cr_to_xv_yccsdy_cb_cr
                0x00000000002bed98       0x24 drivers/built-in.o
 .rodata.rk_csc_table_identity_601_limit_to_709_full
                0x00000000002bedbc       0x24 drivers/built-in.o
 .rodata.rk_csc_table_identity_709_limit_to_601_full
                0x00000000002bede0       0x24 drivers/built-in.o
 .rodata.rk_csc_table_identity_rgb_full_to_yuv_full_2020
                0x00000000002bee04       0x24 drivers/built-in.o
 .rodata.rk_csc_table_identity_rgb_full_to_yuv_limit_2020
                0x00000000002bee28       0x24 drivers/built-in.o
 .rodata.rk_csc_table_identity_rgb_limit_to_rgb
                0x00000000002bee4c       0x24 drivers/built-in.o
 .rodata.rk_csc_table_identity_rgb_limit_to_yuv_full_2020
                0x00000000002bee70       0x24 drivers/built-in.o
 .rodata.rk_csc_table_identity_rgb_limit_to_yuv_limit_2020
                0x00000000002bee94       0x24 drivers/built-in.o
 .rodata.rk_csc_table_identity_rgb_to_rgb
                0x00000000002beeb8       0x24 drivers/built-in.o
 .rodata.rk_csc_table_identity_rgb_to_rgb_limit
                0x00000000002beedc       0x24 drivers/built-in.o
 .rodata.rk_csc_table_identity_y_cb_cr_601_full_to_y_cb_cr_709_limit
                0x00000000002bef00       0x24 drivers/built-in.o
 .rodata.rk_csc_table_identity_y_cb_cr_709_full_to_y_cb_cr_601_limit
                0x00000000002bef24       0x24 drivers/built-in.o
 .rodata.rk_csc_table_identity_y_cb_cr_full_to_y_cb_cr_limit
                0x00000000002bef48       0x24 drivers/built-in.o
 .rodata.rk_csc_table_identity_y_cb_cr_limit_to_y_cb_cr_full
                0x00000000002bef6c       0x24 drivers/built-in.o
 .rodata.rk_csc_table_identity_y_cb_cr_to_y_cb_cr
                0x00000000002bef90       0x24 drivers/built-in.o
 .rodata.rk_csc_table_identity_yuv_to_rgb_2020
                0x00000000002befb4       0x24 drivers/built-in.o
 .rodata.rk_csc_table_rgb_limit_to_hdy_cb_cr
                0x00000000002befd8       0x24 drivers/built-in.o
 .rodata.rk_csc_table_rgb_limit_to_hdy_cb_cr_full
                0x00000000002beffc       0x24 drivers/built-in.o
 .rodata.rk_csc_table_rgb_limit_to_xv_yccsdy_cb_cr
                0x00000000002bf020       0x24 drivers/built-in.o
 .rodata.rk_csc_table_rgb_limit_to_xv_yccsdy_cb_cr_full
                0x00000000002bf044       0x24 drivers/built-in.o
 .rodata.rk_csc_table_rgb_to_hdy_cb_cr
                0x00000000002bf068       0x24 drivers/built-in.o
 .rodata.rk_csc_table_rgb_to_hdy_cb_cr_full
                0x00000000002bf08c       0x24 drivers/built-in.o
 .rodata.rk_csc_table_rgb_to_xv_yccsdy_cb_cr
                0x00000000002bf0b0       0x24 drivers/built-in.o
 .rodata.rk_csc_table_rgb_to_xv_yccsdy_cb_cr_full
                0x00000000002bf0d4       0x24 drivers/built-in.o
 .rodata.rk_csc_table_xv_yccsdy_cb_cr_limit_to_rgb_full
                0x00000000002bf0f8       0x24 drivers/built-in.o
 .rodata.rk_csc_table_xv_yccsdy_cb_cr_limit_to_rgb_limit
                0x00000000002bf11c       0x24 drivers/built-in.o
 .rodata.rk_csc_table_xv_yccsdy_cb_cr_to_hdy_cb_cr
                0x00000000002bf140       0x24 drivers/built-in.o
 .rodata.rk_csc_table_xv_yccsdy_cb_cr_to_rgb_full
                0x00000000002bf164       0x24 drivers/built-in.o
 .rodata.rk_csc_table_xv_yccsdy_cb_cr_to_rgb_limit
                0x00000000002bf188       0x24 drivers/built-in.o
 .rodata.rk_dc_csc_table_hdy_cb_cr_full_to_xv_yccsdy_cb_cr_full
                0x00000000002bf1ac       0x18 drivers/built-in.o
 .rodata.rk_dc_csc_table_hdy_cb_cr_limit_to_rgb_full
                0x00000000002bf1c4       0x18 drivers/built-in.o
 .rodata.rk_dc_csc_table_hdy_cb_cr_limit_to_rgb_limit
                0x00000000002bf1dc       0x18 drivers/built-in.o
 .rodata.rk_dc_csc_table_hdy_cb_cr_to_rgb_full
                0x00000000002bf1f4       0x18 drivers/built-in.o
 .rodata.rk_dc_csc_table_hdy_cb_cr_to_rgb_limit
                0x00000000002bf20c       0x18 drivers/built-in.o
 .rodata.rk_dc_csc_table_hdy_cb_cr_to_xv_yccsdy_cb_cr
                0x00000000002bf224       0x18 drivers/built-in.o
 .rodata.rk_dc_csc_table_identity_601_limit_to_709_full
                0x00000000002bf23c       0x18 drivers/built-in.o
 .rodata.rk_dc_csc_table_identity_709_limit_to_601_full
                0x00000000002bf254       0x18 drivers/built-in.o
 .rodata.rk_dc_csc_table_identity_rgb_full_to_yuv_full_2020
                0x00000000002bf26c       0x18 drivers/built-in.o
 .rodata.rk_dc_csc_table_identity_rgb_full_to_yuv_limit_2020
                0x00000000002bf284       0x18 drivers/built-in.o
 .rodata.rk_dc_csc_table_identity_rgb_limit_to_rgb
                0x00000000002bf29c       0x18 drivers/built-in.o
 .rodata.rk_dc_csc_table_identity_rgb_limit_to_yuv_full_2020
                0x00000000002bf2b4       0x18 drivers/built-in.o
 .rodata.rk_dc_csc_table_identity_rgb_limit_to_yuv_limit_2020
                0x00000000002bf2cc       0x18 drivers/built-in.o
 .rodata.rk_dc_csc_table_identity_rgb_to_rgb1
                0x00000000002bf2e4       0x18 drivers/built-in.o
 .rodata.rk_dc_csc_table_identity_rgb_to_rgb2
                0x00000000002bf2fc       0x18 drivers/built-in.o
 .rodata.rk_dc_csc_table_identity_rgb_to_rgb_limit
                0x00000000002bf314       0x18 drivers/built-in.o
 .rodata.rk_dc_csc_table_identity_y_cb_cr_601_full_to_y_cb_cr_709_limit
                0x00000000002bf32c       0x18 drivers/built-in.o
 .rodata.rk_dc_csc_table_identity_y_cb_cr_709_full_to_y_cb_cr_601_limit
                0x00000000002bf344       0x18 drivers/built-in.o
 .rodata.rk_dc_csc_table_identity_y_cb_cr_full_to_y_cb_cr_limit
                0x00000000002bf35c       0x18 drivers/built-in.o
 .rodata.rk_dc_csc_table_identity_y_cb_cr_limit_to_y_cb_cr_full
                0x00000000002bf374       0x18 drivers/built-in.o
 .rodata.rk_dc_csc_table_identity_yuv_to_rgb_2020
                0x00000000002bf38c       0x18 drivers/built-in.o
 .rodata.rk_dc_csc_table_rgb_limit_to_hdy_cb_cr
                0x00000000002bf3a4       0x18 drivers/built-in.o
 .rodata.rk_dc_csc_table_rgb_limit_to_hdy_cb_cr_full
                0x00000000002bf3bc       0x18 drivers/built-in.o
 .rodata.rk_dc_csc_table_rgb_limit_to_xv_yccsdy_cb_cr
                0x00000000002bf3d4       0x18 drivers/built-in.o
 .rodata.rk_dc_csc_table_rgb_limit_to_xv_yccsdy_cb_cr_full
                0x00000000002bf3ec       0x18 drivers/built-in.o
 .rodata.rk_dc_csc_table_rgb_to_hdy_cb_cr
                0x00000000002bf404       0x18 drivers/built-in.o
 .rodata.rk_dc_csc_table_rgb_to_hdy_cb_cr_full
                0x00000000002bf41c       0x18 drivers/built-in.o
 .rodata.rk_dc_csc_table_rgb_to_xv_yccsdy_cb_cr
                0x00000000002bf434       0x18 drivers/built-in.o
 .rodata.rk_dc_csc_table_rgb_to_xv_yccsdy_cb_cr_full
                0x00000000002bf44c       0x18 drivers/built-in.o
 .rodata.rk_dc_csc_table_xv_yccsdy_cb_cr_limit_to_rgb_full
                0x00000000002bf464       0x18 drivers/built-in.o
 .rodata.rk_dc_csc_table_xv_yccsdy_cb_cr_limit_to_rgb_limit
                0x00000000002bf47c       0x18 drivers/built-in.o
 .rodata.rk_dc_csc_table_xv_yccsdy_cb_cr_to_hdy_cb_cr
                0x00000000002bf494       0x18 drivers/built-in.o
 .rodata.rk_dc_csc_table_xv_yccsdy_cb_cr_to_rgb_full
                0x00000000002bf4ac       0x18 drivers/built-in.o
 .rodata.rk_dc_csc_table_xv_yccsdy_cb_cr_to_rgb_limit
                0x00000000002bf4c4       0x18 drivers/built-in.o
 .rodata.rockchip_crypto_sha_init
                0x00000000002bf4dc        0x8 drivers/built-in.o
 .rodata.rockchip_get_boot_mode
                0x00000000002bf4e4        0xf arch/arm/mach-rockchip/built-in.o
 *fill*         0x00000000002bf4f3        0x1 
 .rodata.rockchip_panel_send_dsi_cmds.part.0
                0x00000000002bf4f4        0x8 drivers/built-in.o
 .rodata.rockchip_perpin_drv_list
                0x00000000002bf4fc      0x160 drivers/built-in.o
 .rodata.rockchip_pinctrl_set_state
                0x00000000002bf65c       0x44 drivers/built-in.o
 .rodata.rockchip_pull_list
                0x00000000002bf6a0       0x40 drivers/built-in.o
 .rodata.rockchip_set_pull
                0x00000000002bf6e0        0xc drivers/built-in.o
 .rodata.rockchip_vop2_init
                0x00000000002bf6ec       0x1c drivers/built-in.o
 .rodata.rockchip_vop_init
                0x00000000002bf708       0x20 drivers/built-in.o
 .rodata.rockchip_vop_set_plane
                0x00000000002bf728       0x16 drivers/built-in.o
 *fill*         0x00000000002bf73e        0x2 
 .rodata.rv1106_ctrl_data
                0x00000000002bf740      0x5ac drivers/built-in.o
 .rodata.rv1106_grf_ctrl
                0x00000000002bfcec        0xc drivers/built-in.o
 .rodata.rv1106_vop_lite_line_flag
                0x00000000002bfcf8       0x18 drivers/built-in.o
 .rodata.rv1108_dsi_grf_reg_fields
                0x00000000002bfd10       0x34 drivers/built-in.o
 .rodata.rv1126_ctrl_data
                0x00000000002bfd44      0x5ac drivers/built-in.o
 .rodata.rv1126_dsi_grf_reg_fields
                0x00000000002c02f0       0x34 drivers/built-in.o
 .rodata.rv1126_grf_ctrl
                0x00000000002c0324        0xc drivers/built-in.o
 .rodata.sd_au_size
                0x00000000002c0330       0x40 drivers/built-in.o
 .rodata.setup_boot_mode
                0x00000000002c0370        0x4 arch/arm/mach-rockchip/built-in.o
 .rodata.sin_table
                0x00000000002c0374      0x16c drivers/built-in.o
 .rodata.sleep_thread
                0x00000000002c04e0        0x8 drivers/usb/gadget/built-in.o
 .rodata.spi_slave_ofdata_to_platdata
                0x00000000002c04e8       0x10 drivers/spi/built-in.o
 .rodata.standard_mode_spec
                0x00000000002c04f8       0x10 drivers/i2c/built-in.o
 .rodata.tee_supp_rk_fs_process_v1
                0x00000000002c0508       0x16 lib/built-in.o
 *fill*         0x00000000002c051e        0x2 
 .rodata.tee_supp_rk_fs_process_v2
                0x00000000002c0520       0x16 lib/built-in.o
 *fill*         0x00000000002c0536        0x2 
 .rodata.tftp_send
                0x00000000002c0538        0x7 net/built-in.o
 *fill*         0x00000000002c053f        0x1 
 .rodata.usb_display_class_sub
                0x00000000002c0540        0x6 cmd/built-in.o
 *fill*         0x00000000002c0546        0x2 
 .rodata.usb_get_class_desc
                0x00000000002c0548        0xb cmd/built-in.o
 *fill*         0x00000000002c0553        0x1 
 .rodata.uuid_bin_to_str
                0x00000000002c0554        0x7 lib/built-in.o
 *fill*         0x00000000002c055b        0x1 
 .rodata.vendor_storage_test
                0x00000000002c055c       0x16 arch/arm/mach-rockchip/built-in.o
 *fill*         0x00000000002c0572        0x2 
 .rodata.vidconsole_put_char
                0x00000000002c0574        0x7 drivers/built-in.o
 *fill*         0x00000000002c057b        0x1 
 .rodata.vop2_convert_csc_mode
                0x00000000002c057c        0xb drivers/built-in.o
 *fill*         0x00000000002c0587        0x1 
 .rodata.vop_csc_r2y_bt2020
                0x00000000002c0588       0x20 drivers/built-in.o
 .rodata.vop_csc_r2y_bt601
                0x00000000002c05a8       0x20 drivers/built-in.o
 .rodata.vop_csc_r2y_bt601_12_235
                0x00000000002c05c8       0x20 drivers/built-in.o
 .rodata.vop_csc_r2y_bt709
                0x00000000002c05e8       0x20 drivers/built-in.o
 .rodata.vsnprintf_internal
                0x00000000002c0608       0x2c lib/built-in.o
 .rodata.write_sparse_image
                0x00000000002c0634        0x8 common/built-in.o
 .rodata.y2r_for_y2y
                0x00000000002c063c       0x24 drivers/built-in.o
 .rodata.yuv_output_swap_matrix
                0x00000000002c0660       0x24 drivers/built-in.o
 .rodata.zftl_do_gc
                0x00000000002c0684        0xe drivers/built-in.o
 .rodata.CSWTCH.243
                0x00000000002c0692        0x6 common/built-in.o
 .rodata.CSWTCH.69
                0x00000000002c0698        0x6 drivers/built-in.o
 .rodata.dbase.2
                0x00000000002c069e       0x40 lib/built-in.o
 .rodata.dext.1
                0x00000000002c06de       0x40 lib/built-in.o
 .rodata.distfix
                0x00000000002c071e       0x80 lib/built-in.o
 .rodata.lbase.4
                0x00000000002c079e       0x3e lib/built-in.o
 .rodata.lenfix
                0x00000000002c07dc      0x800 lib/built-in.o
 .rodata.lext.3
                0x00000000002c0fdc       0x3e lib/built-in.o
 .rodata.order.0
                0x00000000002c101a       0x26 lib/built-in.o
 .rodata.vsnprintf_internal.str2.2
                0x00000000002c1040        0xe lib/built-in.o
 .rodata        0x00000000002c104e       0x10 disk/built-in.o
 .rodata        0x00000000002c105e       0x3f drivers/usb/host/built-in.o
 .rodata        0x00000000002c109d        0x7 net/built-in.o
 .rodata        0x00000000002c10a4      0x200 test/built-in.o
 .rodata.CSWTCH.112
                0x00000000002c12a4        0x3 drivers/usb/host/built-in.o
 .rodata.CSWTCH.21
                0x00000000002c12a7        0x3 drivers/built-in.o
 .rodata.CSWTCH.27
                0x00000000002c12aa        0x3 drivers/built-in.o
 .rodata.CSWTCH.30
                0x00000000002c12ad        0x4 drivers/built-in.o
 .rodata.CSWTCH.33
                0x00000000002c12b1       0x16 common/built-in.o
 .rodata.CSWTCH.37
                0x00000000002c12c7        0x4 drivers/built-in.o
 .rodata.CSWTCH.4
                0x00000000002c12cb        0xc drivers/built-in.o
 .rodata.CSWTCH.8
                0x00000000002c12d7        0x4 drivers/built-in.o
 .rodata.CSWTCH.85
                0x00000000002c12db        0xb drivers/built-in.o
 .rodata.OpteeClientApiLibInitialize.str1.1
                0x00000000002c12e6       0xa0 lib/built-in.o
 .rodata.OpteeRpcCallback.str1.1
                0x00000000002c1386       0x4e lib/built-in.o
 .rodata.TEEC_FinalizeContext.str1.1
                0x00000000002c13d4       0x19 lib/built-in.o
 .rodata.TEEC_InitializeContext.str1.1
                0x00000000002c13ed       0x38 lib/built-in.o
 .rodata.__FUNCTION__.0
                0x00000000002c1425       0x17 common/built-in.o
 .rodata.__FUNCTION__.1
                0x00000000002c143c       0x17 common/built-in.o
 .rodata.__do_arch_irq_init.str1.1
                0x00000000002c1453      0x116 drivers/built-in.o
 .rodata.__func__.0
                0x00000000002c1569       0x85 arch/arm/mach-rockchip/built-in.o
 .rodata.__func__.0
                0x00000000002c15ee       0x57 cmd/built-in.o
 .rodata.__func__.0
                0x00000000002c1645       0x9c common/built-in.o
 .rodata.__func__.0
                0x00000000002c16e1       0x46 disk/built-in.o
 .rodata.__func__.0
                0x00000000002c1727      0x189 drivers/built-in.o
 .rodata.__func__.0
                0x00000000002c18b0       0x11 drivers/power/io-domain/built-in.o
 .rodata.__func__.0
                0x00000000002c18c1        0xc drivers/power/pmic/built-in.o
 .rodata.__func__.0
                0x00000000002c18cd       0x21 drivers/usb/gadget/built-in.o
 .rodata.__func__.0
                0x00000000002c18ee       0x17 drivers/usb/host/built-in.o
 .rodata.__func__.0
                0x00000000002c1905        0xb fs/built-in.o
 .rodata.__func__.0
                0x00000000002c1910       0x98 lib/built-in.o
 .rodata.__func__.0
                0x00000000002c19a8       0x18 test/built-in.o
 .rodata.__func__.1
                0x00000000002c19c0        0xb arch/arm/mach-rockchip/built-in.o
 .rodata.__func__.1
                0x00000000002c19cb       0x28 cmd/built-in.o
 .rodata.__func__.1
                0x00000000002c19f3       0x52 common/built-in.o
 .rodata.__func__.1
                0x00000000002c1a45       0x23 disk/built-in.o
 .rodata.__func__.1
                0x00000000002c1a68       0xae drivers/built-in.o
 .rodata.__func__.1
                0x00000000002c1b16        0xb drivers/power/pmic/built-in.o
 .rodata.__func__.1
                0x00000000002c1b21       0x1f drivers/usb/gadget/built-in.o
 .rodata.__func__.1
                0x00000000002c1b40       0x3a lib/built-in.o
 .rodata.__func__.1
                0x00000000002c1b7a       0x12 test/built-in.o
 .rodata.__func__.10
                0x00000000002c1b8c        0xf disk/built-in.o
 .rodata.__func__.10
                0x00000000002c1b9b       0x17 lib/built-in.o
 .rodata.__func__.11
                0x00000000002c1bb2       0x17 disk/built-in.o
 .rodata.__func__.11
                0x00000000002c1bc9       0x25 lib/built-in.o
 .rodata.__func__.12
                0x00000000002c1bee        0xd disk/built-in.o
 .rodata.__func__.12
                0x00000000002c1bfb        0xd drivers/usb/gadget/built-in.o
 .rodata.__func__.12
                0x00000000002c1c08       0x12 lib/built-in.o
 .rodata.__func__.13
                0x00000000002c1c1a        0xe disk/built-in.o
 .rodata.__func__.13
                0x00000000002c1c28       0x10 lib/built-in.o
 .rodata.__func__.14
                0x00000000002c1c38       0x16 lib/built-in.o
 .rodata.__func__.15
                0x00000000002c1c4e       0x15 lib/built-in.o
 .rodata.__func__.2
                0x00000000002c1c63       0x14 arch/arm/mach-rockchip/built-in.o
 .rodata.__func__.2
                0x00000000002c1c77       0x33 common/built-in.o
 .rodata.__func__.2
                0x00000000002c1caa       0x25 disk/built-in.o
 .rodata.__func__.2
                0x00000000002c1ccf       0xb8 drivers/built-in.o
 .rodata.__func__.2
                0x00000000002c1d87       0x18 drivers/power/built-in.o
 .rodata.__func__.2
                0x00000000002c1d9f        0xc drivers/power/pmic/built-in.o
 .rodata.__func__.2
                0x00000000002c1dab       0x45 lib/built-in.o
 .rodata.__func__.3
                0x00000000002c1df0       0x15 arch/arm/mach-rockchip/built-in.o
 .rodata.__func__.3
                0x00000000002c1e05       0x29 common/built-in.o
 .rodata.__func__.3
                0x00000000002c1e2e        0xc disk/built-in.o
 .rodata.__func__.3
                0x00000000002c1e3a       0xcb drivers/built-in.o
 .rodata.__func__.3
                0x00000000002c1f05       0x41 lib/built-in.o
 .rodata.__func__.4
                0x00000000002c1f46       0x12 common/built-in.o
 .rodata.__func__.4
                0x00000000002c1f58       0x13 disk/built-in.o
 .rodata.__func__.4
                0x00000000002c1f6b       0x4a drivers/built-in.o
 .rodata.__func__.4
                0x00000000002c1fb5       0x45 lib/built-in.o
 .rodata.__func__.5
                0x00000000002c1ffa       0x12 disk/built-in.o
 .rodata.__func__.5
                0x00000000002c200c       0x52 drivers/built-in.o
 .rodata.__func__.5
                0x00000000002c205e       0x45 lib/built-in.o
 .rodata.__func__.6
                0x00000000002c20a3       0x21 drivers/built-in.o
 .rodata.__func__.6
                0x00000000002c20c4       0x11 lib/built-in.o
 .rodata.__func__.7
                0x00000000002c20d5        0xe drivers/built-in.o
 .rodata.__func__.7
                0x00000000002c20e3       0x19 lib/built-in.o
 .rodata.__func__.8
                0x00000000002c20fc       0x12 drivers/built-in.o
 .rodata.__func__.8
                0x00000000002c210e       0x1b lib/built-in.o
 .rodata.__func__.9
                0x00000000002c2129        0xd disk/built-in.o
 .rodata.__func__.9
                0x00000000002c2136       0x12 drivers/built-in.o
 .rodata.__func__.9
                0x00000000002c2148       0x1d lib/built-in.o
 .rodata.__generic_gpio_handle_irq.str1.1
                0x00000000002c2165       0x24 drivers/built-in.o
 .rodata.__of_parse_phandle_with_args.constprop.0.str1.1
                0x00000000002c2189       0x31 drivers/built-in.o
 .rodata.__virq_enable.str1.1
                0x00000000002c21ba       0x26 drivers/built-in.o
 .rodata._ctype
                0x00000000002c21e0      0x100 lib/built-in.o
                0x00000000002c21e0                _ctype
 .rodata._do_env_set.constprop.0.str1.1
                0x00000000002c22e0       0x7c cmd/built-in.o
 .rodata._do_help.str1.1
                0x00000000002c235c       0x5f common/built-in.o
 .rodata._ehci_create_int_queue.constprop.0.str1.1
                0x00000000002c23bb       0x3d drivers/usb/host/built-in.o
 .rodata._ehci_destroy_int_queue.isra.0.str1.1
                0x00000000002c23f8       0x2d drivers/usb/host/built-in.o
 .rodata._gpio_request_by_name_nodev.str1.1
                0x00000000002c2425        0xc drivers/gpio/built-in.o
 .rodata._list_remove_node.str1.1
                0x00000000002c2431       0x22 drivers/built-in.o
 .rodata.adc_key_bus_bind.str1.1
                0x00000000002c2453        0x8 drivers/built-in.o
 .rodata.adc_key_ofdata_to_platdata.str1.1
                0x00000000002c245b       0x72 drivers/built-in.o
                                         0x78 (size before relaxing)
 .rodata.adc_pre_probe.str1.1
                0x00000000002c24cd       0x2c drivers/built-in.o
 .rodata.addBootConfigTrailer.str1.1
                0x00000000002c24f9        0xd lib/built-in.o
 .rodata.android_assemble_cmdline.str1.1
                0x00000000002c2506       0x2c common/built-in.o
                                         0x34 (size before relaxing)
 .rodata.android_bcb_msg_sector_offset.str1.1
                0x00000000002c2532       0x21 common/built-in.o
                                         0x32 (size before relaxing)
 .rodata.android_bcb_write.str1.1
                0x00000000002c2553       0x37 common/built-in.o
                                         0x53 (size before relaxing)
 .rodata.android_bootloader_boot_flow.str1.1
                0x00000000002c258a      0x1c9 common/built-in.o
                                        0x204 (size before relaxing)
 .rodata.android_bootloader_boot_kernel.str1.1
                0x00000000002c2753       0x47 common/built-in.o
                                         0x81 (size before relaxing)
 .rodata.android_bootloader_message_load.str1.1
                0x00000000002c279a       0x24 common/built-in.o
 .rodata.android_bootloader_message_write.str1.1
                0x00000000002c27be       0x3e common/built-in.o
 .rodata.android_dt_get_fdt_by_index.str1.1
                0x00000000002c27fc       0x29 common/built-in.o
 .rodata.android_dt_print_contents.str1.1
                0x00000000002c2825      0x1ed common/built-in.o
                                        0x1fa (size before relaxing)
 .rodata.android_fdt_overlay_apply.str1.1
                0x00000000002c2a12       0xde common/built-in.o
                                         0xe3 (size before relaxing)
 .rodata.android_image_check_header.str1.1
                0x00000000002c2af0        0x9 common/built-in.o
 .rodata.android_image_get_comp_addr.str1.1
                0x00000000002c2af9       0x28 common/built-in.o
 .rodata.android_image_get_kernel.str1.1
                0x00000000002c2b21       0x6f common/built-in.o
                                         0x7a (size before relaxing)
 .rodata.android_image_get_ramdisk.str1.1
                0x00000000002c2b90       0xb7 common/built-in.o
 .rodata.android_image_init_resource.str1.1
                0x00000000002c2c47       0x16 common/built-in.o
                                         0x1f (size before relaxing)
 .rodata.android_image_load.str1.1
                0x00000000002c2c5d       0x34 common/built-in.o
 .rodata.android_image_load_by_partname.str1.1
                0x00000000002c2c91       0x19 common/built-in.o
 .rodata.android_image_separate.str1.1
                0x00000000002c2caa       0x1a common/built-in.o
                                         0x2b (size before relaxing)
 .rodata.android_image_set_decomp.str1.1
                0x00000000002c2cc4        0x8 common/built-in.o
                                         0x16 (size before relaxing)
 .rodata.android_image_verify_resource.str1.1
                0x00000000002c2ccc        0xf common/built-in.o
 .rodata.android_print_contents.str1.1
                0x00000000002c2cdb      0x303 common/built-in.o
                                        0x307 (size before relaxing)
 .rodata.android_slot_verify.str1.1
                0x00000000002c2fde      0x1c6 common/built-in.o
                                        0x22a (size before relaxing)
 .rodata.announce_dram_init.str1.1
                0x00000000002c31a4        0x8 common/built-in.o
 .rodata.announce_serial.str1.1
                0x00000000002c31ac       0x26 common/built-in.o
 .rodata.anx6345_read_edid.str1.1
                0x00000000002c31d2       0x14 drivers/built-in.o
 .rodata.arch_fixup_fdt.str1.1
                0x00000000002c31e6       0x33 arch/arm/lib/built-in.o
 .rodata.arp_receive.str1.1
                0x00000000002c3219       0x14 net/built-in.o
 .rodata.arp_request.str1.1
                0x00000000002c322d       0x2a net/built-in.o
 .rodata.arp_timeout_check.str1.1
                0x00000000002c3257       0x2b net/built-in.o
 .rodata.atags_bad_magic.str1.1
                0x00000000002c3282       0x1a arch/arm/mach-rockchip/built-in.o
 .rodata.atags_overflow.str1.1
                0x00000000002c329c       0x11 arch/arm/mach-rockchip/built-in.o
 .rodata.autoboot_command.str1.1
                0x00000000002c32ad       0x37 common/built-in.o
 .rodata.autowake_timer_handler.str1.1
                0x00000000002c32e4       0x19 drivers/power/built-in.o
 .rodata.avb_ab_data_read.str1.1
                0x00000000002c32fd       0x77 lib/built-in.o
 .rodata.avb_ab_data_verify_and_byteswap.str1.1
                0x00000000002c3374       0x3c lib/built-in.o
                                         0x51 (size before relaxing)
 .rodata.avb_ab_data_write.str1.1
                0x00000000002c33b0       0x1d lib/built-in.o
                                         0x22 (size before relaxing)
 .rodata.avb_add_root_digest_substitution.str1.1
                0x00000000002c33cd       0x15 lib/built-in.o
 .rodata.avb_append_options.str1.1
                0x00000000002c33e2      0x1b1 lib/built-in.o
                                        0x1dc (size before relaxing)
 .rodata.avb_atx_generate_unlock_challenge.str1.1
                0x00000000002c3593       0x2a lib/built-in.o
                                         0x2e (size before relaxing)
 .rodata.avb_atx_validate_vbmeta_public_key.str1.1
                0x00000000002c35bd      0x187 lib/built-in.o
                                        0x18b (size before relaxing)
 .rodata.avb_chain_partition_descriptor_validate_and_byteswap.str1.1
                0x00000000002c3744       0xd6 lib/built-in.o
                                         0xe1 (size before relaxing)
 .rodata.avb_descriptor_foreach.str1.1
                0x00000000002c381a       0xe3 lib/built-in.o
                                         0xec (size before relaxing)
 .rodata.avb_descriptor_validate_and_byteswap.str1.1
                0x00000000002c38fd       0x4b lib/built-in.o
                                         0x57 (size before relaxing)
 .rodata.avb_footer_validate_and_byteswap.str1.1
                0x00000000002c3948       0x60 lib/built-in.o
                                         0x6f (size before relaxing)
 .rodata.avb_hash_descriptor_validate_and_byteswap.str1.1
                0x00000000002c39a8       0x4a lib/built-in.o
                                         0xa0 (size before relaxing)
 .rodata.avb_hashtree_descriptor_validate_and_byteswap.str1.1
                0x00000000002c39f2       0x52 lib/built-in.o
                                         0xa8 (size before relaxing)
 .rodata.avb_image_distribute_prepare.constprop.0.str1.1
                0x00000000002c3a44       0x1a common/built-in.o
                                         0x47 (size before relaxing)
 .rodata.avb_kernel_cmdline_descriptor_validate_and_byteswap.str1.1
                0x00000000002c3a5e       0x5b lib/built-in.o
                                         0xb4 (size before relaxing)
 .rodata.avb_malloc.str1.1
                0x00000000002c3ab9       0x20 lib/built-in.o
 .rodata.avb_ops_user_new.str1.1
                0x00000000002c3ad9       0x9d lib/built-in.o
 .rodata.avb_print.str1.1
                0x00000000002c3b76        0x3 lib/built-in.o
 .rodata.avb_rsa_verify.str1.1
                0x00000000002c3b76      0x151 lib/built-in.o
                                        0x166 (size before relaxing)
 .rodata.avb_safe_add_to.str1.1
                0x00000000002c3cc7       0x3c lib/built-in.o
                                         0x48 (size before relaxing)
 .rodata.avb_set_key_version.str1.1
                0x00000000002c3d03       0x66 lib/built-in.o
 .rodata.avb_sha256_init.str1.1
                0x00000000002c3d69       0x3c lib/built-in.o
                                         0x4b (size before relaxing)
 .rodata.avb_slot_verify.str1.1
                0x00000000002c3da5      0x2e1 lib/built-in.o
                                        0x2e9 (size before relaxing)
 .rodata.avb_slot_verify_data_calculate_vbmeta_digest.str1.1
                0x00000000002c4086       0x23 lib/built-in.o
 .rodata.avb_str_concat.str1.1
                0x00000000002c40a9       0x44 lib/built-in.o
                                         0x48 (size before relaxing)
 .rodata.avb_strdupv.str1.1
                0x00000000002c40ed       0x4c lib/built-in.o
                                         0x56 (size before relaxing)
 .rodata.avb_sub_cmdline.str1.1
                0x00000000002c4139       0x89 lib/built-in.o
                                         0xe4 (size before relaxing)
 .rodata.avb_vbmeta_image_verify.str1.1
                0x00000000002c41c2      0x26d lib/built-in.o
                                        0x2c2 (size before relaxing)
 .rodata.avb_vbmeta_verify_result_to_string.str1.1
                0x00000000002c442f       0x2a lib/built-in.o
                                         0x34 (size before relaxing)
 .rodata.avb_version_string.str1.1
                0x00000000002c4459        0x6 lib/built-in.o
 .rodata.b_addqchr.isra.0.str1.1
                0x00000000002c445f        0x5 common/built-in.o
 .rodata.bad_irq.str1.1
                0x00000000002c4464       0x47 drivers/built-in.o
 .rodata.bidram_core_reserve.str1.1
                0x00000000002c44ab      0x160 lib/built-in.o
 .rodata.bidram_dump.str1.1
                0x00000000002c460b       0xe2 lib/built-in.o
                                        0x226 (size before relaxing)
 .rodata.bidram_gen_gd_bi_dram.str1.1
                0x00000000002c46ed       0x20 lib/built-in.o
 .rodata.bidram_get_ram_size.str1.1
                0x00000000002c470d      0x1a3 lib/built-in.o
                                        0x1a8 (size before relaxing)
 .rodata.bidram_has_init.str1.1
                0x00000000002c48b0       0x2c lib/built-in.o
 .rodata.blk_common_cmd.str1.1
                0x00000000002c48dc      0x135 cmd/built-in.o
                                        0x14f (size before relaxing)
 .rodata.blk_create_devicef.str1.1
                0x00000000002c4a11        0x6 drivers/built-in.o
 .rodata.blk_get_device_by_str.str1.1
                0x00000000002c4a11       0x6a disk/built-in.o
 .rodata.blk_get_device_part_str.str1.1
                0x00000000002c4a7b      0x102 disk/built-in.o
                                        0x109 (size before relaxing)
 .rodata.blk_list_devices.str1.1
                0x00000000002c4b7d       0x1d drivers/built-in.o
                                          0xc (size before relaxing)
 .rodata.blk_print_device_num.str1.1
                0x00000000002c4b7d       0x11 drivers/built-in.o
 .rodata.blk_show_device.str1.1
                0x00000000002c4b8e       0x1d drivers/built-in.o
 .rodata.bmpdecoder.str1.1
                0x00000000002c4bab       0x80 drivers/built-in.o
 .rodata.board_do_bootm.str1.1
                0x00000000002c4c2b       0x91 arch/arm/mach-rockchip/built-in.o
 .rodata.board_fdt_chosen_bootargs.str1.1
                0x00000000002c4cbc       0xd0 arch/arm/mach-rockchip/built-in.o
                                         0xde (size before relaxing)
 .rodata.board_fdt_chosen_bootargs.str1.1
                0x00000000002c4d8c        0x9 common/built-in.o
 .rodata.board_init.str1.1
                0x00000000002c4d8c       0x2b arch/arm/mach-rockchip/built-in.o
                                         0x34 (size before relaxing)
 .rodata.board_late_init.str1.1
                0x00000000002c4db7       0xe3 arch/arm/mach-rockchip/built-in.o
                                        0x10f (size before relaxing)
 .rodata.board_lmb_reserve.str1.1
                0x00000000002c4e9a       0x18 arch/arm/mach-rockchip/built-in.o
                                         0x1f (size before relaxing)
 .rodata.board_mmc_dm_reinit.str1.1
                0x00000000002c4eb2       0x14 drivers/built-in.o
                                          0x6 (size before relaxing)
 .rodata.board_quiesce_devices.str1.1
                0x00000000002c4eb2       0x32 arch/arm/mach-rockchip/built-in.o
 .rodata.board_usb_init.str1.1
                0x00000000002c4ee4       0x43 arch/arm/mach-rockchip/built-in.o
 .rodata.boot_devtype_init.str1.1
                0x00000000002c4f27       0x1b arch/arm/mach-rockchip/built-in.o
                                         0x28 (size before relaxing)
 .rodata.boot_fdt_add_mem_rsv_regions.str1.1
                0x00000000002c4f42       0x35 common/built-in.o
 .rodata.boot_fdt_add_sysmem_rsv_regions.str1.1
                0x00000000002c4f77       0x16 common/built-in.o
 .rodata.boot_get_fdt.str1.1
                0x00000000002c4f8d      0x1a4 common/built-in.o
                                        0x1c3 (size before relaxing)
 .rodata.boot_get_fdt_fit.str1.1
                0x00000000002c5131       0x4f common/built-in.o
 .rodata.boot_get_loadable.str1.1
                0x00000000002c5180       0x3e common/built-in.o
 .rodata.boot_get_ramdisk.str1.1
                0x00000000002c51be       0xb7 common/built-in.o
                                        0x115 (size before relaxing)
 .rodata.boot_get_setup_fit.str1.1
                0x00000000002c5275      0x202 common/built-in.o
                                          0x6 (size before relaxing)
 .rodata.boot_jump_linux.str1.1
                0x00000000002c5275       0x4b arch/arm/lib/built-in.o
                                         0x4c (size before relaxing)
 .rodata.boot_mem_rsv_regions.str1.1
                0x00000000002c52c0       0x40 common/built-in.o
                                         0x54 (size before relaxing)
 .rodata.boot_prep_linux.str1.1
                0x00000000002c5300       0x51 arch/arm/lib/built-in.o
                                         0x5a (size before relaxing)
 .rodata.boot_prep_vxworks.str1.1
                0x00000000002c5351       0x2a arch/arm/lib/built-in.o
 .rodata.boot_ramdisk_high.str1.1
                0x00000000002c537b       0x57 common/built-in.o
                                         0x63 (size before relaxing)
 .rodata.boot_relocate_fdt.str1.1
                0x00000000002c53d2       0xc6 common/built-in.o
                                         0xe2 (size before relaxing)
 .rodata.bootdelay_process.str1.1
                0x00000000002c5498       0x3a common/built-in.o
                                         0x42 (size before relaxing)
 .rodata.bootdev_init.str1.1
                0x00000000002c54d2        0x8 arch/arm/mach-rockchip/built-in.o
                                         0x13 (size before relaxing)
 .rodata.bootm_board_start.str1.1
                0x00000000002c54da       0x62 arch/arm/mach-rockchip/built-in.o
 .rodata.bootm_decomp_image.str1.1
                0x00000000002c553c      0x114 common/built-in.o
                                        0x118 (size before relaxing)
 .rodata.bootm_disable_interrupts.str1.1
                0x00000000002c5650        0xc common/built-in.o
 .rodata.bootm_find_images.str1.1
                0x00000000002c5650       0x6c common/built-in.o
 .rodata.bootm_image_populate_dtb.str1.1
                0x00000000002c56bc        0xb arch/arm/mach-rockchip/built-in.o
 .rodata.bootm_maybe_autostart.str1.1
                0x00000000002c56c7       0x37 cmd/built-in.o
                                         0x3b (size before relaxing)
 .rodata.bootp_request.str1.1
                0x00000000002c56fe       0x25 net/built-in.o
 .rodata.bootp_timeout_handler.str1.1
                0x00000000002c5723       0x26 net/built-in.o
 .rodata.buck_set_ramp_delay.str1.1
                0x00000000002c5749       0x25 drivers/power/regulator/built-in.o
 .rodata.cb_download.str1.1
                0x00000000002c576e       0x51 drivers/usb/gadget/built-in.o
                                         0x53 (size before relaxing)
 .rodata.cb_flash.str1.1
                0x00000000002c57bf       0xa4 drivers/usb/gadget/built-in.o
                                         0xbb (size before relaxing)
 .rodata.cb_flashing.str1.1
                0x00000000002c5863       0xac drivers/usb/gadget/built-in.o
                                         0xcf (size before relaxing)
 .rodata.cb_getvar.str1.1
                0x00000000002c590f       0xd8 drivers/usb/gadget/built-in.o
                                         0xeb (size before relaxing)
 .rodata.cb_oem.str1.1
                0x00000000002c59e7      0x44e drivers/usb/gadget/built-in.o
                                        0x455 (size before relaxing)
 .rodata.cb_reboot.str1.1
                0x00000000002c5e35       0x75 drivers/usb/gadget/built-in.o
                                         0xa3 (size before relaxing)
 .rodata.cb_set_active.str1.1
                0x00000000002c5eaa       0x2b drivers/usb/gadget/built-in.o
                                         0x41 (size before relaxing)
 .rodata.cb_upload.str1.1
                0x00000000002c5ed5       0x1d drivers/usb/gadget/built-in.o
 .rodata.charge_animation_ofdata_to_platdata.str1.1
                0x00000000002c5ef2      0x19c drivers/power/built-in.o
 .rodata.charge_animation_probe.str1.1
                0x00000000002c608e       0x4e drivers/power/built-in.o
 .rodata.charge_animation_show.str1.1
                0x00000000002c60dc      0x40e drivers/power/built-in.o
                                        0x46a (size before relaxing)
 .rodata.check_channel.str1.1
                0x00000000002c64ea       0x53 drivers/built-in.o
 .rodata.check_command.constprop.0.str1.1
                0x00000000002c653d        0x9 drivers/usb/gadget/built-in.o
 .rodata.check_reserved.str1.1
                0x00000000002c6546       0x27 drivers/gpio/built-in.o
                                         0x28 (size before relaxing)
 .rodata.check_security_exist.str1.1
                0x00000000002c656d       0x29 lib/built-in.o
                                         0x53 (size before relaxing)
 .rodata.cli_process_fdt.str1.1
                0x00000000002c6596        0xb common/built-in.o
                                         0x13 (size before relaxing)
 .rodata.cli_readline_into_buffer.str1.1
                0x00000000002c65a1        0x4 common/built-in.o
                                          0x8 (size before relaxing)
 .rodata.cli_secure_boot_cmd.str1.1
                0x00000000002c65a5       0x50 common/built-in.o
 .rodata.clk_fixed_rate_ofdata_to_platdata.str1.1
                0x00000000002c65f5       0x10 drivers/built-in.o
 .rodata.clk_get_by_index.str1.1
                0x00000000002c6605        0x7 drivers/built-in.o
 .rodata.clk_get_by_indexed_prop.str1.1
                0x00000000002c6605        0xd drivers/built-in.o
 .rodata.clk_get_by_name.str1.1
                0x00000000002c6605        0xc drivers/built-in.o
 .rodata.clk_set_defaults.str1.1
                0x00000000002c6611       0x2c drivers/built-in.o
                                         0x3c (size before relaxing)
 .rodata.clks_probe.str1.1
                0x00000000002c663d       0x17 drivers/built-in.o
 .rodata.cmd_auto_complete.str1.1
                0x00000000002c6654       0x5f common/built-in.o
                                          0xf (size before relaxing)
 .rodata.cmd_process.str1.1
                0x00000000002c6654       0x3f common/built-in.o
 .rodata.cmd_process_error.str1.1
                0x00000000002c6693       0x1f common/built-in.o
 .rodata.cmd_usage.str1.1
                0x00000000002c66b2       0x36 common/built-in.o
 .rodata.common_diskboot.str1.1
                0x00000000002c66e8       0xbf cmd/built-in.o
 .rodata.compile.str1.1
                0x00000000002c67a7       0x4a lib/built-in.o
 .rodata.composite_setup.str1.1
                0x00000000002c67f1        0xe drivers/usb/gadget/built-in.o
 .rodata.composite_unbind.str1.1
                0x00000000002c67f1       0x1f drivers/usb/gadget/built-in.o
                                         0x38 (size before relaxing)
 .rodata.confirm_yesno.str1.1
                0x00000000002c6810       0x10 common/built-in.o
 .rodata.console_announce_r.str1.1
                0x00000000002c6820        0x7 common/built-in.o
 .rodata.cread_add_char.str1.1
                0x00000000002c6820       0x1d common/built-in.o
                                          0x5 (size before relaxing)
 .rodata.create_table.str1.1
                0x00000000002c6820       0x62 arch/arm/cpu/armv8/built-in.o
 .rodata.crypto_algo_nbits.str1.1
                0x00000000002c6882       0x20 drivers/built-in.o
 .rodata.crypto_csum.isra.0.str1.1
                0x00000000002c68a2       0x23 arch/arm/mach-rockchip/built-in.o
 .rodata.default_environment
                0x00000000002c68c5      0xc86 env/built-in.o
                0x00000000002c68c5                default_environment
 .rodata.designware_eth_init.str1.1
                0x00000000002c754b       0x63 drivers/net/built-in.o
                                         0x6e (size before relaxing)
 .rodata.designware_eth_ofdata_to_platdata.str1.1
                0x00000000002c75ae       0x4e drivers/net/built-in.o
 .rodata.designware_eth_probe.str1.1
                0x00000000002c75fc       0x38 drivers/net/built-in.o
                                         0x46 (size before relaxing)
 .rodata.designware_eth_send.str1.1
                0x00000000002c7634       0x1b drivers/net/built-in.o
 .rodata.dev_get_platdata.str1.1
                0x00000000002c764f       0x11 drivers/built-in.o
 .rodata.dev_print.str1.1
                0x00000000002c7660      0x14d disk/built-in.o
                                        0x15e (size before relaxing)
 .rodata.devfdt_get_addr_index.str1.1
                0x00000000002c77ad        0x4 drivers/built-in.o
 .rodata.device_bind_common.constprop.0.str1.1
                0x00000000002c77ad       0x5b drivers/built-in.o
                                         0x7d (size before relaxing)
 .rodata.device_probe.str1.1
                0x00000000002c7808       0x30 drivers/built-in.o
                                         0x38 (size before relaxing)
 .rodata.device_remove.str1.1
                0x00000000002c7838       0x98 drivers/built-in.o
 .rodata.dhcp_extended.str1.1
                0x00000000002c78d0       0x37 net/built-in.o
                                         0x3f (size before relaxing)
 .rodata.dhcp_handler.str1.1
                0x00000000002c7907       0x41 net/built-in.o
                                         0x4a (size before relaxing)
 .rodata.dhcp_process_options.str1.1
                0x00000000002c7948       0x78 net/built-in.o
 .rodata.digits.1
                0x00000000002c79c0       0x10 lib/built-in.o
 .rodata.dirletter.4
                0x00000000002c79d0        0x4 drivers/usb/gadget/built-in.o
 .rodata.disable_periodic.isra.0.str1.1
                0x00000000002c79d4       0x33 drivers/usb/host/built-in.o
 .rodata.disk_write.str1.1
                0x00000000002c7a07       0x18 fs/built-in.o
 .rodata.display_get_edid_mode.isra.0.str1.1
                0x00000000002c7a1f       0x41 drivers/built-in.o
 .rodata.display_logo.str1.1
                0x00000000002c7a60      0x1ca drivers/built-in.o
                                        0x1ef (size before relaxing)
 .rodata.display_options.str1.1
                0x00000000002c7c2a        0x3 lib/built-in.o
 .rodata.display_options_get_banner_priv.str1.1
                0x00000000002c7c2a        0xc lib/built-in.o
                                         0x15 (size before relaxing)
 .rodata.display_rect_calc_scale.str1.1
                0x00000000002c7c36       0x25 drivers/built-in.o
                                         0x3d (size before relaxing)
 .rodata.dm_dump_all.str1.1
                0x00000000002c7c5b       0x8c drivers/built-in.o
 .rodata.dm_dump_uclass.str1.1
                0x00000000002c7ce7       0x42 drivers/built-in.o
                                         0x44 (size before relaxing)
 .rodata.dm_extended_scan_fdt.str1.1
                0x00000000002c7d29        0x8 drivers/built-in.o
 .rodata.dm_fdt_pre_reloc.str1.1
                0x00000000002c7d31        0xe drivers/built-in.o
                                         0x30 (size before relaxing)
 .rodata.dm_gpio_get_value.str1.1
                0x00000000002c7d3f        0xa drivers/gpio/built-in.o
 .rodata.dm_gpio_set_dir_flags.str1.1
                0x00000000002c7d49        0x8 drivers/gpio/built-in.o
 .rodata.dm_gpio_set_value.str1.1
                0x00000000002c7d51        0xa drivers/gpio/built-in.o
 .rodata.dm_init.str1.1
                0x00000000002c7d5b       0x25 drivers/built-in.o
 .rodata.dm_mmc_send_cmd.str1.1
                0x00000000002c7d80       0x2b drivers/built-in.o
 .rodata.dm_root.str1.1
                0x00000000002c7dab       0x25 drivers/built-in.o
 .rodata.dm_scan_fdt_live.isra.0.str1.1
                0x00000000002c7dd0       0x2b drivers/built-in.o
 .rodata.dm_scan_fdt_node.str1.1
                0x00000000002c7dd0       0x1d drivers/built-in.o
 .rodata.dm_scan_platdata.str1.1
                0x00000000002c7ded       0x1d drivers/built-in.o
 .rodata.dmc_fsp_probe.str1.1
                0x00000000002c7e0a      0x1e5 drivers/built-in.o
                                        0x211 (size before relaxing)
 .rodata.do_android_print_hdr.str1.1
                0x00000000002c7fef       0x3f cmd/built-in.o
                                         0x52 (size before relaxing)
 .rodata.do_avb_get_get_unique_guid_for_partition.str1.1
                0x00000000002c802e       0x39 cmd/built-in.o
 .rodata.do_avb_get_size_of_partition.str1.1
                0x00000000002c8067       0x3c cmd/built-in.o
 .rodata.do_avb_read.str1.1
                0x00000000002c80a3       0x3a cmd/built-in.o
 .rodata.do_avb_read_is_device_unlocked.str1.1
                0x00000000002c80dd       0x44 cmd/built-in.o
                                         0x4b (size before relaxing)
 .rodata.do_avb_read_rollback_index.str1.1
                0x00000000002c8121       0x3f cmd/built-in.o
                                         0x5b (size before relaxing)
 .rodata.do_avb_verify_partition.str1.1
                0x00000000002c8160        0x6 cmd/built-in.o
 .rodata.do_avb_version.str1.1
                0x00000000002c8166       0x1c cmd/built-in.o
 .rodata.do_avb_write_is_device_unlocked.str1.1
                0x00000000002c8182       0x28 cmd/built-in.o
 .rodata.do_avb_write_rollback_index.str1.1
                0x00000000002c81aa       0x4a cmd/built-in.o
 .rodata.do_bad_error.str1.1
                0x00000000002c81f4       0x29 arch/arm/lib/built-in.o
 .rodata.do_bad_fiq.str1.1
                0x00000000002c821d       0x27 arch/arm/lib/built-in.o
 .rodata.do_bad_irq.str1.1
                0x00000000002c8244       0x27 arch/arm/lib/built-in.o
 .rodata.do_bad_sync.str1.1
                0x00000000002c826b       0x48 arch/arm/lib/built-in.o
 .rodata.do_bdinfo.str1.1
                0x00000000002c82b3       0xae cmd/built-in.o
 .rodata.do_blk.str1.1
                0x00000000002c8361       0x3e cmd/built-in.o
                                         0x5d (size before relaxing)
 .rodata.do_board_download.str1.1
                0x00000000002c839f       0x30 arch/arm/mach-rockchip/built-in.o
 .rodata.do_boot_android.str1.1
                0x00000000002c83cf       0x35 cmd/built-in.o
                                         0x43 (size before relaxing)
 .rodata.do_boot_rockchip.str1.1
                0x00000000002c8404      0x134 cmd/built-in.o
                                        0x19a (size before relaxing)
 .rodata.do_bootd.str1.1
                0x00000000002c8538       0x2a cmd/built-in.o
                                          0x8 (size before relaxing)
 .rodata.do_booti.str1.1
                0x00000000002c8538       0x4c cmd/built-in.o
 .rodata.do_bootm.str1.1
                0x00000000002c8584       0x2a cmd/built-in.o
 .rodata.do_bootm_netbsd.str1.1
                0x00000000002c85ae       0x49 common/built-in.o
                                         0x51 (size before relaxing)
 .rodata.do_bootm_on_complete.str1.1
                0x00000000002c85f7       0x12 drivers/usb/gadget/built-in.o
                                         0x1e (size before relaxing)
 .rodata.do_bootm_plan9.str1.1
                0x00000000002c8609       0x43 common/built-in.o
                                         0x53 (size before relaxing)
 .rodata.do_bootm_rtems.str1.1
                0x00000000002c864c       0x95 common/built-in.o
                                         0x9b (size before relaxing)
 .rodata.do_bootm_standalone.str1.1
                0x00000000002c86e1       0x49 common/built-in.o
                                         0x16 (size before relaxing)
 .rodata.do_bootm_states.str1.1
                0x00000000002c86e1      0x3bb common/built-in.o
                                        0x3c2 (size before relaxing)
 .rodata.do_bootm_vxworks.str1.1
                0x00000000002c8a9c        0x8 common/built-in.o
 .rodata.do_bootvx_fdt.str1.1
                0x00000000002c8a9c       0x6e common/built-in.o
                                         0x75 (size before relaxing)
 .rodata.do_charge_display.str1.1
                0x00000000002c8b0a       0x26 cmd/built-in.o
 .rodata.do_coninfo.str1.1
                0x00000000002c8b30       0x2c cmd/built-in.o
                                         0x30 (size before relaxing)
 .rodata.do_crypto_csum.str1.1
                0x00000000002c8b5c       0x38 cmd/built-in.o
 .rodata.do_download.str1.1
                0x00000000002c8b94       0x49 cmd/built-in.o
                                         0x4f (size before relaxing)
 .rodata.do_dump_atags.str1.1
                0x00000000002c8bdd      0x3d9 cmd/built-in.o
                                        0x428 (size before relaxing)
 .rodata.do_dump_irqs.str1.1
                0x00000000002c8fb6       0x77 drivers/built-in.o
                                         0xc4 (size before relaxing)
 .rodata.do_dump_resource.str1.1
                0x00000000002c902d       0x69 arch/arm/mach-rockchip/built-in.o
                                         0x6d (size before relaxing)
 .rodata.do_dvfs.str1.1
                0x00000000002c9096       0x26 cmd/built-in.o
                                         0x2d (size before relaxing)
 .rodata.do_echo.str1.1
                0x00000000002c90bc        0x3 cmd/built-in.o
 .rodata.do_env_default.str1.1
                0x00000000002c90bf       0x25 cmd/built-in.o
 .rodata.do_env_edit.part.0.str1.1
                0x00000000002c90e4        0x7 cmd/built-in.o
                                          0xa (size before relaxing)
 .rodata.do_env_export.str1.1
                0x00000000002c90eb       0x2b cmd/built-in.o
                                         0x34 (size before relaxing)
 .rodata.do_env_import.str1.1
                0x00000000002c9116      0x12f cmd/built-in.o
 .rodata.do_env_print.str1.1
                0x00000000002c9245       0x3d cmd/built-in.o
 .rodata.do_env_save.str1.1
                0x00000000002c9282       0x1d cmd/built-in.o
 .rodata.do_error.str1.1
                0x00000000002c929f       0x29 arch/arm/lib/built-in.o
                                         0x1d (size before relaxing)
 .rodata.do_fastboot.str1.1
                0x00000000002c929f       0x7d cmd/built-in.o
                                         0xad (size before relaxing)
 .rodata.do_fat_fsinfo.str1.1
                0x00000000002c931c       0x56 cmd/built-in.o
 .rodata.do_fat_fswrite.str1.1
                0x00000000002c9372       0x6b cmd/built-in.o
 .rodata.do_fat_write.str1.1
                0x00000000002c93dd       0xd6 fs/built-in.o
 .rodata.do_fdt.str1.1
                0x00000000002c94b3      0x421 cmd/built-in.o
                                        0x480 (size before relaxing)
 .rodata.do_fiq.str1.1
                0x00000000002c98d4       0x29 arch/arm/lib/built-in.o
                                         0x1b (size before relaxing)
 .rodata.do_fixup_by_path.str1.1
                0x00000000002c98d4       0x29 common/built-in.o
 .rodata.do_fs_uuid.str1.1
                0x00000000002c98fd        0x4 fs/built-in.o
 .rodata.do_get_any.str1.1
                0x00000000002c98fd        0x5 cmd/built-in.o
 .rodata.do_get_ext2.str1.1
                0x00000000002c98fd        0x9 cmd/built-in.o
 .rodata.do_get_fat.str1.1
                0x00000000002c98fd        0x8 cmd/built-in.o
 .rodata.do_get_tftp.str1.1
                0x00000000002c98fd        0x5 cmd/built-in.o
 .rodata.do_go.str1.1
                0x00000000002c98fd       0x4f cmd/built-in.o
 .rodata.do_gpt.str1.1
                0x00000000002c994c       0xd1 cmd/built-in.o
                                         0xef (size before relaxing)
 .rodata.do_iomem_by_match.str1.1
                0x00000000002c9a1d       0x18 arch/arm/mach-rockchip/built-in.o
 .rodata.do_load.str1.1
                0x00000000002c9a35       0x42 fs/built-in.o
                                         0x5b (size before relaxing)
 .rodata.do_ls.str1.1
                0x00000000002c9a77        0x2 fs/built-in.o
 .rodata.do_mdio.str1.1
                0x00000000002c9a77       0x65 cmd/built-in.o
 .rodata.do_mem_base.str1.1
                0x00000000002c9adc       0x17 cmd/built-in.o
 .rodata.do_mem_cmp.str1.1
                0x00000000002c9af3       0x6a cmd/built-in.o
                                         0x6f (size before relaxing)
 .rodata.do_mem_cp.str1.1
                0x00000000002c9b5d       0x11 cmd/built-in.o
 .rodata.do_mem_crc.str1.1
                0x00000000002c9b6e        0x6 cmd/built-in.o
 .rodata.do_mii.str1.1
                0x00000000002c9b74      0x28f cmd/built-in.o
                                        0x2b0 (size before relaxing)
 .rodata.do_mmc_dev.str1.1
                0x00000000002c9e03       0x80 cmd/built-in.o
                                         0x89 (size before relaxing)
 .rodata.do_mmc_erase.str1.1
                0x00000000002c9e83       0x67 cmd/built-in.o
 .rodata.do_mmc_hwpartition.str1.1
                0x00000000002c9eea      0x126 cmd/built-in.o
                                        0x142 (size before relaxing)
 .rodata.do_mmc_part.str1.1
                0x00000000002ca010       0x15 cmd/built-in.o
 .rodata.do_mmc_read.str1.1
                0x00000000002ca025       0x43 cmd/built-in.o
 .rodata.do_mmc_setdsr.str1.1
                0x00000000002ca068       0x1d cmd/built-in.o
 .rodata.do_mmc_test_secure_storage.str1.1
                0x00000000002ca085       0xc0 cmd/built-in.o
                                         0xd6 (size before relaxing)
 .rodata.do_mmc_testefuse.str1.1
                0x00000000002ca145       0x1a cmd/built-in.o
 .rodata.do_mmc_write.str1.1
                0x00000000002ca15f       0x47 cmd/built-in.o
 .rodata.do_mmcinfo.str1.1
                0x00000000002ca1a6      0x11d cmd/built-in.o
                                        0x16f (size before relaxing)
 .rodata.do_mmcops.str1.1
                0x00000000002ca2c3       0x19 cmd/built-in.o
 .rodata.do_mmcrpmb.str1.1
                0x00000000002ca2dc       0x41 cmd/built-in.o
 .rodata.do_mmcrpmb_counter.str1.1
                0x00000000002ca31d       0x19 cmd/built-in.o
 .rodata.do_mmcrpmb_key.str1.1
                0x00000000002ca336       0xfb cmd/built-in.o
 .rodata.do_mmcrpmb_read.str1.1
                0x00000000002ca431       0x4d cmd/built-in.o
 .rodata.do_mmcrpmb_write.str1.1
                0x00000000002ca47e       0x51 cmd/built-in.o
 .rodata.do_part.str1.1
                0x00000000002ca4cf       0x22 cmd/built-in.o
                                         0x15 (size before relaxing)
 .rodata.do_part_list.str1.1
                0x00000000002ca4cf       0x22 cmd/built-in.o
                                         0x25 (size before relaxing)
 .rodata.do_part_start.str1.1
                0x00000000002ca4f1        0x8 cmd/built-in.o
 .rodata.do_perm_attr_test.str1.1
                0x00000000002ca4f1       0x2e cmd/built-in.o
                                         0x30 (size before relaxing)
 .rodata.do_ping.str1.1
                0x00000000002ca51f       0x35 cmd/built-in.o
 .rodata.do_pxe_boot.str1.1
                0x00000000002ca554       0x38 cmd/built-in.o
 .rodata.do_pxe_get.str1.1
                0x00000000002ca58c       0x41 cmd/built-in.o
                                         0x46 (size before relaxing)
 .rodata.do_rkimg_test.str1.1
                0x00000000002ca5cd       0x4c cmd/built-in.o
                                         0x87 (size before relaxing)
 .rodata.do_rknand.str1.1
                0x00000000002ca619        0x5 cmd/built-in.o
 .rodata.do_rkusb.str1.1
                0x00000000002ca619      0x18b cmd/built-in.o
                                        0x1a8 (size before relaxing)
 .rodata.do_rockchip_test.str1.1
                0x00000000002ca7a4      0x37b test/built-in.o
                                        0x3a6 (size before relaxing)
 .rodata.do_run.str1.1
                0x00000000002cab1f       0x1c common/built-in.o
 .rodata.do_save.str1.1
                0x00000000002cab1f       0x1d fs/built-in.o
 .rodata.do_showvar.str1.1
                0x00000000002cab3c        0xc common/built-in.o
                                         0x2f (size before relaxing)
 .rodata.do_size.str1.1
                0x00000000002cab48        0x9 fs/built-in.o
 .rodata.do_source.str1.1
                0x00000000002cab48       0x1e cmd/built-in.o
 .rodata.do_sync.str1.1
                0x00000000002cab66       0x29 arch/arm/lib/built-in.o
 .rodata.do_sysboot.str1.1
                0x00000000002cab66       0x43 cmd/built-in.o
 .rodata.do_sysmem_search.str1.1
                0x00000000002caba9       0x67 lib/built-in.o
 .rodata.do_test_adc.str1.1
                0x00000000002cac10       0x58 test/built-in.o
                                         0x5f (size before relaxing)
 .rodata.do_test_android.str1.1
                0x00000000002cac68       0x22 test/built-in.o
 .rodata.do_test_bootrkp.str1.1
                0x00000000002cac8a        0x8 test/built-in.o
 .rodata.do_test_brom.str1.1
                0x00000000002cac8a        0x6 test/built-in.o
 .rodata.do_test_crypto.str1.1
                0x00000000002cac8a        0x7 test/built-in.o
 .rodata.do_test_display.str1.1
                0x00000000002cac8a       0x29 test/built-in.o
                                         0x42 (size before relaxing)
 .rodata.do_test_distro.str1.1
                0x00000000002cacb3       0x13 test/built-in.o
 .rodata.do_test_dvfs.str1.1
                0x00000000002cacc6        0x5 test/built-in.o
 .rodata.do_test_emmc.str1.1
                0x00000000002cacc6        0x5 test/built-in.o
                                          0x7 (size before relaxing)
 .rodata.do_test_eth.str1.1
                0x00000000002caccb      0x1cf test/built-in.o
                                        0x1dd (size before relaxing)
 .rodata.do_test_fastboot.str1.1
                0x00000000002cae9a        0xf test/built-in.o
 .rodata.do_test_key.str1.1
                0x00000000002cae9a       0x4f test/built-in.o
 .rodata.do_test_part.str1.1
                0x00000000002caee9       0x1f test/built-in.o
 .rodata.do_test_regulator.str1.1
                0x00000000002caf08      0x12e test/built-in.o
                                        0x133 (size before relaxing)
 .rodata.do_test_reset.str1.1
                0x00000000002cb036        0x6 test/built-in.o
 .rodata.do_test_rknand.str1.1
                0x00000000002cb036        0x8 test/built-in.o
 .rodata.do_test_rockusb.str1.1
                0x00000000002cb03e       0x1f test/built-in.o
 .rodata.do_test_sdmmc.str1.1
                0x00000000002cb05d        0x5 test/built-in.o
                                          0x7 (size before relaxing)
 .rodata.do_test_secure_storage.str1.1
                0x00000000002cb062       0x16 test/built-in.o
 .rodata.do_test_storage.constprop.0.str1.1
                0x00000000002cb078      0x25f test/built-in.o
                                        0x275 (size before relaxing)
 .rodata.do_test_tftp.str1.1
                0x00000000002cb2d7       0x47 test/built-in.o
                                         0x4c (size before relaxing)
 .rodata.do_test_thermal.str1.1
                0x00000000002cb31e       0x82 test/built-in.o
 .rodata.do_test_timer.str1.1
                0x00000000002cb3a0       0x78 test/built-in.o
 .rodata.do_test_usb.str1.1
                0x00000000002cb418        0x5 test/built-in.o
 .rodata.do_usb.str1.1
                0x00000000002cb41d      0x272 cmd/built-in.o
                                        0x293 (size before relaxing)
 .rodata.do_usb_mass_storage.str1.1
                0x00000000002cb68f       0x6e cmd/built-in.o
                                        0x14f (size before relaxing)
 .rodata.do_usbboot.str1.1
                0x00000000002cb6fd      0x10d cmd/built-in.o
                                          0x4 (size before relaxing)
 .rodata.do_version.str1.1
                0x00000000002cb6fd       0xd4 cmd/built-in.o
 .rodata.do_write.str1.1
                0x00000000002cb7d1       0x18 drivers/usb/gadget/built-in.o
 .rodata.driver_name
                0x00000000002cb7e9        0x9 drivers/usb/gadget/built-in.o
 .rodata.drm_edid_block_valid.constprop.0.str1.1
                0x00000000002cb7f2        0x1 common/built-in.o
 .rodata.dtimg_get_fdt.part.0.str1.1
                0x00000000002cb7f2       0x55 cmd/built-in.o
                                         0x5c (size before relaxing)
 .rodata.dump_core_stack.str1.1
                0x00000000002cb847       0xc4 arch/arm/lib/built-in.o
                                         0xd3 (size before relaxing)
 .rodata.dump_ftl_info.str1.1
                0x00000000002cb90b      0x155 drivers/built-in.o
 .rodata.dump_hash.str1.1
                0x00000000002cba60       0x1c cmd/built-in.o
                                         0x24 (size before relaxing)
 .rodata.dvfs_init.str1.1
                0x00000000002cba7c       0x26 drivers/power/dvfs/built-in.o
 .rodata.dw_mipi_dsi_child_post_bind.str1.1
                0x00000000002cba7c       0x1f drivers/built-in.o
                                         0x29 (size before relaxing)
 .rodata.dw_mipi_dsi_child_pre_probe.str1.1
                0x00000000002cba9b       0x1e drivers/built-in.o
 .rodata.dw_mipi_dsi_connector_init.str1.1
                0x00000000002cbab9       0x1a drivers/built-in.o
 .rodata.dw_mipi_dsi_connector_prepare.str1.1
                0x00000000002cbad3       0x3b drivers/built-in.o
 .rodata.dw_mipi_dsi_pre_enable.str1.1
                0x00000000002cbb0e       0x35 drivers/built-in.o
 .rodata.dw_mipi_dsi_probe.str1.1
                0x00000000002cbb43       0x13 drivers/built-in.o
                                         0x17 (size before relaxing)
 .rodata.dw_mipi_dsi_transfer.str1.1
                0x00000000002cbb56       0xc3 drivers/built-in.o
 .rodata.dwc2_free_request.str1.1
                0x00000000002cbc19       0x22 drivers/usb/gadget/built-in.o
                                         0x3a (size before relaxing)
 .rodata.dwc2_queue.str1.1
                0x00000000002cbc3b       0x2b drivers/usb/gadget/built-in.o
                                         0x44 (size before relaxing)
 .rodata.dwc2_udc_handle_interrupt.str1.1
                0x00000000002cbc66       0x14 drivers/usb/gadget/built-in.o
 .rodata.dwc2_udc_probe.str1.1
                0x00000000002cbc7a       0x1e drivers/usb/gadget/built-in.o
 .rodata.dwmci_get_cd.str1.1
                0x00000000002cbc98        0x9 drivers/built-in.o
 .rodata.dwmci_setup_cfg.str1.1
                0x00000000002cbca1       0x1b drivers/built-in.o
 .rodata.edid_print_info.str1.1
                0x00000000002cbcbc      0x47a common/built-in.o
                                        0x486 (size before relaxing)
 .rodata.ehci_register.str1.1
                0x00000000002cc136       0x26 drivers/usb/host/built-in.o
 .rodata.ehci_setup_phy.str1.1
                0x00000000002cc15c       0x4b drivers/usb/host/built-in.o
 .rodata.ehci_shutdown.isra.0.str1.1
                0x00000000002cc15c       0x2b drivers/usb/host/built-in.o
 .rodata.ehci_shutdown_phy.str1.1
                0x00000000002cc187       0x1d drivers/usb/host/built-in.o
 .rodata.ehci_submit_async.str1.1
                0x00000000002cc187       0x94 drivers/usb/host/built-in.o
 .rodata.ehci_submit_control_msg.str1.1
                0x00000000002cc21b       0x16 drivers/usb/host/built-in.o
 .rodata.ehci_submit_int_msg.str1.1
                0x00000000002cc231       0x24 drivers/usb/host/built-in.o
 .rodata.ehci_td_buffer.constprop.0.str1.1
                0x00000000002cc255       0x29 drivers/usb/host/built-in.o
 .rodata.ehci_usb_probe.str1.1
                0x00000000002cc27e       0x3b drivers/usb/host/built-in.o
                                        0x140 (size before relaxing)
 .rodata.emit.str1.1
                0x00000000002cc2b9       0x1f lib/built-in.o
 .rodata.enable_periodic.isra.0.str1.1
                0x00000000002cc2d8       0x32 drivers/usb/host/built-in.o
 .rodata.env_append.isra.0.str1.1
                0x00000000002cc30a       0x1d cmd/built-in.o
 .rodata.env_callback_init.str1.1
                0x00000000002cc327        0xb env/built-in.o
 .rodata.env_complete.str1.1
                0x00000000002cc332        0x4 env/built-in.o
 .rodata.env_exist.str1.1
                0x00000000002cc332       0x30 cmd/built-in.o
                                          0xd (size before relaxing)
 .rodata.env_flags_init.str1.1
                0x00000000002cc332        0x7 env/built-in.o
 .rodata.env_flags_parse_varaccess.str1.1
                0x00000000002cc339       0x3d env/built-in.o
 .rodata.env_flags_parse_vartype.str1.1
                0x00000000002cc376       0x34 env/built-in.o
 .rodata.env_flags_validate.str1.1
                0x00000000002cc3aa       0xb2 env/built-in.o
                                         0xb3 (size before relaxing)
 .rodata.env_flags_varaccess_rep
                0x00000000002cc45c        0x5 env/built-in.o
 .rodata.env_flags_vartype_rep
                0x00000000002cc461        0x7 env/built-in.o
 .rodata.env_get_bootm_low.str1.1
                0x00000000002cc468        0xa common/built-in.o
 .rodata.env_get_bootm_mapsize.str1.1
                0x00000000002cc468        0xe common/built-in.o
 .rodata.env_get_bootm_size.str1.1
                0x00000000002cc468        0xb common/built-in.o
 .rodata.env_get_f.str1.1
                0x00000000002cc473       0x30 cmd/built-in.o
 .rodata.env_print.str1.1
                0x00000000002cc4a3       0x2c cmd/built-in.o
 .rodata.env_set.str1.1
                0x00000000002cc4cf        0x7 cmd/built-in.o
 .rodata.env_set_hex.str1.1
                0x00000000002cc4d6        0x7 cmd/built-in.o
                                          0x6 (size before relaxing)
 .rodata.env_update_extract_subset.str1.1
                0x00000000002cc4d6        0x2 cmd/built-in.o
 .rodata.env_update_filter.str1.1
                0x00000000002cc4d6       0x22 cmd/built-in.o
                                         0x24 (size before relaxing)
 .rodata.ep0name
                0x00000000002cc4f8        0xc drivers/usb/gadget/built-in.o
 .rodata.erase_seq
                0x00000000002cc504        0x4 common/built-in.o
 .rodata.eth_current_changed.str1.1
                0x00000000002cc508       0x14 net/built-in.o
 .rodata.eth_env_get_enetaddr_by_index.str1.1
                0x00000000002cc508       0x10 net/built-in.o
 .rodata.eth_env_set_enetaddr.str1.1
                0x00000000002cc518        0x4 net/built-in.o
 .rodata.eth_get_name.str1.1
                0x00000000002cc518        0x8 net/built-in.o
 .rodata.eth_init.str1.1
                0x00000000002cc518       0x11 net/built-in.o
                                         0x28 (size before relaxing)
 .rodata.eth_initialize.str1.1
                0x00000000002cc529       0x1c net/built-in.o
                                         0x1f (size before relaxing)
 .rodata.eth_loopback_test.str1.1
                0x00000000002cc545       0x3d test/built-in.o
                                         0x47 (size before relaxing)
 .rodata.eth_mac_skip.str1.1
                0x00000000002cc582       0x18 net/built-in.o
 .rodata.eth_post_bind.str1.1
                0x00000000002cc59a       0x2b net/built-in.o
 .rodata.eth_post_probe.str1.1
                0x00000000002cc5c5       0xaf net/built-in.o
                                         0xb3 (size before relaxing)
 .rodata.eth_set_current.str1.1
                0x00000000002cc674        0x9 net/built-in.o
 .rodata.eth_write_hwaddr.isra.0.str1.1
                0x00000000002cc674       0x4e net/built-in.o
 .rodata.ext4_read_file.str1.1
                0x00000000002cc6c2       0x19 fs/built-in.o
 .rodata.ext4fs_iterate_dir.str1.1
                0x00000000002cc6db       0x43 fs/built-in.o
                                         0x4a (size before relaxing)
 .rodata.ext4fs_ls.str1.1
                0x00000000002cc71e       0x1f fs/built-in.o
 .rodata.ext4fs_mount.str1.1
                0x00000000002cc73d       0x24 fs/built-in.o
 .rodata.extract_boot_image_v34_header.str1.1
                0x00000000002cc761       0x1f common/built-in.o
                                         0x3e (size before relaxing)
 .rodata.extract_env.str1.1
                0x00000000002cc780        0x3 cmd/built-in.o
 .rodata.extract_val.str1.1
                0x00000000002cc783        0x4 cmd/built-in.o
 .rodata.fastboot_add.str1.1
                0x00000000002cc783        0xb drivers/usb/gadget/built-in.o
 .rodata.fastboot_bind.str1.1
                0x00000000002cc78e        0x8 drivers/usb/gadget/built-in.o
 .rodata.fastboot_complete.str1.1
                0x00000000002cc78e       0x1e drivers/usb/gadget/built-in.o
 .rodata.fastboot_fail.str1.1
                0x00000000002cc7ac        0x5 common/built-in.o
 .rodata.fastboot_name
                0x00000000002cc7b1       0x11 drivers/usb/gadget/built-in.o
 .rodata.fastboot_okay.str1.1
                0x00000000002cc7c2        0x5 common/built-in.o
 .rodata.fastboot_set_alt.str1.1
                0x00000000002cc7c7       0x5f drivers/usb/gadget/built-in.o
 .rodata.fastboot_tx_write.isra.0.str1.1
                0x00000000002cc826       0x13 drivers/usb/gadget/built-in.o
 .rodata.fastboot_tx_write_str.isra.0.str1.1
                0x00000000002cc839       0x2e drivers/usb/gadget/built-in.o
                                         0x3a (size before relaxing)
 .rodata.fat_itr_root.str1.1
                0x00000000002cc867       0x33 fs/built-in.o
 .rodata.fat_read_file.str1.1
                0x00000000002cc89a       0x1e fs/built-in.o
 .rodata.fat_set_blk_dev.str1.1
                0x00000000002cc8b8        0x3 fs/built-in.o
                                          0xd (size before relaxing)
 .rodata.fb_add_string.part.0.str1.1
                0x00000000002cc8bb       0x13 drivers/usb/gadget/built-in.o
 .rodata.fb_get_fstype.constprop.0.str1.1
                0x00000000002cc8ce        0x4 drivers/usb/gadget/built-in.o
                                          0x8 (size before relaxing)
 .rodata.fb_getvar_single.str1.1
                0x00000000002cc8d2       0xe4 drivers/usb/gadget/built-in.o
                                         0x11 (size before relaxing)
 .rodata.fb_mmc_blk_write.str1.1
                0x00000000002cc8d2       0x10 common/built-in.o
 .rodata.fb_mmc_erase.str1.1
                0x00000000002cc8e2       0xa6 common/built-in.o
 .rodata.fb_mmc_flash_write.str1.1
                0x00000000002cc988      0x49a common/built-in.o
                                        0x4bb (size before relaxing)
 .rodata.fb_read_var.str1.1
                0x00000000002cce22       0xe4 drivers/usb/gadget/built-in.o
                                        0x136 (size before relaxing)
 .rodata.fb_set_reboot_flag.str1.1
                0x00000000002ccf06       0x25 arch/arm/mach-rockchip/built-in.o
 .rodata.fdt_address_cells.str1.1
                0x00000000002ccf2b        0xf lib/built-in.o
 .rodata.fdt_chosen.str1.1
                0x00000000002ccf2b       0x35 common/built-in.o
 .rodata.fdt_error.str1.1
                0x00000000002ccf60       0x25 common/built-in.o
                                         0x2d (size before relaxing)
 .rodata.fdt_find_or_add_subnode.str1.1
                0x00000000002ccf85        0xc common/built-in.o
 .rodata.fdt_fixup_ethernet.str1.1
                0x00000000002ccf91       0x24 common/built-in.o
                                         0x42 (size before relaxing)
 .rodata.fdt_fixup_memory_banks.str1.1
                0x00000000002ccfb5       0x81 common/built-in.o
                                         0x8c (size before relaxing)
 .rodata.fdt_get_alias_namelen.str1.1
                0x00000000002cd036        0x9 lib/built-in.o
 .rodata.fdt_get_phandle.str1.1
                0x00000000002cd036       0x16 lib/built-in.o
 .rodata.fdt_initrd.str1.1
                0x00000000002cd036       0x10 common/built-in.o
                                         0x97 (size before relaxing)
 .rodata.fdt_node_check_compatible.str1.1
                0x00000000002cd046        0xb lib/built-in.o
 .rodata.fdt_overlay_apply.str1.1
                0x00000000002cd046       0x38 lib/built-in.o
                                         0x51 (size before relaxing)
 .rodata.fdt_overlay_apply_verbose.str1.1
                0x00000000002cd07e       0x83 common/built-in.o
 .rodata.fdt_record_loadable.str1.1
                0x00000000002cd101       0x21 common/built-in.o
                                         0x36 (size before relaxing)
 .rodata.fdt_root.str1.1
                0x00000000002cd122       0x46 common/built-in.o
                                         0x4e (size before relaxing)
 .rodata.fdt_size_cells.str1.1
                0x00000000002cd168        0xc lib/built-in.o
 .rodata.fdt_strerror.str1.1
                0x00000000002cd168       0x31 lib/built-in.o
 .rodata.fdt_support_default_count_cells.str1.1
                0x00000000002cd199        0xc common/built-in.o
 .rodata.fdt_translate_address.str1.1
                0x00000000002cd1a5       0x22 common/built-in.o
 .rodata.fdt_valid.str1.1
                0x00000000002cd1c7       0x79 cmd/built-in.o
                                         0x7b (size before relaxing)
 .rodata.fdtdec_add_aliases_for_id.str1.1
                0x00000000002cd240        0x9 lib/built-in.o
 .rodata.fdtdec_get_config_int.str1.1
                0x00000000002cd240        0x8 lib/built-in.o
 .rodata.fdtdec_get_is_enabled.str1.1
                0x00000000002cd248        0xc lib/built-in.o
 .rodata.fdtdec_prepare_fdt.str1.1
                0x00000000002cd248       0x96 lib/built-in.o
 .rodata.fdtdec_setup.str1.1
                0x00000000002cd2de        0xf lib/built-in.o
 .rodata.file_fat_detectfs.str1.1
                0x00000000002cd2ed       0x64 fs/built-in.o
                                         0x84 (size before relaxing)
 .rodata.file_fat_read_at.str1.1
                0x00000000002cd351       0x23 fs/built-in.o
 .rodata.file_fat_write.str1.1
                0x00000000002cd374       0x40 fs/built-in.o
 .rodata.file_get.str1.1
                0x00000000002cd3b4        0xc common/built-in.o
                                          0x7 (size before relaxing)
 .rodata.find_mmc_device.str1.1
                0x00000000002cd3b4       0x19 drivers/built-in.o
 .rodata.find_or_alloc_logo_cache.str1.1
                0x00000000002cd3cd       0x27 drivers/built-in.o
 .rodata.fit_all_image_verify.str1.1
                0x00000000002cd3f4       0x7a common/built-in.o
 .rodata.fit_board_verify_required_sigs.str1.1
                0x00000000002cd46e       0x3d arch/arm/mach-rockchip/built-in.o
 .rodata.fit_calculate_hash.str1.1
                0x00000000002cd4ab        0x6 common/built-in.o
 .rodata.fit_conf_find_compat.str1.1
                0x00000000002cd4ab       0x10 common/built-in.o
                                         0x1f (size before relaxing)
 .rodata.fit_conf_get_node.str1.1
                0x00000000002cd4bb        0x8 common/built-in.o
 .rodata.fit_conf_print.str1.1
                0x00000000002cd4bb       0x8e common/built-in.o
                                         0xb5 (size before relaxing)
 .rodata.fit_get_desc.str1.1
                0x00000000002cd549        0xc common/built-in.o
 .rodata.fit_image_check_hash.str1.1
                0x00000000002cd555       0x9b common/built-in.o
 .rodata.fit_image_get_address.str1.1
                0x00000000002cd5f0       0x1d common/built-in.o
 .rodata.fit_image_get_arch.str1.1
                0x00000000002cd60d        0x8 common/built-in.o
                                          0x5 (size before relaxing)
 .rodata.fit_image_get_comp.str1.1
                0x00000000002cd60d        0xc common/built-in.o
 .rodata.fit_image_get_data.str1.1
                0x00000000002cd60d        0xa common/built-in.o
                                          0x5 (size before relaxing)
 .rodata.fit_image_get_data_offset.str1.1
                0x00000000002cd60d        0xc common/built-in.o
 .rodata.fit_image_get_data_position.str1.1
                0x00000000002cd619        0xe common/built-in.o
 .rodata.fit_image_get_data_size.str1.1
                0x00000000002cd627        0xa common/built-in.o
 .rodata.fit_image_get_entry.str1.1
                0x00000000002cd631        0x6 common/built-in.o
 .rodata.fit_image_get_load.str1.1
                0x00000000002cd637        0x5 common/built-in.o
 .rodata.fit_image_get_node.str1.1
                0x00000000002cd637        0x8 common/built-in.o
 .rodata.fit_image_get_os.str1.1
                0x00000000002cd63f        0x3 common/built-in.o
 .rodata.fit_image_get_type.str1.1
                0x00000000002cd63f        0x5 common/built-in.o
 .rodata.fit_image_hash_get_algo.str1.1
                0x00000000002cd63f        0x5 common/built-in.o
 .rodata.fit_image_hash_get_value.str1.1
                0x00000000002cd644        0x5 common/built-in.o
                                          0x6 (size before relaxing)
 .rodata.fit_image_load_index.str1.1
                0x00000000002cd644      0x202 common/built-in.o
                                        0x215 (size before relaxing)
 .rodata.fit_image_print.str1.1
                0x00000000002cd846       0xeb common/built-in.o
                                         0xf8 (size before relaxing)
 .rodata.fit_image_print_data.str1.1
                0x00000000002cd931       0x5e common/built-in.o
                                         0x75 (size before relaxing)
 .rodata.fit_image_verify.str1.1
                0x00000000002cd98f       0x1a common/built-in.o
                                         0x4b (size before relaxing)
 .rodata.fit_image_verify_with_data.str1.1
                0x00000000002cd9a9       0x51 common/built-in.o
                                         0x52 (size before relaxing)
 .rodata.fit_print_contents.str1.1
                0x00000000002cd9fa       0x60 common/built-in.o
                                         0x64 (size before relaxing)
 .rodata.fixed_regulator_ofdata_to_platdata.str1.1
                0x00000000002cda5a       0x24 drivers/power/regulator/built-in.o
                                         0x41 (size before relaxing)
 .rodata.fixed_regulator_set_enable.str1.1
                0x00000000002cda7e       0x26 drivers/power/regulator/built-in.o
 .rodata.fixup_branch.part.0.str1.1
                0x00000000002cdaa4       0x17 lib/built-in.o
 .rodata.fixup_pcfg_drive_strength.str1.1
                0x00000000002cdabb       0x43 arch/arm/mach-rockchip/built-in.o
 .rodata.flash_complete_page_read.str1.1
                0x00000000002cdafe       0x30 drivers/built-in.o
 .rodata.flash_ddr_tuning_read.str1.1
                0x00000000002cdb2e       0x69 drivers/built-in.o
 .rodata.flash_dual_page_prog.str1.1
                0x00000000002cdb97       0x1a drivers/built-in.o
 .rodata.flash_erase_block_en.str1.1
                0x00000000002cdbb1       0x49 drivers/built-in.o
 .rodata.flash_erase_duplane_block.str1.1
                0x00000000002cdbfa       0x58 drivers/built-in.o
 .rodata.flash_get_last_written_page.str1.1
                0x00000000002cdc52       0x27 drivers/built-in.o
 .rodata.flash_info_blk_init.str1.1
                0x00000000002cdc79       0x22 drivers/built-in.o
 .rodata.flash_info_data_init.str1.1
                0x00000000002cdc9b        0xc drivers/built-in.o
 .rodata.flash_info_flush.str1.1
                0x00000000002cdca7       0x45 drivers/built-in.o
 .rodata.flash_prog_page.str1.1
                0x00000000002cdcec       0x2c drivers/built-in.o
 .rodata.flash_prog_page_en.str1.1
                0x00000000002cdd18       0x2d drivers/built-in.o
                                         0x43 (size before relaxing)
 .rodata.flash_read_id.str1.1
                0x00000000002cdd45       0x22 drivers/built-in.o
 .rodata.flash_read_page_en.str1.1
                0x00000000002cdd67       0x4a drivers/built-in.o
 .rodata.flash_set_interface_mode.str1.1
                0x00000000002cddb1       0x24 drivers/built-in.o
 .rodata.flush_dir_table.constprop.0.str1.1
                0x00000000002cddd5       0x21 fs/built-in.o
 .rodata.format_mac_pxe.constprop.0.str1.1
                0x00000000002cddf6       0x25 cmd/built-in.o
 .rodata.from_env.str1.1
                0x00000000002cde1b       0x22 cmd/built-in.o
 .rodata.fs_devread.str1.1
                0x00000000002cde3d       0x98 fs/built-in.o
 .rodata.fs_get_fstype.str1.1
                0x00000000002cded5       0x3c fs/built-in.o
 .rodata.fs_ls_generic.str1.1
                0x00000000002cdf11       0x37 fs/built-in.o
 .rodata.fs_probe_unsupported.str1.1
                0x00000000002cdf48       0x24 fs/built-in.o
 .rodata.fs_read.str1.1
                0x00000000002cdf6c       0x24 fs/built-in.o
 .rodata.fs_write.str1.1
                0x00000000002cdf90       0x1f fs/built-in.o
 .rodata.fsg_add.str1.1
                0x00000000002cdfaf       0x5b drivers/usb/gadget/built-in.o
 .rodata.fsg_main_thread.str1.1
                0x00000000002ce00a       0xee drivers/usb/gadget/built-in.o
 .rodata.fsg_setup.str1.1
                0x00000000002ce0f8       0x24 drivers/usb/gadget/built-in.o
                                         0x3c (size before relaxing)
 .rodata.fsg_string_interface
                0x00000000002ce11c        0xd drivers/usb/gadget/built-in.o
 .rodata.ft_verify_fdt.str1.1
                0x00000000002ce129       0x98 arch/arm/mach-rockchip/built-in.o
 .rodata.ftl_alloc_new_data_sblk.str1.1
                0x00000000002ce1c1       0x17 drivers/built-in.o
 .rodata.ftl_alloc_sblk.str1.1
                0x00000000002ce1d8       0x12 drivers/built-in.o
 .rodata.ftl_dump_write_open_sblk.str1.1
                0x00000000002ce1ea       0xd5 drivers/built-in.o
 .rodata.ftl_ext_info_init.str1.1
                0x00000000002ce2bf       0x35 drivers/built-in.o
 .rodata.ftl_free_sblk.str1.1
                0x00000000002ce2f4       0x22 drivers/built-in.o
 .rodata.ftl_info_blk_init.str1.1
                0x00000000002ce316       0x50 drivers/built-in.o
 .rodata.ftl_info_flush.str1.1
                0x00000000002ce366       0x31 drivers/built-in.o
 .rodata.ftl_ink_check_sblk.str1.1
                0x00000000002ce397       0x42 drivers/built-in.o
 .rodata.ftl_mask_bad_block.str1.1
                0x00000000002ce3d9       0x26 drivers/built-in.o
 .rodata.ftl_open_sblk_init.str1.1
                0x00000000002ce3ff       0x15 drivers/built-in.o
 .rodata.ftl_open_sblk_recovery.str1.1
                0x00000000002ce414      0x149 drivers/built-in.o
 .rodata.ftl_sblk_dump.str1.1
                0x00000000002ce55d       0x94 drivers/built-in.o
 .rodata.ftl_sysblk_dump.str1.1
                0x00000000002ce5f1        0x5 drivers/built-in.o
 .rodata.ftl_update_l2p_map.str1.1
                0x00000000002ce5f6       0x4e drivers/built-in.o
 .rodata.ftl_vpn_decrement.str1.1
                0x00000000002ce644       0x1f drivers/built-in.o
 .rodata.ftl_write_commit.str1.1
                0x00000000002ce663       0x2a drivers/built-in.o
 .rodata.ftl_write_completed.str1.1
                0x00000000002ce68d       0x47 drivers/built-in.o
 .rodata.g_dnl_bind.str1.1
                0x00000000002ce6d4        0xb drivers/usb/gadget/built-in.o
 .rodata.g_dnl_bind_fixup.str1.1
                0x00000000002ce6df        0xc drivers/usb/gadget/built-in.o
                                         0x37 (size before relaxing)
 .rodata.g_dnl_register.str1.1
                0x00000000002ce6eb       0x18 drivers/usb/gadget/built-in.o
 .rodata.gc_add_sblk.str1.1
                0x00000000002ce703       0x97 drivers/built-in.o
 .rodata.gc_check_data_one_wl.str1.1
                0x00000000002ce79a       0x36 drivers/built-in.o
 .rodata.gc_do_copy_back.str1.1
                0x00000000002ce7d0       0x72 drivers/built-in.o
 .rodata.gc_free_bad_sblk.str1.1
                0x00000000002ce842       0x17 drivers/built-in.o
 .rodata.gc_free_src_blk.str1.1
                0x00000000002ce859       0x38 drivers/built-in.o
 .rodata.gc_free_temp_buf.str1.1
                0x00000000002ce891       0x20 drivers/built-in.o
 .rodata.gc_ink_check_sblk.str1.1
                0x00000000002ce8b1       0x1b drivers/built-in.o
 .rodata.gc_mark_bad_ppa.str1.1
                0x00000000002ce8cc       0x1a drivers/built-in.o
 .rodata.gc_recovery.str1.1
                0x00000000002ce8e6       0x1a drivers/built-in.o
                                         0x88 (size before relaxing)
 .rodata.gc_scan_src_blk.str1.1
                0x00000000002ce900       0x68 drivers/built-in.o
 .rodata.gc_search_src_blk.str1.1
                0x00000000002ce968       0x6b drivers/built-in.o
 .rodata.gc_static_wearleveling.str1.1
                0x00000000002ce9d3      0x2cb drivers/built-in.o
 .rodata.gc_update_l2p_map_new.str1.1
                0x00000000002cec9e       0x82 drivers/built-in.o
 .rodata.gc_write_completed.str1.1
                0x00000000002ced20       0x15 drivers/built-in.o
 .rodata.generic_phy_get_by_index.str1.1
                0x00000000002ced35       0x10 drivers/built-in.o
 .rodata.genimg_get_arch_id.str1.1
                0x00000000002ced45       0xd0 common/built-in.o
                                          0x4 (size before relaxing)
 .rodata.genimg_get_arch_name.str1.1
                0x00000000002ced45       0x15 common/built-in.o
 .rodata.genimg_get_comp_id.str1.1
                0x00000000002ced5a       0xd0 common/built-in.o
                                          0xc (size before relaxing)
 .rodata.genimg_get_comp_name.str1.1
                0x00000000002ced5a       0x14 common/built-in.o
 .rodata.genimg_get_os_id.str1.1
                0x00000000002ced6e       0xd0 common/built-in.o
                                          0x3 (size before relaxing)
 .rodata.genimg_get_os_name.str1.1
                0x00000000002ced6e        0xb common/built-in.o
 .rodata.genimg_get_type_id.str1.1
                0x00000000002ced79       0xd0 common/built-in.o
                                          0x6 (size before relaxing)
 .rodata.genimg_get_type_name.str1.1
                0x00000000002ced79        0xe common/built-in.o
 .rodata.genimg_print_size.str1.1
                0x00000000002ced87        0xc common/built-in.o
                                          0xe (size before relaxing)
 .rodata.genphy_update_link.str1.1
                0x00000000002ced93       0x4d drivers/net/phy/built-in.o
                                         0x56 (size before relaxing)
 .rodata.get_cluster.str1.1
                0x00000000002cede0       0x25 fs/built-in.o
 .rodata.get_descriptor_len.str1.1
                0x00000000002cee05       0x64 common/built-in.o
 .rodata.get_display_buffer.str1.1
                0x00000000002cee69       0x2a drivers/built-in.o
 .rodata.get_fatent.str1.1
                0x00000000002cee93       0x22 fs/built-in.o
 .rodata.get_local_var.str1.1
                0x00000000002ceeb5        0x5 common/built-in.o
                                          0x3 (size before relaxing)
 .rodata.get_output_if_name.str1.1
                0x00000000002ceeb5       0x54 drivers/built-in.o
 .rodata.get_phy_device_by_mask.str1.1
                0x00000000002cef09       0x29 drivers/net/phy/built-in.o
 .rodata.get_plane_name.str1.1
                0x00000000002cef32       0x52 drivers/built-in.o
 .rodata.get_preloaded_partition.str1.1
                0x00000000002cef84       0xc4 lib/built-in.o
                                        0x11f (size before relaxing)
 .rodata.get_pxe_file.str1.1
                0x00000000002cf048        0x9 cmd/built-in.o
 .rodata.get_pxelinux_path.str1.1
                0x00000000002cf051       0x3e cmd/built-in.o
 .rodata.get_relfile.str1.1
                0x00000000002cf08f       0x5f cmd/built-in.o
                                         0x63 (size before relaxing)
 .rodata.get_rkss_version.part.0.str1.1
                0x00000000002cf0ee       0x87 lib/built-in.o
 .rodata.get_unique_guid_for_partition.str1.1
                0x00000000002cf175       0x1b lib/built-in.o
 .rodata.gmac_rockchip_ofdata_to_platdata.str1.1
                0x00000000002cf175       0x56 drivers/net/built-in.o
                                         0x5c (size before relaxing)
 .rodata.gpio_is_valid.str1.1
                0x00000000002cf1cb       0x2f drivers/built-in.o
 .rodata.gpio_request_tail.str1.1
                0x00000000002cf1fa        0x8 drivers/gpio/built-in.o
                                          0xe (size before relaxing)
 .rodata.gpt_fill_header.str1.1
                0x00000000002cf202       0x24 disk/built-in.o
 .rodata.gpt_fill_pte.str1.1
                0x00000000002cf226       0x5b disk/built-in.o
 .rodata.gpt_verify_partitions.str1.1
                0x00000000002cf281       0xa3 disk/built-in.o
 .rodata.gzip_parse_header.str1.1
                0x00000000002cf324       0x25 lib/built-in.o
 .rodata.handle_include.str1.1
                0x00000000002cf349       0x33 cmd/built-in.o
 .rodata.handle_pxe_menu.str1.1
                0x00000000002cf37c       0x15 cmd/built-in.o
                                         0x18 (size before relaxing)
 .rodata.hang.str1.1
                0x00000000002cf391       0x2a lib/built-in.o
 .rodata.hash_command.str1.1
                0x00000000002cf3bb       0x25 common/built-in.o
 .rodata.hc_interrupt.str1.1
                0x00000000002cf3e0       0x8f drivers/usb/host/built-in.o
 .rodata.hc_reset.str1.1
                0x00000000002cf46f       0x40 drivers/usb/host/built-in.o
 .rodata.hex_asc
                0x00000000002cf4af       0x11 lib/built-in.o
                0x00000000002cf4af                hex_asc
 .rodata.hexport_r.str1.1
                0x00000000002cf4c0       0x30 lib/built-in.o
 .rodata.himport_r.str1.1
                0x00000000002cf4f0       0x99 lib/built-in.o
 .rodata.hotkey_run.str1.1
                0x00000000002cf589       0x2c arch/arm/mach-rockchip/built-in.o
                                         0x35 (size before relaxing)
 .rodata.hynix_read_retrial.str1.1
                0x00000000002cf5b5       0x29 drivers/built-in.o
 .rodata.i2c_chip_ofdata_to_platdata.str1.1
                0x00000000002cf5de       0x16 drivers/i2c/built-in.o
                                         0x1a (size before relaxing)
 .rodata.i2c_get_chip.str1.1
                0x00000000002cf5f4       0x20 drivers/i2c/built-in.o
 .rodata.i2c_post_probe.str1.1
                0x00000000002cf614       0x24 drivers/i2c/built-in.o
                                         0x34 (size before relaxing)
 .rodata.idb_write_data.str1.1
                0x00000000002cf638       0x59 drivers/built-in.o
 .rodata.image_get_load.str1.1
                0x00000000002cf691        0xe common/built-in.o
 .rodata.image_load.constprop.0.str1.1
                0x00000000002cf691       0x81 common/built-in.o
                                         0xaa (size before relaxing)
 .rodata.image_print_contents.str1.1
                0x00000000002cf712       0xd0 common/built-in.o
                                         0xd4 (size before relaxing)
 .rodata.image_setup_libfdt.str1.1
                0x00000000002cf7e2       0x8f common/built-in.o
 .rodata.inflate.str1.1
                0x00000000002cf871      0x158 lib/built-in.o
 .rodata.inflate_fast.str1.1
                0x00000000002cf9c9       0x50 lib/built-in.o
 .rodata.init_baud_rate.str1.1
                0x00000000002cfa19        0x9 common/built-in.o
 .rodata.init_kernel_dtb.str1.1
                0x00000000002cfa22       0xb5 arch/arm/mach-rockchip/built-in.o
                                         0xdd (size before relaxing)
 .rodata.init_mmc_device.str1.1
                0x00000000002cfad7       0x1a cmd/built-in.o
 .rodata.initcall_run_list.str1.1
                0x00000000002cfaf1       0x31 lib/built-in.o
 .rodata.initr_caches.str1.1
                0x00000000002cfb22        0xb common/built-in.o
                                          0xd (size before relaxing)
 .rodata.initr_ethaddr.str1.1
                0x00000000002cfb2d        0x8 common/built-in.o
 .rodata.initr_net.str1.1
                0x00000000002cfb2d        0x8 common/built-in.o
 .rodata.inno_video_phy_power_on.str1.1
                0x00000000002cfb35       0x11 drivers/built-in.o
 .rodata.inno_video_phy_probe.str1.1
                0x00000000002cfb46       0x40 drivers/built-in.o
 .rodata.insert_var_value_sub.str1.1
                0x00000000002cfb86        0x6 common/built-in.o
 .rodata.io_domain_init.str1.1
                0x00000000002cfb8c        0xf drivers/power/io-domain/built-in.o
 .rodata.iomem_show.str1.1
                0x00000000002cfb9b       0x11 arch/arm/mach-rockchip/built-in.o
                                         0x21 (size before relaxing)
 .rodata.iomem_show_by_match.str1.1
                0x00000000002cfbac        0xb arch/arm/mach-rockchip/built-in.o
                                          0xf (size before relaxing)
 .rodata.ip_to_string.str1.1
                0x00000000002cfbb7        0xc net/built-in.o
 .rodata.irq_handler_enable_suspend_only.str1.1
                0x00000000002cfbc3       0x23 drivers/built-in.o
 .rodata.irq_install_handler.str1.1
                0x00000000002cfbe6       0x31 drivers/built-in.o
 .rodata.is_extend_pll.str1.1
                0x00000000002cfc17       0x45 drivers/built-in.o
                                         0x69 (size before relaxing)
 .rodata.is_gpt_valid.str1.1
                0x00000000002cfc5c       0xea disk/built-in.o
 .rodata.is_valid_gpt_buf.str1.1
                0x00000000002cfd46       0x30 disk/built-in.o
 .rodata.key_bind_children.str1.1
                0x00000000002cfd76        0xb drivers/built-in.o
 .rodata.key_post_probe.str1.1
                0x00000000002cfd76       0x92 drivers/built-in.o
                                         0xba (size before relaxing)
 .rodata.key_read.str1.1
                0x00000000002cfe08       0x89 drivers/built-in.o
                                         0x90 (size before relaxing)
 .rodata.label_boot.str1.1
                0x00000000002cfe91      0x131 cmd/built-in.o
                                        0x19c (size before relaxing)
 .rodata.label_print.str1.1
                0x00000000002cffc2        0x8 cmd/built-in.o
 .rodata.lists_bind_drivers.str1.1
                0x00000000002cffca       0x1a drivers/built-in.o
 .rodata.lists_bind_fdt.str1.1
                0x00000000002cffe4       0x3f drivers/built-in.o
                                         0x4a (size before relaxing)
 .rodata.lmb_alloc_base.str1.1
                0x00000000002d0023       0x34 lib/built-in.o
 .rodata.load_and_verify_vbmeta.str1.1
                0x00000000002d0057      0x5a2 lib/built-in.o
                                        0x5ec (size before relaxing)
 .rodata.load_attestation_key.str1.1
                0x00000000002d05f9      0x121 common/built-in.o
                                        0x13c (size before relaxing)
 .rodata.load_bmp_logo.str1.1
                0x00000000002d071a       0x5b drivers/built-in.o
 .rodata.load_full_partition.str1.1
                0x00000000002d0775       0x76 lib/built-in.o
                                         0x86 (size before relaxing)
 .rodata.load_l2p_region.str1.1
                0x00000000002d07eb       0x8b drivers/built-in.o
 .rodata.load_metadata.str1.1
                0x00000000002d0876       0x27 lib/built-in.o
 .rodata.lpa_rebuild_hash.str1.1
                0x00000000002d0876        0xa drivers/built-in.o
 .rodata.lzop_magic
                0x00000000002d0880        0x9 lib/built-in.o
 .rodata.main_loop.str1.1
                0x00000000002d0889       0x11 common/built-in.o
                                         0x19 (size before relaxing)
 .rodata.manufacturer
                0x00000000002d089a        0x9 drivers/usb/gadget/built-in.o
 .rodata.match.str1.1
                0x00000000002d08a3       0x18 lib/built-in.o
 .rodata.match_entry.str1.1
                0x00000000002d08bb       0x1b lib/built-in.o
 .rodata.match_string.str1.1
                0x00000000002d08bb       0x2c lib/built-in.o
 .rodata.mdio_list_devices.str1.1
                0x00000000002d08e7       0x12 common/built-in.o
                                         0x19 (size before relaxing)
 .rodata.mdio_phydev_for_ethname.str1.1
                0x00000000002d08f9       0x1c common/built-in.o
 .rodata.mdio_register.str1.1
                0x00000000002d0915       0x2c common/built-in.o
 .rodata.menu_get_choice.str1.1
                0x00000000002d0941       0x1d common/built-in.o
                                         0x2a (size before relaxing)
 .rodata.micron_read_retrial.str1.1
                0x00000000002d095e       0x4d drivers/built-in.o
 .rodata.miiphy_duplex.str1.1
                0x00000000002d09ab       0x4f common/built-in.o
 .rodata.miiphy_get_dev_by_name.str1.1
                0x00000000002d09fa       0x13 common/built-in.o
 .rodata.miiphy_listdev.str1.1
                0x00000000002d0a0d       0x2a common/built-in.o
 .rodata.miiphy_set_current_dev.str1.1
                0x00000000002d0a37       0x14 common/built-in.o
 .rodata.miiphy_speed.str1.1
                0x00000000002d0a4b       0x49 common/built-in.o
 .rodata.misc_require_recovery.str1.1
                0x00000000002d0a94       0x6c arch/arm/mach-rockchip/built-in.o
                                         0x8d (size before relaxing)
 .rodata.mmc_berase.str1.1
                0x00000000002d0b00       0x5d drivers/built-in.o
 .rodata.mmc_bind.str1.1
                0x00000000002d0b5d        0x8 drivers/built-in.o
                                          0xc (size before relaxing)
 .rodata.mmc_bread.str1.1
                0x00000000002d0b65       0x66 drivers/built-in.o
 .rodata.mmc_erase_t.str1.1
                0x00000000002d0bcb       0x12 drivers/built-in.o
 .rodata.mmc_hwpart_config.str1.1
                0x00000000002d0bdd      0x19f drivers/built-in.o
 .rodata.mmc_init.str1.1
                0x00000000002d0d7c       0x12 drivers/built-in.o
 .rodata.mmc_initialize.str1.1
                0x00000000002d0d8e       0x17 drivers/built-in.o
 .rodata.mmc_read_blocks.str1.1
                0x00000000002d0d8e       0x1b drivers/built-in.o
 .rodata.mmc_rpmb_read.str1.1
                0x00000000002d0da9       0x53 drivers/built-in.o
 .rodata.mmc_rpmb_response.str1.1
                0x00000000002d0dfc       0x1a drivers/built-in.o
                                         0x22 (size before relaxing)
 .rodata.mmc_rpmb_write.str1.1
                0x00000000002d0e16       0x20 drivers/built-in.o
 .rodata.mmc_send_status.str1.1
                0x00000000002d0e36       0x32 drivers/built-in.o
 .rodata.mmc_start_init.str1.1
                0x00000000002d0e68       0x67 drivers/built-in.o
 .rodata.mmc_startup.str1.1
                0x00000000002d0ecf       0x5e drivers/built-in.o
                                         0x64 (size before relaxing)
 .rodata.mmc_write_blocks.str1.1
                0x00000000002d0f2d       0x12 drivers/built-in.o
                                         0x59 (size before relaxing)
 .rodata.mod_mem.part.0.str1.1
                0x00000000002d0f3f       0x26 cmd/built-in.o
 .rodata.my_malloc_init.str1.1
                0x00000000002d0f65       0x2d lib/built-in.o
 .rodata.names.0
                0x00000000002d0f92        0x6 lib/built-in.o
 .rodata.nand_flash_print_info.str1.1
                0x00000000002d0f98      0x246 drivers/built-in.o
                                        0x24f (size before relaxing)
 .rodata.nandc_init.str1.1
                0x00000000002d11de       0x37 drivers/built-in.o
 .rodata.nandc_xfer.str1.1
                0x00000000002d1215       0x37 drivers/built-in.o
 .rodata.nandc_xfer_done.str1.1
                0x00000000002d124c       0x74 drivers/built-in.o
 .rodata.net_auto_load.str1.1
                0x00000000002d12c0        0xd net/built-in.o
 .rodata.net_bcast_ethaddr
                0x00000000002d12cd        0x6 net/built-in.o
                0x00000000002d12cd                net_bcast_ethaddr
 .rodata.net_loop.str1.1
                0x00000000002d12d3       0xe5 net/built-in.o
                                         0xf7 (size before relaxing)
 .rodata.net_null_ethaddr
                0x00000000002d13b8        0x6 net/built-in.o
                0x00000000002d13b8                net_null_ethaddr
 .rodata.net_process_received_packet.str1.1
                0x00000000002d13be       0x1d net/built-in.o
 .rodata.net_start_again.str1.1
                0x00000000002d13db        0x9 net/built-in.o
                                         0x15 (size before relaxing)
 .rodata.netboot_common.str1.1
                0x00000000002d13e4       0x43 cmd/built-in.o
                                         0x4a (size before relaxing)
 .rodata.nfs_handler.str1.1
                0x00000000002d1427       0x56 net/built-in.o
 .rodata.nfs_lookup_reply.str1.1
                0x00000000002d147d       0x25 net/built-in.o
                                         0x27 (size before relaxing)
 .rodata.nfs_read_reply.constprop.0.str1.1
                0x00000000002d14a2        0x4 net/built-in.o
 .rodata.nfs_readlink_reply.str1.1
                0x00000000002d14a6        0x2 net/built-in.o
 .rodata.nfs_start.str1.1
                0x00000000002d14a6       0x1e net/built-in.o
                                         0x1f (size before relaxing)
 .rodata.nfs_timeout_handler.str1.1
                0x00000000002d14c4       0x2a net/built-in.o
 .rodata.ns16550_serial_ofdata_to_platdata.str1.1
                0x00000000002d14ee       0x3a drivers/serial/built-in.o
                                         0x4a (size before relaxing)
 .rodata.null_hash_md5_value
                0x00000000002d1528       0x10 drivers/built-in.o
 .rodata.null_hash_sha1_value
                0x00000000002d1538       0x14 drivers/built-in.o
 .rodata.null_hash_sha256_value
                0x00000000002d154c       0x20 drivers/built-in.o
 .rodata.null_hash_sha512_value
                0x00000000002d156c       0x40 drivers/built-in.o
 .rodata.null_hash_sm3_value
                0x00000000002d15ac       0x20 drivers/built-in.o
 .rodata.of_address_to_resource.str1.1
                0x00000000002d15cc        0xa drivers/built-in.o
 .rodata.of_alias_dump.str1.1
                0x00000000002d15d6       0x1e drivers/built-in.o
                                         0x43 (size before relaxing)
 .rodata.of_alias_scan.str1.1
                0x00000000002d15f4       0x24 drivers/built-in.o
                                         0x46 (size before relaxing)
 .rodata.of_device_is_available.str1.1
                0x00000000002d1618        0x5 drivers/built-in.o
                                          0xc (size before relaxing)
 .rodata.of_device_is_compatible.str1.1
                0x00000000002d161d        0xb drivers/built-in.o
 .rodata.of_find_node_opts_by_path.str1.1
                0x00000000002d161d        0x3 drivers/built-in.o
                                          0x5 (size before relaxing)
 .rodata.of_get_address.str1.1
                0x00000000002d1620        0x4 drivers/built-in.o
 .rodata.of_match_bus.str1.1
                0x00000000002d1620       0x30 drivers/built-in.o
 .rodata.of_n_addr_cells.str1.1
                0x00000000002d1650        0xf drivers/built-in.o
 .rodata.of_n_size_cells.str1.1
                0x00000000002d165f        0xc drivers/built-in.o
 .rodata.of_translate_address.str1.1
                0x00000000002d165f        0x7 drivers/built-in.o
 .rodata.ofnode_pre_reloc.str1.1
                0x00000000002d165f       0x30 drivers/built-in.o
 .rodata.ofnode_read_resource.str1.1
                0x00000000002d165f        0x4 drivers/built-in.o
 .rodata.ofnode_read_resource_byname.str1.1
                0x00000000002d165f        0xa drivers/built-in.o
 .rodata.ofnode_read_u64.str1.1
                0x00000000002d165f       0x13 drivers/built-in.o
 .rodata.ohci_create_int_queue.str1.1
                0x00000000002d1672       0x80 drivers/usb/host/built-in.o
 .rodata.ohci_get_ohci_dev.str1.1
                0x00000000002d16f2       0x36 drivers/usb/host/built-in.o
 .rodata.ohci_register.str1.1
                0x00000000002d1728       0x10 drivers/usb/host/built-in.o
 .rodata.ohci_shutdown_phy.str1.1
                0x00000000002d1738       0x1d drivers/usb/host/built-in.o
 .rodata.ohci_submit_control_msg.str1.1
                0x00000000002d1755       0x3e drivers/usb/host/built-in.o
 .rodata.ohci_usb_probe.str1.1
                0x00000000002d1793      0x11c drivers/usb/host/built-in.o
                                        0x144 (size before relaxing)
 .rodata.on_callbacks.str1.1
                0x00000000002d18af      0x105 env/built-in.o
 .rodata.on_console.str1.1
                0x00000000002d19b4        0x4 common/built-in.o
                                         0x27 (size before relaxing)
 .rodata.on_flags.str1.1
                0x00000000002d19b4       0x5b env/built-in.o
 .rodata.overlay_adjust_node_phandles.str1.1
                0x00000000002d1a0f       0x16 lib/built-in.o
 .rodata.overlay_get_target.str1.1
                0x00000000002d1a0f       0x13 lib/built-in.o
 .rodata.p.4    0x00000000002d1a22        0xe drivers/built-in.o
 .rodata.padding_RSA2048_SHA256
                0x00000000002d1a30       0xe0 lib/built-in.o
 .rodata.padding_RSA2048_SHA512
                0x00000000002d1b10       0xc0 lib/built-in.o
 .rodata.padding_RSA4096_SHA256
                0x00000000002d1bd0      0x1e0 lib/built-in.o
 .rodata.padding_RSA4096_SHA512
                0x00000000002d1db0      0x1c0 lib/built-in.o
 .rodata.padding_RSA8192_SHA256
                0x00000000002d1f70      0x3e0 lib/built-in.o
 .rodata.padding_RSA8192_SHA512
                0x00000000002d2350      0x3c0 lib/built-in.o
 .rodata.panel_simple_prepare.str1.1
                0x00000000002d2710       0x1c drivers/built-in.o
 .rodata.panel_simple_unprepare.str1.1
                0x00000000002d272c       0x1d drivers/built-in.o
 .rodata.param_parse_assign_bootdev.str1.1
                0x00000000002d2749        0x1 arch/arm/mach-rockchip/built-in.o
 .rodata.param_parse_atags_bootdev.str1.1
                0x00000000002d2749       0x36 arch/arm/mach-rockchip/built-in.o
                                         0x59 (size before relaxing)
 .rodata.param_parse_atf_mem.str1.1
                0x00000000002d277f       0x48 arch/arm/mach-rockchip/built-in.o
 .rodata.param_parse_ddr_mem.str1.1
                0x00000000002d27c7       0x1a arch/arm/mach-rockchip/built-in.o
 .rodata.param_parse_pubkey_fuse_programmed.str1.1
                0x00000000002d27e1       0x24 arch/arm/mach-rockchip/built-in.o
 .rodata.parse_integer.str1.1
                0x00000000002d2805       0x17 cmd/built-in.o
 .rodata.parse_pxefile_top.str1.1
                0x00000000002d281c       0x81 cmd/built-in.o
                                         0x89 (size before relaxing)
 .rodata.parse_sliteral.str1.1
                0x00000000002d289d       0x1f cmd/built-in.o
 .rodata.parse_stream_outer.str1.1
                0x00000000002d28bc       0x4d common/built-in.o
 .rodata.parse_string_outer.str1.1
                0x00000000002d2909        0x2 common/built-in.o
 .rodata.part_efi_repair.str1.1
                0x00000000002d2909       0x97 disk/built-in.o
 .rodata.part_get_info_by_name_or_alias.str1.1
                0x00000000002d29a0       0x1a common/built-in.o
 .rodata.part_get_info_efi.str1.1
                0x00000000002d29ba        0xa disk/built-in.o
 .rodata.part_get_info_extended.str1.1
                0x00000000002d29ba        0xa disk/built-in.o
                                         0x11 (size before relaxing)
 .rodata.part_get_info_rkparm.str1.1
                0x00000000002d29c4       0x39 disk/built-in.o
                                         0x43 (size before relaxing)
 .rodata.part_get_info_whole_disk.str1.1
                0x00000000002d29fd        0xb disk/built-in.o
                                         0x12 (size before relaxing)
 .rodata.part_print.str1.1
                0x00000000002d2a08       0xa1 disk/built-in.o
                                         0xaa (size before relaxing)
 .rodata.part_print_dos.str1.1
                0x00000000002d2aa9       0x2a disk/built-in.o
 .rodata.part_print_efi.str1.1
                0x00000000002d2ad3       0xf9 disk/built-in.o
 .rodata.part_print_rkparm.str1.1
                0x00000000002d2bcc       0x50 disk/built-in.o
 .rodata.part_set_generic_name.str1.1
                0x00000000002d2c1c        0xa disk/built-in.o
 .rodata.part_test_efi.str1.1
                0x00000000002d2c26       0x33 disk/built-in.o
 .rodata.phandle_gpio_to_irq.str1.1
                0x00000000002d2c59       0x5e drivers/built-in.o
 .rodata.phy_connect_dev.str1.1
                0x00000000002d2cb7       0x2f drivers/net/phy/built-in.o
 .rodata.phy_reset.str1.1
                0x00000000002d2ce6       0x15 drivers/net/phy/built-in.o
 .rodata.pinconfig_post_bind.str1.1
                0x00000000002d2cfb        0xa drivers/built-in.o
                                         0x15 (size before relaxing)
 .rodata.pinctrl_select_state.str1.1
                0x00000000002d2d05       0x31 drivers/built-in.o
 .rodata.ping_start.str1.1
                0x00000000002d2d36       0x11 net/built-in.o
 .rodata.pll_mode_shift
                0x00000000002d2d47        0x5 drivers/built-in.o
 .rodata.pm_alloc_new_blk.str1.1
                0x00000000002d2d4c       0x1f drivers/built-in.o
 .rodata.pm_free_sblk.str1.1
                0x00000000002d2d6b       0x3e drivers/built-in.o
 .rodata.pm_init.str1.1
                0x00000000002d2da9       0x49 drivers/built-in.o
 .rodata.pm_log2phys.str1.1
                0x00000000002d2df2       0x25 drivers/built-in.o
 .rodata.pm_ppa_update_check.str1.1
                0x00000000002d2e17       0x23 drivers/built-in.o
 .rodata.pm_write_page.str1.1
                0x00000000002d2e3a       0x1f drivers/built-in.o
 .rodata.pmic_bind_children.str1.1
                0x00000000002d2e59        0xf drivers/power/pmic/built-in.o
 .rodata.populate_andr_img_hdr.str1.1
                0x00000000002d2e59       0xa5 common/built-in.o
 .rodata.populate_boot_info.str1.1
                0x00000000002d2efe       0x1a common/built-in.o
 .rodata.print_buffer.str1.1
                0x00000000002d2f18        0x8 lib/built-in.o
                                         0x19 (size before relaxing)
 .rodata.print_data.part.0.str1.1
                0x00000000002d2f20       0x25 cmd/built-in.o
                                         0x32 (size before relaxing)
 .rodata.print_freq.str1.1
                0x00000000002d2f45       0x1b lib/built-in.o
 .rodata.print_ftl_debug_info.str1.1
                0x00000000002d2f60      0x142 drivers/built-in.o
 .rodata.print_list_info.str1.1
                0x00000000002d30a2       0x38 drivers/built-in.o
 .rodata.print_mmc_devices.str1.1
                0x00000000002d30da       0x12 drivers/built-in.o
                                         0x1c (size before relaxing)
 .rodata.print_num.str1.1
                0x00000000002d30ec       0x10 cmd/built-in.o
 .rodata.print_partition_extended.str1.1
                0x00000000002d30fc       0x83 disk/built-in.o
                                         0x84 (size before relaxing)
 .rodata.print_size.str1.1
                0x00000000002d317f       0x15 lib/built-in.o
 .rodata.product
                0x00000000002d3194       0x14 drivers/usb/gadget/built-in.o
 .rodata.psci_bind.str1.1
                0x00000000002d31a8       0x1a drivers/built-in.o
                                         0x28 (size before relaxing)
 .rodata.psci_probe.str1.1
                0x00000000002d31c2       0x42 drivers/built-in.o
                                         0x49 (size before relaxing)
 .rodata.pwm_backlight_enable.str1.1
                0x00000000002d3204       0x16 drivers/built-in.o
 .rodata.pwm_backlight_ofdata_to_platdata.str1.1
                0x00000000002d321a       0x3b drivers/built-in.o
                                         0x55 (size before relaxing)
 .rodata.pwm_regulator_ofdata_to_platdata.str1.1
                0x00000000002d3255       0x15 drivers/power/regulator/built-in.o
                                         0x3e (size before relaxing)
 .rodata.pwm_regulator_set_voltage.str1.1
                0x00000000002d326a       0x2d drivers/power/regulator/built-in.o
 .rodata.px30_bus_set_clk.str1.1
                0x00000000002d3297       0x1e drivers/built-in.o
 .rodata.px30_clk_bind.str1.1
                0x00000000002d32b5       0x30 drivers/built-in.o
 .rodata.px30_clk_probe.str1.1
                0x00000000002d32b5       0x5c drivers/built-in.o
 .rodata.px30_clk_set_rate.str1.1
                0x00000000002d3311       0x2b drivers/built-in.o
 .rodata.px30_gmac_fix_mac_speed.str1.1
                0x00000000002d333c        0xe drivers/net/built-in.o
 .rodata.px30_gpll_set_pmuclk.str1.1
                0x00000000002d334a       0x37 drivers/built-in.o
 .rodata.px30_i2c_get_clk.str1.1
                0x00000000002d3381       0x1d drivers/built-in.o
 .rodata.px30_i2s_get_clk.isra.0.str1.1
                0x00000000002d339e       0x1d drivers/built-in.o
 .rodata.px30_peri_set_clk.str1.1
                0x00000000002d33bb       0x1f drivers/built-in.o
 .rodata.px30_pmuclk_probe.str1.1
                0x00000000002d33da       0x38 drivers/built-in.o
 .rodata.px30_pwm_get_clk.str1.1
                0x00000000002d3412       0x1d drivers/built-in.o
 .rodata.queue_wait_first_req_completed.str1.1
                0x00000000002d342f       0x9a drivers/built-in.o
                                         0xba (size before relaxing)
 .rodata.read_allocated_block.str1.1
                0x00000000002d34c9      0x240 fs/built-in.o
 .rodata.read_bootsectandvi.str1.1
                0x00000000002d3709       0x1b fs/built-in.o
 .rodata.read_from_keymaster.str1.1
                0x00000000002d3724       0x17 common/built-in.o
 .rodata.read_is_device_unlocked.str1.1
                0x00000000002d3724       0x3e lib/built-in.o
                                         0x55 (size before relaxing)
 .rodata.read_persistent_digest.str1.1
                0x00000000002d3762      0x151 lib/built-in.o
                                        0x159 (size before relaxing)
 .rodata.read_raw_data_from_secure_storage.str1.1
                0x00000000002d38b3        0x9 common/built-in.o
 .rodata.read_rockchip_image.str1.1
                0x00000000002d38bc       0x3f cmd/built-in.o
 .rodata.read_rollback_index.str1.1
                0x00000000002d38fb       0x45 lib/built-in.o
 .rodata.realloc.str1.1
                0x00000000002d3940       0x25 common/built-in.o
 .rodata.ree_fs_new_create.constprop.0.str1.1
                0x00000000002d3965      0x10d lib/built-in.o
 .rodata.regex_callback.str1.1
                0x00000000002d3a72       0x20 env/built-in.o
 .rodata.regmap_init_mem.str1.1
                0x00000000002d3a92        0x4 drivers/built-in.o
 .rodata.regulator_autoset.str1.1
                0x00000000002d3a92       0x19 drivers/power/regulator/built-in.o
 .rodata.regulator_post_bind.str1.1
                0x00000000002d3aab        0xf drivers/power/regulator/built-in.o
 .rodata.regulator_pre_probe.str1.1
                0x00000000002d3aab       0x9a drivers/power/regulator/built-in.o
                                        0x113 (size before relaxing)
 .rodata.regulator_show.str1.1
                0x00000000002d3b45       0x62 drivers/power/regulator/built-in.o
                                         0x6d (size before relaxing)
 .rodata.reset_get_by_index.str1.1
                0x00000000002d3ba7        0xd drivers/built-in.o
                                         0x14 (size before relaxing)
 .rodata.reset_get_by_name.str1.1
                0x00000000002d3bb4        0xc drivers/built-in.o
 .rodata.resource_check_header.str1.1
                0x00000000002d3bc0        0x5 arch/arm/mach-rockchip/built-in.o
 .rodata.resource_default.str1.1
                0x00000000002d3bc5        0x5 arch/arm/mach-rockchip/built-in.o
                                          0x9 (size before relaxing)
 .rodata.resource_scan.str1.1
                0x00000000002d3bc5       0xa4 arch/arm/mach-rockchip/built-in.o
                                         0xa9 (size before relaxing)
 .rodata.resource_setup_list.isra.0.str1.1
                0x00000000002d3c69        0x5 arch/arm/mach-rockchip/built-in.o
 .rodata.resource_setup_ram_list.str1.1
                0x00000000002d3c6e        0xf arch/arm/mach-rockchip/built-in.o
 .rodata.rk618_dsi_bridge_enable.str1.1
                0x00000000002d3c7d       0x29 drivers/built-in.o
 .rodata.rk618_dsi_bridge_pre_enable.str1.1
                0x00000000002d3ca6       0x48 drivers/built-in.o
 .rodata.rk618_dsi_child_post_bind.str1.1
                0x00000000002d3ca6       0x29 drivers/built-in.o
 .rodata.rk618_dsi_child_pre_probe.str1.1
                0x00000000002d3ca6       0x1e drivers/built-in.o
 .rodata.rk618_dsi_host_transfer.str1.1
                0x00000000002d3ca6       0x7e drivers/built-in.o
                                         0xb7 (size before relaxing)
 .rodata.rk618_i2c_write.str1.1
                0x00000000002d3d24       0x20 drivers/built-in.o
 .rodata.rk618_lvds_probe.str1.1
                0x00000000002d3d44        0xd drivers/built-in.o
 .rodata.rk618_probe.str1.1
                0x00000000002d3d44       0x37 drivers/built-in.o
                                         0xb1 (size before relaxing)
 .rodata.rk817_codec_power_up.constprop.0.isra.0.str1.1
                0x00000000002d3d7b       0x28 drivers/built-in.o
                                         0x29 (size before relaxing)
 .rodata.rk817_codec_probe.str1.1
                0x00000000002d3da3       0x14 drivers/built-in.o
 .rodata.rk817_startup.str1.1
                0x00000000002d3db7       0x7d drivers/built-in.o
 .rodata.rk8xx_bind.str1.1
                0x00000000002d3e34        0xb drivers/power/pmic/built-in.o
 .rodata.rk8xx_ofdata_to_platdata.str1.1
                0x00000000002d3e34       0xda drivers/power/pmic/built-in.o
 .rodata.rk8xx_plug_out_handler.str1.1
                0x00000000002d3f0e       0x14 drivers/power/pmic/built-in.o
 .rodata.rk8xx_probe.str1.1
                0x00000000002d3f22      0x140 drivers/power/pmic/built-in.o
                                        0x14b (size before relaxing)
 .rodata.rk8xx_pwrkey_probe.str1.1
                0x00000000002d4062       0x7f drivers/built-in.o
 .rodata.rk8xx_read.str1.1
                0x00000000002d40e1       0x24 drivers/power/pmic/built-in.o
 .rodata.rk8xx_shutdown.str1.1
                0x00000000002d4105       0x14 drivers/power/pmic/built-in.o
 .rodata.rk8xx_write.str1.1
                0x00000000002d4119       0x25 drivers/power/pmic/built-in.o
 .rodata.rk_auth_unlock.str1.1
                0x00000000002d413e       0x1b lib/built-in.o
 .rodata.rk_avb_ab_slot_select.str1.1
                0x00000000002d4159       0x4a lib/built-in.o
                                         0x50 (size before relaxing)
 .rodata.rk_avb_get_ab_info.str1.1
                0x00000000002d41a3       0x47 lib/built-in.o
 .rodata.rk_avb_get_at_vboot_state.str1.1
                0x00000000002d41ea      0x157 lib/built-in.o
                                        0x15c (size before relaxing)
 .rodata.rk_avb_get_bootloader_min_version.str1.1
                0x00000000002d4341       0x44 lib/built-in.o
 .rodata.rk_avb_get_part_has_slot_info.str1.1
                0x00000000002d4385       0x70 lib/built-in.o
                                         0x78 (size before relaxing)
 .rodata.rk_avb_get_perm_attr_cer.str1.1
                0x00000000002d43f5       0x22 lib/built-in.o
 .rodata.rk_avb_init_ab_metadata.str1.1
                0x00000000002d4417       0x4f lib/built-in.o
 .rodata.rk_avb_read_all_rollback_index.str1.1
                0x00000000002d4466        0x5 lib/built-in.o
                                         0x72 (size before relaxing)
 .rodata.rk_avb_read_attribute_hash.str1.1
                0x00000000002d446b       0x23 lib/built-in.o
 .rodata.rk_avb_read_flash_lock_state.str1.1
                0x00000000002d448e       0x74 lib/built-in.o
 .rodata.rk_avb_read_lock_state.str1.1
                0x00000000002d4502       0x1c lib/built-in.o
                                         0x56 (size before relaxing)
 .rodata.rk_avb_read_perm_attr_flag.str1.1
                0x00000000002d451e       0x51 lib/built-in.o
 .rodata.rk_avb_read_permanent_attributes.str1.1
                0x00000000002d456f       0x2a lib/built-in.o
 .rodata.rk_avb_read_slot_suffixes.str1.1
                0x00000000002d4599        0x3 lib/built-in.o
 .rodata.rk_avb_set_slot_active.str1.1
                0x00000000002d459c       0x18 lib/built-in.o
                                         0x34 (size before relaxing)
 .rodata.rk_avb_write_attribute_hash.str1.1
                0x00000000002d45b4       0x24 lib/built-in.o
 .rodata.rk_avb_write_flash_lock_state.str1.1
                0x00000000002d45d8       0x26 lib/built-in.o
 .rodata.rk_avb_write_lock_state.str1.1
                0x00000000002d45fe       0x20 lib/built-in.o
 .rodata.rk_avb_write_perm_attr_flag.str1.1
                0x00000000002d461e       0x2f lib/built-in.o
 .rodata.rk_avb_write_permanent_attributes.str1.1
                0x00000000002d464d       0x2b lib/built-in.o
 .rodata.rk_avb_write_vbootkey_hash.str1.1
                0x00000000002d4678       0x23 lib/built-in.o
 .rodata.rk_board_fdt_fixup.str1.1
                0x00000000002d469b      0x42f arch/arm/mach-rockchip/built-in.o
                                        0x446 (size before relaxing)
 .rodata.rk_board_init.str1.1
                0x00000000002d4aca       0x18 arch/arm/mach-rockchip/built-in.o
 .rodata.rk_board_scan_bootdev.str1.1
                0x00000000002d4ae2       0x12 arch/arm/mach-rockchip/built-in.o
 .rodata.rk_bootloader_rollback_index_read.str1.1
                0x00000000002d4af4       0x18 lib/built-in.o
 .rodata.rk_crypto_do_enable_clk.isra.0.str1.1
                0x00000000002d4b0c       0x4b drivers/built-in.o
 .rodata.rk_exptmod.str1.1
                0x00000000002d4b57       0x1d drivers/built-in.o
 .rodata.rk_ftl_init.str1.1
                0x00000000002d4b74        0xe drivers/built-in.o
 .rodata.rk_pwm_set_enable.str1.1
                0x00000000002d4b82       0x14 drivers/built-in.o
                                          0x7 (size before relaxing)
 .rodata.rk_send_keybox_to_ta.str1.1
                0x00000000002d4b82       0x6f common/built-in.o
                                         0x86 (size before relaxing)
 .rodata.rkclk_set_pll.str1.1
                0x00000000002d4bf1       0x9f drivers/built-in.o
 .rodata.rknand_blk_bind.str1.1
                0x00000000002d4c90        0xb drivers/built-in.o
                                          0xf (size before relaxing)
 .rodata.rknand_blk_probe.str1.1
                0x00000000002d4c9b        0xd drivers/built-in.o
                                         0x14 (size before relaxing)
 .rodata.rknand_print_hex.str1.1
                0x00000000002d4ca8        0xe drivers/built-in.o
                                         0x17 (size before relaxing)
 .rodata.rkparm_init_param.constprop.0.str1.1
                0x00000000002d4cb6       0x35 disk/built-in.o
                                         0x48 (size before relaxing)
 .rodata.rkss_decref_multi_usedflags_sections.str1.1
                0x00000000002d4ceb       0xa6 lib/built-in.o
                                         0xe6 (size before relaxing)
 .rodata.rkss_get_fileinfo_by_index.str1.1
                0x00000000002d4d91       0x30 lib/built-in.o
 .rodata.rkss_get_fileinfo_by_name.str1.1
                0x00000000002d4dc1       0x58 lib/built-in.o
                                         0x83 (size before relaxing)
 .rodata.rkss_read_multi_sections.str1.1
                0x00000000002d4e19       0x56 lib/built-in.o
 .rodata.rkss_read_patition_tables.str1.1
                0x00000000002d4e6f       0x1e lib/built-in.o
                                         0x34 (size before relaxing)
 .rodata.rkss_write_back_ptable.str1.1
                0x00000000002d4e8d       0x18 lib/built-in.o
 .rodata.rkss_write_multi_sections.str1.1
                0x00000000002d4ea5       0x92 lib/built-in.o
 .rodata.rkusb_fixup_cbwcb.isra.0.str1.1
                0x00000000002d4f37       0x35 drivers/usb/gadget/built-in.o
 .rodata.rockchip_calc_post_csc.str1.1
                0x00000000002d4f6c       0x15 drivers/built-in.o
 .rodata.rockchip_chg_get_type.str1.1
                0x00000000002d4f81       0x2b drivers/built-in.o
                                         0x33 (size before relaxing)
 .rodata.rockchip_connector_path_detect.str1.1
                0x00000000002d4fac       0x11 drivers/built-in.o
 .rodata.rockchip_crypto_ofdata_to_platdata.str1.1
                0x00000000002d4fbd       0x63 drivers/built-in.o
                                         0x7a (size before relaxing)
 .rodata.rockchip_crypto_probe.str1.1
                0x00000000002d5020       0x24 drivers/built-in.o
                                         0x39 (size before relaxing)
 .rodata.rockchip_crypto_sha_final.str1.1
                0x00000000002d5044       0x2e drivers/built-in.o
 .rodata.rockchip_display_fixup.str1.1
                0x00000000002d5072      0x311 drivers/built-in.o
 .rodata.rockchip_display_probe.str1.1
                0x00000000002d5383      0x343 drivers/built-in.o
                                        0x357 (size before relaxing)
 .rodata.rockchip_dwmmc_execute_tuning.str1.1
                0x00000000002d56c6       0x14 drivers/built-in.o
 .rodata.rockchip_dwmmc_ofdata_to_platdata.str1.1
                0x00000000002d56da       0x36 drivers/built-in.o
                                         0x4e (size before relaxing)
 .rodata.rockchip_dwmmc_probe.str1.1
                0x00000000002d5710       0x2f drivers/built-in.o
 .rodata.rockchip_get_baseparameter.str1.1
                0x00000000002d573f       0x72 drivers/built-in.o
                                         0x8d (size before relaxing)
 .rodata.rockchip_get_boot_mode.str1.1
                0x00000000002d57b1      0x1a2 arch/arm/mach-rockchip/built-in.o
                                        0x1b4 (size before relaxing)
 .rodata.rockchip_get_bootdev.str1.1
                0x00000000002d5953      0x10d arch/arm/mach-rockchip/built-in.o
                                        0x12a (size before relaxing)
 .rodata.rockchip_get_disp_info.str1.1
                0x00000000002d5a60       0xec drivers/built-in.o
 .rodata.rockchip_gpio_get_function.str1.1
                0x00000000002d5b4c       0x19 drivers/gpio/built-in.o
 .rodata.rockchip_gpio_probe.str1.1
                0x00000000002d5b65       0x7d drivers/gpio/built-in.o
 .rodata.rockchip_i2s_probe.str1.1
                0x00000000002d5be2       0x1f drivers/built-in.o
 .rodata.rockchip_iodomain_probe.str1.1
                0x00000000002d5c01       0x73 drivers/power/io-domain/built-in.o
 .rodata.rockchip_iodomain_write.str1.1
                0x00000000002d5c74       0x17 drivers/power/io-domain/built-in.o
 .rodata.rockchip_lvds_connector_enable.str1.1
                0x00000000002d5c8b       0x1c drivers/built-in.o
 .rodata.rockchip_lvds_probe.str1.1
                0x00000000002d5ca7        0xd drivers/built-in.o
                                         0x25 (size before relaxing)
 .rodata.rockchip_mcu_panel_prepare.str1.1
                0x00000000002d5cb4       0x28 drivers/built-in.o
 .rodata.rockchip_mcu_panel_unprepare.str1.1
                0x00000000002d5cdc       0x28 drivers/built-in.o
 .rodata.rockchip_of_find_panel_or_bridge.isra.0.str1.1
                0x00000000002d5d04        0x6 drivers/built-in.o
 .rodata.rockchip_of_find_phy.str1.1
                0x00000000002d5d04        0x5 drivers/built-in.o
 .rodata.rockchip_of_graph_get_endpoint_by_regs.str1.1
                0x00000000002d5d04        0x4 drivers/built-in.o
 .rodata.rockchip_of_graph_get_port_parent.str1.1
                0x00000000002d5d04        0x6 drivers/built-in.o
 .rodata.rockchip_of_graph_get_remote_node.constprop.0.str1.1
                0x00000000002d5d0a       0x10 drivers/built-in.o
 .rodata.rockchip_ofnode_get_display_mode.str1.1
                0x00000000002d5d1a       0x9c drivers/built-in.o
                                         0xac (size before relaxing)
 .rodata.rockchip_panel_ofdata_to_platdata.str1.1
                0x00000000002d5db6       0xf0 drivers/built-in.o
 .rodata.rockchip_panel_probe.str1.1
                0x00000000002d5db6      0x11f drivers/built-in.o
                                        0x153 (size before relaxing)
 .rodata.rockchip_panel_send_dsi_cmds.part.0.str1.1
                0x00000000002d5ed5       0x3c drivers/built-in.o
 .rodata.rockchip_pinctrl_probe.str1.1
                0x00000000002d5f11       0x61 drivers/built-in.o
                                         0xb8 (size before relaxing)
 .rodata.rockchip_pinctrl_set_state.str1.1
                0x00000000002d5f72       0x31 drivers/built-in.o
                                         0x3f (size before relaxing)
 .rodata.rockchip_ram_read_dtb_file.str1.1
                0x00000000002d5fa3       0x37 arch/arm/mach-rockchip/built-in.o
 .rodata.rockchip_read_dtb_file.str1.1
                0x00000000002d5fda       0x65 arch/arm/mach-rockchip/built-in.o
                                         0x70 (size before relaxing)
 .rodata.rockchip_read_resource_dtb.str1.1
                0x00000000002d603f        0x9 arch/arm/mach-rockchip/built-in.o
 .rodata.rockchip_read_resource_file.str1.1
                0x00000000002d6048       0x16 arch/arm/mach-rockchip/built-in.o
 .rodata.rockchip_reset_probe.str1.1
                0x00000000002d605e        0x4 drivers/built-in.o
 .rodata.rockchip_rgb_connector_prepare.str1.1
                0x00000000002d605e       0x24 drivers/built-in.o
 .rodata.rockchip_rgb_connector_unprepare.str1.1
                0x00000000002d605e        0x6 drivers/built-in.o
 .rodata.rockchip_rgb_probe.str1.1
                0x00000000002d6064      0x1d5 drivers/built-in.o
                                        0x216 (size before relaxing)
 .rodata.rockchip_saradc_channel_data.str1.1
                0x00000000002d6239       0x21 drivers/built-in.o
 .rodata.rockchip_saradc_ofdata_to_platdata.str1.1
                0x00000000002d625a       0x1d drivers/built-in.o
 .rodata.rockchip_saradc_start_channel.str1.1
                0x00000000002d6277       0x1e drivers/built-in.o
 .rodata.rockchip_set_serialno.isra.0.str1.1
                0x00000000002d6295        0x8 arch/arm/mach-rockchip/built-in.o
                                          0xd (size before relaxing)
 .rodata.rockchip_show_logo.str1.1
                0x00000000002d629d       0x1e drivers/built-in.o
 .rodata.rockchip_thermal_probe.str1.1
                0x00000000002d62bb       0xaf drivers/built-in.o
                                         0xb5 (size before relaxing)
 .rodata.rockchip_usb2phy_bind.str1.1
                0x00000000002d636a       0x44 drivers/built-in.o
 .rodata.rockchip_usb2phy_exit.str1.1
                0x00000000002d63ae       0x17 drivers/built-in.o
 .rodata.rockchip_usb2phy_of_xlate.str1.1
                0x00000000002d63c5       0x40 drivers/built-in.o
 .rodata.rockchip_usb2phy_power_off.str1.1
                0x00000000002d6405       0x1f drivers/built-in.o
 .rodata.rockchip_usb2phy_probe.str1.1
                0x00000000002d6424       0xff drivers/built-in.o
                                        0x113 (size before relaxing)
 .rodata.rockchip_vop2_active_regs_dump.str1.1
                0x00000000002d6523       0x23 drivers/built-in.o
 .rodata.rockchip_vop2_apply_soft_te.str1.1
                0x00000000002d6546       0x90 drivers/built-in.o
 .rodata.rockchip_vop2_check.str1.1
                0x00000000002d65d6       0x23 drivers/built-in.o
 .rodata.rockchip_vop2_fixup_dts.str1.1
                0x00000000002d65f9       0x90 drivers/built-in.o
                                         0xc9 (size before relaxing)
 .rodata.rockchip_vop2_init.str1.1
                0x00000000002d6689      0x29b drivers/built-in.o
                                        0x30a (size before relaxing)
 .rodata.rockchip_vop2_mode_valid.str1.1
                0x00000000002d6924       0x29 drivers/built-in.o
 .rodata.rockchip_vop2_plane_check.str1.1
                0x00000000002d694d       0x48 drivers/built-in.o
 .rodata.rockchip_vop2_preinit.str1.1
                0x00000000002d6995       0xdc drivers/built-in.o
                                        0x104 (size before relaxing)
 .rodata.rockchip_vop2_set_plane.str1.1
                0x00000000002d6a71       0x90 drivers/built-in.o
                                         0xe8 (size before relaxing)
 .rodata.rockchip_vop_bind.str1.1
                0x00000000002d6b01       0x2f drivers/built-in.o
                                         0x35 (size before relaxing)
 .rodata.rockchip_vop_dump.str1.1
                0x00000000002d6b30       0x1e drivers/built-in.o
                                          0x6 (size before relaxing)
 .rodata.rockchip_vop_init.str1.1
                0x00000000002d6b30      0x10c drivers/built-in.o
                                        0x11a (size before relaxing)
 .rodata.rockchip_vop_mode_valid.str1.1
                0x00000000002d6c3c       0x23 drivers/built-in.o
 .rodata.rockchip_vop_plane_check.str1.1
                0x00000000002d6c5f       0x25 drivers/built-in.o
 .rodata.rockchip_vop_set_plane.str1.1
                0x00000000002d6c84       0x4e drivers/built-in.o
 .rodata.run_list_real.str1.1
                0x00000000002d6cd2       0x45 common/built-in.o
                                         0x4b (size before relaxing)
 .rodata.rv1126_iodomain_write.str1.1
                0x00000000002d6d17       0x17 drivers/power/io-domain/built-in.o
 .rodata.rx_handler_command.str1.1
                0x00000000002d6d2e       0x3e drivers/usb/gadget/built-in.o
                                         0x4e (size before relaxing)
 .rodata.rx_handler_dl_image.str1.1
                0x00000000002d6d6c       0x33 drivers/usb/gadget/built-in.o
                                         0x38 (size before relaxing)
 .rodata.samsung_read_retrial.str1.1
                0x00000000002d6d9f       0x6d drivers/built-in.o
 .rodata.sblk_mlc_dump_prog.str1.1
                0x00000000002d6e0c       0x32 drivers/built-in.o
 .rodata.sblk_prog_page.str1.1
                0x00000000002d6e3e       0x25 drivers/built-in.o
 .rodata.set_armclk_rate.str1.1
                0x00000000002d6e63       0x31 arch/arm/mach-rockchip/built-in.o
 .rodata.set_default_env.str1.1
                0x00000000002d6e94       0x4a env/built-in.o
                                         0x71 (size before relaxing)
 .rodata.set_gpt_info.constprop.0.str1.1
                0x00000000002d6ede       0x8e cmd/built-in.o
                                         0xb0 (size before relaxing)
 .rodata.set_local_var.str1.1
                0x00000000002d6f6c       0x59 common/built-in.o
 .rodata.set_protective_mbr.str1.1
                0x00000000002d6fc5       0x55 disk/built-in.o
 .rodata.set_working_fdt_addr.str1.1
                0x00000000002d701a        0x8 cmd/built-in.o
 .rodata.setup_boot_mode.str1.1
                0x00000000002d7022       0xbd arch/arm/mach-rockchip/built-in.o
                                         0xc6 (size before relaxing)
 .rodata.setup_download_mode.str1.1
                0x00000000002d70df       0x55 arch/arm/mach-rockchip/built-in.o
                                         0x81 (size before relaxing)
 .rodata.setup_pgtables.str1.1
                0x00000000002d7134       0x2d arch/arm/cpu/armv8/built-in.o
 .rodata.setup_reloc.str1.1
                0x00000000002d7161       0x4e common/built-in.o
                                         0x50 (size before relaxing)
 .rodata.show_board_info.str1.1
                0x00000000002d71af       0x1f common/built-in.o
 .rodata.show_devices.str1.1
                0x00000000002d71ce       0x41 drivers/built-in.o
                                         0x47 (size before relaxing)
 .rodata.show_dram_config.str1.1
                0x00000000002d720f        0x1 common/built-in.o
 .rodata.show_regs.str1.1
                0x00000000002d720f      0x3f2 arch/arm/lib/built-in.o
                                        0x3f4 (size before relaxing)
 .rodata.simple_bus_post_bind.str1.1
                0x00000000002d7601        0x7 drivers/built-in.o
 .rodata.simple_panel_ofdata_to_platdata.str1.1
                0x00000000002d7601       0x1a drivers/built-in.o
                                         0x24 (size before relaxing)
 .rodata.sleep_thread.str1.1
                0x00000000002d761b        0xc drivers/usb/gadget/built-in.o
 .rodata.soc_clk_dump.str1.1
                0x00000000002d7627       0x7e drivers/built-in.o
                                         0x84 (size before relaxing)
 .rodata.sohci_submit_job.str1.1
                0x00000000002d76a5       0xa6 drivers/usb/host/built-in.o
 .rodata.source.str1.1
                0x00000000002d774b       0xf7 cmd/built-in.o
                                        0x114 (size before relaxing)
 .rodata.spi_post_probe.str1.1
                0x00000000002d7842       0x12 drivers/spi/built-in.o
 .rodata.spi_slave_ofdata_to_platdata.str1.1
                0x00000000002d7854       0xa0 drivers/spi/built-in.o
                                         0xa4 (size before relaxing)
 .rodata.split_block.str1.1
                0x00000000002d78f4       0x74 arch/arm/cpu/armv8/built-in.o
 .rodata.stdio_add_devices.str1.1
                0x00000000002d7968        0x7 common/built-in.o
 .rodata.stdio_get_by_name.str1.1
                0x00000000002d7968        0xb common/built-in.o
 .rodata.store_char_in_data.str1.1
                0x00000000002d7973       0x1f lib/built-in.o
 .rodata.str1.1
                0x00000000002d7992      0x201 arch/arm/mach-rockchip/built-in.o
                                        0x223 (size before relaxing)
 .rodata.str1.1
                0x00000000002d7b93     0x3b4e cmd/built-in.o
                                       0x3f06 (size before relaxing)
 .rodata.str1.1
                0x00000000002db6e1      0x73a common/built-in.o
                                        0x80f (size before relaxing)
 .rodata.str1.1
                0x00000000002dbe1b       0x22 disk/built-in.o
                                         0x25 (size before relaxing)
 .rodata.str1.1
                0x00000000002dbe3d     0x258a drivers/built-in.o
                                       0x2750 (size before relaxing)
 .rodata.str1.1
                0x00000000002de3c7       0x1b drivers/gpio/built-in.o
                                         0x47 (size before relaxing)
 .rodata.str1.1
                0x00000000002de3e2       0xa5 drivers/i2c/built-in.o
                                         0xa9 (size before relaxing)
 .rodata.str1.1
                0x00000000002de487        0xa drivers/mtd/spi/built-in.o
 .rodata.str1.1
                0x00000000002de491       0x98 drivers/net/built-in.o
 .rodata.str1.1
                0x00000000002de529       0x66 drivers/net/phy/built-in.o
                                         0x7f (size before relaxing)
 .rodata.str1.1
                0x00000000002de58f       0x9b drivers/power/built-in.o
 .rodata.str1.1
                0x00000000002de62a       0x51 drivers/power/dvfs/built-in.o
                                         0x56 (size before relaxing)
 .rodata.str1.1
                0x00000000002de67b        0xb drivers/power/fuel_gauge/built-in.o
 .rodata.str1.1
                0x00000000002de686      0x31b drivers/power/io-domain/built-in.o
                                        0x333 (size before relaxing)
 .rodata.str1.1
                0x00000000002de9a1       0xa4 drivers/power/pmic/built-in.o
                                         0xd6 (size before relaxing)
 .rodata.str1.1
                0x00000000002dea45       0x3c drivers/power/regulator/built-in.o
                                         0x68 (size before relaxing)
 .rodata.str1.1
                0x00000000002dea81       0xb0 drivers/serial/built-in.o
                                         0xb7 (size before relaxing)
 .rodata.str1.1
                0x00000000002deb31       0x1c drivers/spi/built-in.o
                                         0x20 (size before relaxing)
 .rodata.str1.1
                0x00000000002deb4d      0x1b5 drivers/usb/gadget/built-in.o
                                        0x1f6 (size before relaxing)
 .rodata.str1.1
                0x00000000002ded02        0x4 drivers/usb/gadget/udc/built-in.o
 .rodata.str1.1
                0x00000000002ded02      0x5c2 drivers/usb/host/built-in.o
                                        0x5c6 (size before relaxing)
 .rodata.str1.1
                0x00000000002df2c4        0x8 env/built-in.o
                                         0x18 (size before relaxing)
 .rodata.str1.1
                0x00000000002df2cc       0x11 fs/built-in.o
                                         0x15 (size before relaxing)
 .rodata.str1.1
                0x00000000002df2dd     0x1134 lib/built-in.o
                                       0x118a (size before relaxing)
 .rodata.str1.1
                0x00000000002e0411        0x6 net/built-in.o
                                         0x47 (size before relaxing)
 .rodata.str1.1
                0x00000000002e0417       0x82 test/built-in.o
                                        0x125 (size before relaxing)
 .rodata.str1.1
                0x00000000002e0499      0x102 test/dm/built-in.o
                                        0x110 (size before relaxing)
 .rodata.string.str1.1
                0x00000000002e059b        0x7 lib/built-in.o
 .rodata.sub_cmd_help
                0x00000000002e059b      0x3b8 test/built-in.o
 .rodata.submit_common_msg.str1.1
                0x00000000002e0953       0x72 drivers/usb/host/built-in.o
 .rodata.switch_get_value.str1.1
                0x00000000002e09c5       0x18 drivers/power/regulator/built-in.o
 .rodata.syntax_err.str1.1
                0x00000000002e09dd        0xe common/built-in.o
 .rodata.sys_shutdown.isra.0.str1.1
                0x00000000002e09eb       0x30 drivers/power/built-in.o
 .rodata.syscon_reboot_request_by_mode.str1.1
                0x00000000002e0a1b       0x27 drivers/built-in.o
 .rodata.sysmem_alloc_align_base.str1.1
                0x00000000002e0a42      0x2a8 lib/built-in.o
 .rodata.sysmem_alloc_temporary_mem.str1.1
                0x00000000002e0cea       0x37 lib/built-in.o
 .rodata.sysmem_dump.str1.1
                0x00000000002e0d21      0x2b5 lib/built-in.o
                                        0x2b8 (size before relaxing)
 .rodata.sysmem_free.str1.1
                0x00000000002e0fd6       0x6b lib/built-in.o
 .rodata.sysmem_init.str1.1
                0x00000000002e1041      0x15a lib/built-in.o
 .rodata.sysmem_overflow_check.str1.1
                0x00000000002e119b      0x10b lib/built-in.o
 .rodata.system_suspend_enter.isra.0.str1.1
                0x00000000002e12a6       0x34 drivers/power/built-in.o
 .rodata.tab_seq
                0x00000000002e12da        0x9 common/built-in.o
 .rodata.td_fill.constprop.0.str1.1
                0x00000000002e12e3       0x17 drivers/usb/host/built-in.o
 .rodata.tee_supp_rk_fs_init_v1.str1.1
                0x00000000002e12fa      0x10a lib/built-in.o
 .rodata.tee_supp_rk_fs_init_v2.str1.1
                0x00000000002e1404       0xbb lib/built-in.o
                                        0x111 (size before relaxing)
 .rodata.tee_supp_rk_fs_process_v1.str1.1
                0x00000000002e14bf      0x275 lib/built-in.o
 .rodata.tee_supp_rk_fs_process_v2.str1.1
                0x00000000002e1734      0x1a6 lib/built-in.o
                                        0x335 (size before relaxing)
 .rodata.temp2string.constprop.0.str1.1
                0x00000000002e18da        0x8 drivers/power/dvfs/built-in.o
                                          0xb (size before relaxing)
 .rodata.test_block_type.str1.1
                0x00000000002e18e2        0xa disk/built-in.o
 .rodata.test_secure_storage_default.str1.1
                0x00000000002e18ec       0xa5 cmd/built-in.o
                                         0xbc (size before relaxing)
 .rodata.test_secure_storage_security_partition.str1.1
                0x00000000002e1991       0x30 cmd/built-in.o
 .rodata.tftp_handler.str1.1
                0x00000000002e19c1       0x72 net/built-in.o
                                         0x80 (size before relaxing)
 .rodata.tftp_send.str1.1
                0x00000000002e1a33       0x27 net/built-in.o
                                         0x42 (size before relaxing)
 .rodata.tftp_start.str1.1
                0x00000000002e1a5a      0x156 net/built-in.o
                                        0x17d (size before relaxing)
 .rodata.tftp_timeout_handler.str1.1
                0x00000000002e1bb0       0x2a net/built-in.o
                                         0x2d (size before relaxing)
 .rodata.timer_irq_handler.str1.1
                0x00000000002e1bda       0x33 test/built-in.o
 .rodata.toshiba_3d_read_retrial.str1.1
                0x00000000002e1c0d       0x6d drivers/built-in.o
 .rodata.trusty_base_read_security_data.str1.1
                0x00000000002e1c7a       0x17 lib/built-in.o
 .rodata.trusty_read_flash_lock_state.str1.1
                0x00000000002e1c7a       0x11 lib/built-in.o
 .rodata.trusty_read_lock_state.str1.1
                0x00000000002e1c8b        0x7 lib/built-in.o
                                          0xb (size before relaxing)
 .rodata.trusty_read_permanent_attributes.str1.1
                0x00000000002e1c8b        0xb lib/built-in.o
 .rodata.trusty_read_permanent_attributes_cer.str1.1
                0x00000000002e1c96        0x7 lib/built-in.o
 .rodata.trusty_read_permanent_attributes_flag.str1.1
                0x00000000002e1c9d       0x10 lib/built-in.o
 .rodata.tsadc_code_to_temp.str1.1
                0x00000000002e1cad       0x2a drivers/built-in.o
 .rodata.tsadc_temp_to_code_v2.isra.0.str1.1
                0x00000000002e1cd7       0x53 drivers/built-in.o
 .rodata.tuning_blk_pattern_4bit
                0x00000000002e1d2a       0x40 drivers/built-in.o
 .rodata.tuning_blk_pattern_8bit
                0x00000000002e1d6a       0x80 drivers/built-in.o
 .rodata.tx_handler_ul.str1.1
                0x00000000002e1dea       0x21 drivers/usb/gadget/built-in.o
 .rodata.u_boot_hush_start.str1.1
                0x00000000002e1e0b       0x12 common/built-in.o
 .rodata.uclass_resolve_seq.str1.1
                0x00000000002e1e1d       0x27 drivers/built-in.o
 .rodata.unflatten_dt_node.str1.1
                0x00000000002e1e44       0x13 lib/built-in.o
                                         0x3b (size before relaxing)
 .rodata.us_direction
                0x00000000002e1e57       0x20 common/built-in.o
 .rodata.usb_child_post_bind.str1.1
                0x00000000002e1e77       0x25 drivers/usb/host/built-in.o
 .rodata.usb_composite_register.str1.1
                0x00000000002e1e9c        0xa drivers/usb/gadget/built-in.o
 .rodata.usb_display_class_sub.str1.1
                0x00000000002e1ea6       0xb6 cmd/built-in.o
                                         0xbc (size before relaxing)
 .rodata.usb_display_config.str1.1
                0x00000000002e1f5c      0x10d cmd/built-in.o
                                        0x118 (size before relaxing)
 .rodata.usb_display_desc.str1.1
                0x00000000002e2069       0xac cmd/built-in.o
                                         0xae (size before relaxing)
 .rodata.usb_display_string.str1.1
                0x00000000002e2115        0xd cmd/built-in.o
 .rodata.usb_find_usb2_hub_address_port.str1.1
                0x00000000002e2122       0x36 common/built-in.o
 .rodata.usb_get_class_desc.str1.1
                0x00000000002e2158       0x64 cmd/built-in.o
                                         0x65 (size before relaxing)
 .rodata.usb_get_configuration_len.str1.1
                0x00000000002e21bc       0x58 common/built-in.o
 .rodata.usb_hub_configure.str1.1
                0x00000000002e2214       0x5f common/built-in.o
 .rodata.usb_hub_port_connect_change.str1.1
                0x00000000002e2273       0x18 common/built-in.o
 .rodata.usb_init.str1.1
                0x00000000002e228b       0x54 drivers/usb/host/built-in.o
 .rodata.usb_mass_storage_probe.str1.1
                0x00000000002e22df       0x16 common/built-in.o
 .rodata.usb_scan_bus.constprop.0.str1.1
                0x00000000002e22f5       0x4d drivers/usb/host/built-in.o
                                         0x5f (size before relaxing)
 .rodata.usb_scan_device.str1.1
                0x00000000002e2342       0x2a drivers/usb/host/built-in.o
 .rodata.usb_select_config.str1.1
                0x00000000002e236c      0x284 common/built-in.o
 .rodata.usb_set_interface.str1.1
                0x00000000002e25f0       0x1f common/built-in.o
 .rodata.usb_setup_descriptor.str1.1
                0x00000000002e260f       0x1d common/built-in.o
 .rodata.usb_setup_device.str1.1
                0x00000000002e262c       0x68 common/built-in.o
 .rodata.usb_show_tree_graph.str1.1
                0x00000000002e2694       0x2f cmd/built-in.o
                                         0x3a (size before relaxing)
 .rodata.usb_stor_CBI_get_status.str1.1
                0x00000000002e26c3       0x1f common/built-in.o
 .rodata.usb_stor_CB_transport.str1.1
                0x00000000002e26e2       0x6e common/built-in.o
 .rodata.usb_stor_get_info.str1.1
                0x00000000002e2750       0x5d common/built-in.o
 .rodata.usb_stor_info.str1.1
                0x00000000002e27ad       0x32 common/built-in.o
                                         0x40 (size before relaxing)
 .rodata.usb_stor_scan.str1.1
                0x00000000002e27df       0x48 common/built-in.o
 .rodata.usb_storage_probe.str1.1
                0x00000000002e2827       0x5c common/built-in.o
 .rodata.uuid_bin_to_str.str1.1
                0x00000000002e2883        0x5 lib/built-in.o
 .rodata.validate_gpt_entries.str1.1
                0x00000000002e2883       0x40 disk/built-in.o
 .rodata.validate_gpt_header.str1.1
                0x00000000002e28c3      0x103 disk/built-in.o
 .rodata.var_complete.str1.1
                0x00000000002e29c6        0x1 common/built-in.o
 .rodata.vendor_handle_hdcp.str1.1
                0x00000000002e29c6       0x4d arch/arm/mach-rockchip/built-in.o
 .rodata.vendor_id.7
                0x00000000002e2a13        0x9 drivers/usb/gadget/built-in.o
 .rodata.vendor_ops.str1.1
                0x00000000002e2a1c       0x44 arch/arm/mach-rockchip/built-in.o
 .rodata.vendor_storage_fixup.str1.1
                0x00000000002e2a60       0x1b arch/arm/mach-rockchip/built-in.o
 .rodata.vendor_storage_init.str1.1
                0x00000000002e2a7b       0x4c arch/arm/mach-rockchip/built-in.o
 .rodata.vendor_storage_test.str1.1
                0x00000000002e2ac7      0x42b arch/arm/mach-rockchip/built-in.o
 .rodata.verify_permanent_attributes.str1.1
                0x00000000002e2ef2       0x78 lib/built-in.o
                                         0x84 (size before relaxing)
 .rodata.version_string
                0x00000000002e2f6a       0x3e cmd/built-in.o
                0x00000000002e2f6a                version_string
 .rodata.vidconsole_post_probe.str1.1
                0x00000000002e2fa8       0x18 drivers/built-in.o
 .rodata.video_bridge_pre_probe.str1.1
                0x00000000002e2fa8       0x1a drivers/built-in.o
                                         0x26 (size before relaxing)
 .rodata.video_fontdata
                0x00000000002e2fc2     0x1000 drivers/built-in.o
 .rodata.video_post_bind.str1.1
                0x00000000002e3fc2       0x66 drivers/built-in.o
 .rodata.video_post_probe.str1.1
                0x00000000002e4028       0x10 drivers/built-in.o
                                         0x1d (size before relaxing)
 .rodata.virq_add_chip.str1.1
                0x00000000002e4038       0x2b drivers/built-in.o
 .rodata.virq_chip_generic_handler.str1.1
                0x00000000002e4063       0x2f drivers/built-in.o
 .rodata.virqs_show.str1.1
                0x00000000002e4092       0x33 drivers/built-in.o
 .rodata.vop2_convert_csc_mode.str1.1
                0x00000000002e40c5       0x83 drivers/built-in.o
 .rodata.vop2_dsc_enable.str1.1
                0x00000000002e4148       0xea drivers/built-in.o
 .rodata.vop2_power_domain_on.str1.1
                0x00000000002e4232       0x5a drivers/built-in.o
 .rodata.vop2_set_cluster_win.str1.1
                0x00000000002e428c       0x31 drivers/built-in.o
 .rodata.vop2_set_smart_win.str1.1
                0x00000000002e42bd       0x3e drivers/built-in.o
 .rodata.vop2_setup_scale.str1.1
                0x00000000002e42fb       0x27 drivers/built-in.o
 .rodata.vop3_post_acm_config.str1.1
                0x00000000002e4322       0x11 drivers/built-in.o
 .rodata.vop3_post_csc_config.str1.1
                0x00000000002e4333       0x11 drivers/built-in.o
 .rodata.vop3_scale_factor.part.0.str1.1
                0x00000000002e4344       0x51 drivers/built-in.o
 .rodata.write_attestation_key_to_secure_storage.str1.1
                0x00000000002e4395       0x7a common/built-in.o
 .rodata.write_cert.isra.0.str1.1
                0x00000000002e440f       0x1a common/built-in.o
 .rodata.write_cert_chain_length.isra.0.str1.1
                0x00000000002e4429        0xd common/built-in.o
 .rodata.write_is_device_unlocked.str1.1
                0x00000000002e4436       0x1e lib/built-in.o
 .rodata.write_key.str1.1
                0x00000000002e4454       0x2b common/built-in.o
                                         0x2c (size before relaxing)
 .rodata.write_keybox_to_secure_storage.str1.1
                0x00000000002e447f      0x1a3 common/built-in.o
                                        0x1b6 (size before relaxing)
 .rodata.write_mbr_and_gpt_partitions.str1.1
                0x00000000002e4622       0x78 disk/built-in.o
                                         0x7c (size before relaxing)
 .rodata.write_mbr_partition.str1.1
                0x00000000002e469a       0x2d disk/built-in.o
 .rodata.write_sparse_image.str1.1
                0x00000000002e46c7      0x1fb common/built-in.o
                                        0x1fc (size before relaxing)
 .rodata.write_to_partition.str1.1
                0x00000000002e48c2        0xf lib/built-in.o
 .rodata.write_to_security_storage.str1.1
                0x00000000002e48d1       0x8f common/built-in.o
 .rodata.wtemp_dvfs_apply.str1.1
                0x00000000002e4960       0x32 drivers/power/dvfs/built-in.o
 .rodata.wtemp_dvfs_high_temp_adjust.constprop.0.str1.1
                0x00000000002e4992       0x86 drivers/power/dvfs/built-in.o
 .rodata.wtemp_dvfs_low_temp_adjust.str1.1
                0x00000000002e4a18       0x27 drivers/power/dvfs/built-in.o
 .rodata.wtemp_dvfs_ofdata_to_platdata.str1.1
                0x00000000002e4a3f      0x1be drivers/power/dvfs/built-in.o
                                        0x200 (size before relaxing)
 .rodata.wtemp_dvfs_probe.str1.1
                0x00000000002e4bfd       0x29 drivers/power/dvfs/built-in.o
 .rodata.wtemp_dvfs_repeat_apply.str1.1
                0x00000000002e4c26       0x4c drivers/power/dvfs/built-in.o
 .rodata.xmalloc.str1.1
                0x00000000002e4c72       0x1e common/built-in.o
 .rodata.ymtc_3d_read_retrial.str1.1
                0x00000000002e4c90       0x26 drivers/built-in.o
 .rodata.ymtc_flash_tlc_page_prog.str1.1
                0x00000000002e4cb6       0x35 drivers/built-in.o
 .rodata.zftl_discard.str1.1
                0x00000000002e4ceb       0x1e drivers/built-in.o
 .rodata.zftl_do_gc.str1.1
                0x00000000002e4d09       0x60 drivers/built-in.o
 .rodata.zftl_gc_get_free_sblk.str1.1
                0x00000000002e4d69       0x76 drivers/built-in.o
 .rodata.zftl_get_free_sblk.str1.1
                0x00000000002e4ddf       0x28 drivers/built-in.o
 .rodata.zftl_init.str1.1
                0x00000000002e4e07      0x144 drivers/built-in.o
 .rodata.zftl_read.str1.1
                0x00000000002e4f4b       0x78 drivers/built-in.o
 .rodata.zftl_sblk_list_init.str1.1
                0x00000000002e4fc3       0x1b drivers/built-in.o
 .rodata.zftl_write.str1.1
                0x00000000002e4fde       0x16 drivers/built-in.o
 .rodata.zunzip.str1.1
                0x00000000002e4ff4       0x47 lib/built-in.o

.hash           0x00000000002e5040       0x18
 .hash          0x00000000002e5040       0x18 arch/arm/cpu/armv8/start.o
                0x00000000002e5058                . = ALIGN (0x8)

.data           0x00000000002e5058     0xabd8
 *(.data*)
 .data.rel.ro   0x00000000002e5058        0x0 arch/arm/cpu/armv8/start.o
 .data.bcb_offset.1
                0x00000000002e5058        0x4 arch/arm/mach-rockchip/built-in.o
 .data.boot_mode.0
                0x00000000002e505c        0xc arch/arm/mach-rockchip/built-in.o
 .data.otg_data
                0x00000000002e5068       0x88 arch/arm/mach-rockchip/built-in.o
 .data.mem_attr
                0x00000000002e50f0        0x8 arch/arm/mach-rockchip/built-in.o
                0x00000000002e50f0                mem_attr
 .data.entry_head
                0x00000000002e50f8       0x10 arch/arm/mach-rockchip/built-in.o
                0x00000000002e50f8                entry_head
 .data.mem_map  0x00000000002e5108        0x8 arch/arm/mach-rockchip/built-in.o
                0x00000000002e5108                mem_map
 .data.px30_mem_map
                0x00000000002e5110       0x60 arch/arm/mach-rockchip/built-in.o
 .data.bootm_help_text
                0x00000000002e5170      0x4cf cmd/built-in.o
 *fill*         0x00000000002e563f        0x1 
 .data.cmd_bootm_sub
                0x00000000002e5640      0x1b0 cmd/built-in.o
 .data.blk_curr_dev
                0x00000000002e57f0        0x4 cmd/built-in.o
 .data.source_help_text
                0x00000000002e57f4       0xac cmd/built-in.o
 .data.cmd_avb  0x00000000002e58a0      0x1e0 cmd/built-in.o
 .data.booti_help_text
                0x00000000002e5a80      0x1e1 cmd/built-in.o
 *fill*         0x00000000002e5c61        0x7 
 .data.cmd_dtimg_sub
                0x00000000002e5c68       0x90 cmd/built-in.o
 .data.fdt_help_text
                0x00000000002e5cf8      0x648 cmd/built-in.o
 .data.root.1   0x00000000002e6340        0x2 cmd/built-in.o
 .data.tabs.0   0x00000000002e6342       0x21 cmd/built-in.o
 *fill*         0x00000000002e6363        0x5 
 .data.dp_last_length
                0x00000000002e6368        0x8 cmd/built-in.o
 .data.cmd_mmc  0x00000000002e6370      0x270 cmd/built-in.o
 .data.cmd_rpmb
                0x00000000002e65e0       0xc0 cmd/built-in.o
 .data.curr_device
                0x00000000002e66a0        0x4 cmd/built-in.o
 *fill*         0x00000000002e66a4        0x4 
 .data.cmd_pxe_sub
                0x00000000002e66a8       0x60 cmd/built-in.o
 .data.pxe_default_paths
                0x00000000002e6708       0x20 cmd/built-in.o
                0x00000000002e6708                pxe_default_paths
 .data.usb_stor_curr_dev
                0x00000000002e6728        0x4 cmd/built-in.o
 *fill*         0x00000000002e672c        0x4 
 .data.cmd_env_sub
                0x00000000002e6730      0x210 cmd/built-in.o
 .data.env_help_text
                0x00000000002e6940      0x28a cmd/built-in.o
 *fill*         0x00000000002e6bca        0x2 
 .data.env_id   0x00000000002e6bcc        0x4 cmd/built-in.o
 .data.reserved_list
                0x00000000002e6bd0      0x108 common/built-in.o
 .data.init_sequence_r
                0x00000000002e6cd8      0x118 common/built-in.o
 .data.of_busses
                0x00000000002e6df0       0x30 common/built-in.o
 .data.usb_scan_list
                0x00000000002e6e20       0x10 common/built-in.o
 .data.hist_cur
                0x00000000002e6e30        0x4 common/built-in.o
 *fill*         0x00000000002e6e34        0x4 
 .data.av_      0x00000000002e6e38      0x810 common/built-in.o
 .data.sbrk_base
                0x00000000002e7648        0x8 common/built-in.o
 .data.trim_threshold
                0x00000000002e7650        0x8 common/built-in.o
 .data.load_addr
                0x00000000002e7658        0x8 common/built-in.o
                0x00000000002e7658                load_addr
 .data.android_version.0
                0x00000000002e7660        0x4 common/built-in.o
 *fill*         0x00000000002e7664        0x4 
 .data.stdio_names
                0x00000000002e7668       0x18 common/built-in.o
                0x00000000002e7668                stdio_names
 .data.system_guid
                0x00000000002e7680       0x10 disk/built-in.o
 .data.dev_num  0x00000000002e7690        0x4 disk/built-in.o
 *fill*         0x00000000002e7694        0x4 
 .data.parts_head
                0x00000000002e7698       0x10 disk/built-in.o
 .data.px30_clk_ops
                0x00000000002e76a8       0x50 drivers/built-in.o
 .data.px30_cpu_rates
                0x00000000002e76f8       0x50 drivers/built-in.o
 .data.px30_pll_rates
                0x00000000002e7748       0xe0 drivers/built-in.o
 .data.px30_pmuclk_ops
                0x00000000002e7828       0x50 drivers/built-in.o
 .data.aliases_lookup
                0x00000000002e7878       0x10 drivers/built-in.o
                0x00000000002e7878                aliases_lookup
 .data.of_busses
                0x00000000002e7888       0x38 drivers/built-in.o
 .data.rockchip_usb2phy_ops
                0x00000000002e78c0       0x48 drivers/built-in.o
 .data.px30_mux_route_data
                0x00000000002e7908       0x60 drivers/built-in.o
 .data.px30_pin_banks
                0x00000000002e7968      0x1e0 drivers/built-in.o
 .data.rk1808_mux_route_data
                0x00000000002e7b48       0x3c drivers/built-in.o
 *fill*         0x00000000002e7b84        0x4 
 .data.rk1808_pin_banks
                0x00000000002e7b88      0x258 drivers/built-in.o
 .data.rk2928_pin_banks
                0x00000000002e7de0      0x1e0 drivers/built-in.o
 .data.rk3036_pin_banks
                0x00000000002e7fc0      0x168 drivers/built-in.o
 .data.rk3066a_pin_banks
                0x00000000002e8128      0x2d0 drivers/built-in.o
 .data.rk3066b_pin_banks
                0x00000000002e83f8      0x1e0 drivers/built-in.o
 .data.rk3128_mux_recalced_data
                0x00000000002e85d8       0x3c drivers/built-in.o
 .data.rk3128_mux_route_data
                0x00000000002e8614       0x54 drivers/built-in.o
 .data.rk3128_pin_banks
                0x00000000002e8668      0x1e0 drivers/built-in.o
 .data.rk3188_pin_banks
                0x00000000002e8848      0x1e0 drivers/built-in.o
 .data.rk3228_mux_route_data
                0x00000000002e8a28       0xd8 drivers/built-in.o
 .data.rk3228_pin_banks
                0x00000000002e8b00      0x1e0 drivers/built-in.o
 .data.rk3288_mux_route_data
                0x00000000002e8ce0       0x18 drivers/built-in.o
 .data.rk3288_pin_banks
                0x00000000002e8cf8      0x438 drivers/built-in.o
 .data.rk3308_mux_recalced_data
                0x00000000002e9130       0x78 drivers/built-in.o
 .data.rk3308_mux_route_data
                0x00000000002e91a8       0x9c drivers/built-in.o
 *fill*         0x00000000002e9244        0x4 
 .data.rk3308_pin_banks
                0x00000000002e9248      0x258 drivers/built-in.o
 .data.rk3308_pin_ctrl
                0x00000000002e94a0       0x80 drivers/built-in.o
 .data.rk3328_mux_recalced_data
                0x00000000002e9520       0x24 drivers/built-in.o
 .data.rk3328_mux_route_data
                0x00000000002e9544       0x90 drivers/built-in.o
 *fill*         0x00000000002e95d4        0x4 
 .data.rk3328_pin_banks
                0x00000000002e95d8      0x1e0 drivers/built-in.o
 .data.rk3368_pin_banks
                0x00000000002e97b8      0x1e0 drivers/built-in.o
 .data.rk3399_mux_route_data
                0x00000000002e9998       0x3c drivers/built-in.o
 *fill*         0x00000000002e99d4        0x4 
 .data.rk3399_pin_banks
                0x00000000002e99d8      0x258 drivers/built-in.o
 .data.rockchip_pinctrl_ops
                0x00000000002e9c30       0x88 drivers/built-in.o
 .data.rv1108_mux_recalced_data
                0x00000000002e9cb8       0x78 drivers/built-in.o
 .data.rv1108_pin_banks
                0x00000000002e9d30      0x1e0 drivers/built-in.o
 .data.rv1126_mux_recalced_data
                0x00000000002e9f10       0x30 drivers/built-in.o
 .data.rv1126_mux_route_data
                0x00000000002e9f40      0x324 drivers/built-in.o
 *fill*         0x00000000002ea264        0x4 
 .data.rv1126_pin_banks
                0x00000000002ea268      0x258 drivers/built-in.o
 .data.dmc_ops  0x00000000002ea4c0        0x8 drivers/built-in.o
 .data.ddr_params_exp_v1
                0x00000000002ea4c8      0x630 drivers/built-in.o
 .data.ddr_params_v1
                0x00000000002eaaf8      0x210 drivers/built-in.o
 .data.gic_irq_chip
                0x00000000002ead08       0x60 drivers/built-in.o
 .data.gpio_irq_chip
                0x00000000002ead68       0x60 drivers/built-in.o
 .data.gpio_banks
                0x00000000002eadc8       0x80 drivers/built-in.o
 .data.virq_desc_head
                0x00000000002eae48       0x10 drivers/built-in.o
 .data.virq_generic_chip
                0x00000000002eae58       0x60 drivers/built-in.o
                0x00000000002eae58                virq_generic_chip
 .data.virq_id  0x00000000002eaeb8        0x4 drivers/built-in.o
 *fill*         0x00000000002eaebc        0x4 
 .data.g_nand_para_info
                0x00000000002eaec0       0x20 drivers/built-in.o
                0x00000000002eaec0                g_nand_para_info
 .data.nand_opt_para
                0x00000000002eaee0       0x80 drivers/built-in.o
 .data.sd15_slc_rr
                0x00000000002eaf60       0x19 drivers/built-in.o
                0x00000000002eaf60                sd15_slc_rr
 *fill*         0x00000000002eaf79        0x7 
 .data.sd15_tlc_rr
                0x00000000002eaf80      0x149 drivers/built-in.o
                0x00000000002eaf80                sd15_tlc_rr
 *fill*         0x00000000002eb0c9        0x7 
 .data.tlc_b05a_prog_tbl
                0x00000000002eb0d0      0x600 drivers/built-in.o
                0x00000000002eb0d0                tlc_b05a_prog_tbl
 .data.tlc_prog_order
                0x00000000002eb6d0      0x300 drivers/built-in.o
                0x00000000002eb6d0                tlc_prog_order
 .data.zftl_debug
                0x00000000002eb9d0        0x4 drivers/built-in.o
                0x00000000002eb9d0                zftl_debug
 *fill*         0x00000000002eb9d4        0x4 
 .data.zftl_nand_flash_para_tbl
                0x00000000002eb9d8      0x620 drivers/built-in.o
 .data.psci_sysreset_ops
                0x00000000002ebff8       0x10 drivers/built-in.o
 .data.rockchip_sysreset
                0x00000000002ec008       0x10 drivers/built-in.o
 .data.console_normal_ops
                0x00000000002ec018       0x28 drivers/built-in.o
                0x00000000002ec018                console_normal_ops
 .data.logo_cache_list
                0x00000000002ec040       0x10 drivers/built-in.o
 .data.rockchip_display_list
                0x00000000002ec050       0x10 drivers/built-in.o
 .data.dsc_buffer_flow
                0x00000000002ec060      0x150 drivers/built-in.o
 .data.dsc_ecw  0x00000000002ec1b0      0x770 drivers/built-in.o
 .data.gamma_lut_en_num.2
                0x00000000002ec920        0x4 drivers/built-in.o
 *fill*         0x00000000002ec924        0x4 
 .data.rk3528_dump_regs
                0x00000000002ec928      0x1a0 drivers/built-in.o
 .data.rk3528_plane_table
                0x00000000002ecac8       0x50 drivers/built-in.o
 .data.rk3528_vp_data
                0x00000000002ecb18       0x30 drivers/built-in.o
 .data.rk3528_vp_plane_mask
                0x00000000002ecb48      0x140 drivers/built-in.o
 .data.rk3528_vp_primary_plane_order
                0x00000000002ecc88        0xa drivers/built-in.o
 *fill*         0x00000000002ecc92        0x6 
 .data.rk3528_win_data
                0x00000000002ecc98      0x118 drivers/built-in.o
 .data.rk3562_dump_regs
                0x00000000002ecdb0      0x140 drivers/built-in.o
 .data.rk3562_plane_table
                0x00000000002ecef0       0x50 drivers/built-in.o
 .data.rk3562_vp_data
                0x00000000002ecf40       0x30 drivers/built-in.o
 .data.rk3562_vp_plane_mask
                0x00000000002ecf70      0x140 drivers/built-in.o
 .data.rk3562_vp_primary_plane_order
                0x00000000002ed0b0        0xa drivers/built-in.o
 *fill*         0x00000000002ed0ba        0x6 
 .data.rk3562_win_data
                0x00000000002ed0c0       0xe0 drivers/built-in.o
 .data.rk3568_dump_regs
                0x00000000002ed1a0      0x180 drivers/built-in.o
 .data.rk3568_vp_data
                0x00000000002ed320       0x48 drivers/built-in.o
 .data.rk3568_vp_primary_plane_order
                0x00000000002ed368        0xa drivers/built-in.o
 *fill*         0x00000000002ed372        0x6 
 .data.rk3568_win_data
                0x00000000002ed378      0x150 drivers/built-in.o
 .data.rk356x_plane_table
                0x00000000002ed4c8       0x50 drivers/built-in.o
 .data.rk356x_vp_plane_mask
                0x00000000002ed518      0x140 drivers/built-in.o
 .data.rk3588_dsc_data
                0x00000000002ed658       0x50 drivers/built-in.o
 .data.rk3588_dump_regs
                0x00000000002ed6a8      0x1e0 drivers/built-in.o
 .data.rk3588_plane_table
                0x00000000002ed888       0x50 drivers/built-in.o
 .data.rk3588_vop_pd_data
                0x00000000002ed8d8       0x38 drivers/built-in.o
 .data.rk3588_vp_data
                0x00000000002ed910       0x60 drivers/built-in.o
 .data.rk3588_vp_plane_mask
                0x00000000002ed970      0x140 drivers/built-in.o
 .data.rk3588_vp_primary_plane_order
                0x00000000002edab0        0xa drivers/built-in.o
 *fill*         0x00000000002edaba        0x6 
 .data.rk3588_win_data
                0x00000000002edac0      0x1c0 drivers/built-in.o
 .data.rockchip_connector_list
                0x00000000002edc80       0x10 drivers/built-in.o
 .data.px30_inno_video_phy_driver_data
                0x00000000002edc90       0x20 drivers/built-in.o
 .data.px30s_inno_video_phy_driver_data
                0x00000000002edcb0       0x20 drivers/built-in.o
 .data.rk3128_inno_video_phy_driver_data
                0x00000000002edcd0       0x20 drivers/built-in.o
 .data.rk3368_inno_video_phy_driver_data
                0x00000000002edcf0       0x20 drivers/built-in.o
 .data.rk3568_inno_video_phy_driver_data
                0x00000000002edd10       0x20 drivers/built-in.o
 .data.rk618_lvds_driver_data
                0x00000000002edd30       0x28 drivers/built-in.o
 .data.rk618_dsi_driver_data
                0x00000000002edd58       0x28 drivers/built-in.o
 .data.anx6345_driver_data
                0x00000000002edd80       0x28 drivers/built-in.o
 .data.prob_last.0
                0x00000000002edda8        0x4 drivers/built-in.o
 .data.temp_last.2
                0x00000000002eddac        0x4 drivers/built-in.o
 .data.rockchip_reset_ops
                0x00000000002eddb0       0x28 drivers/built-in.o
                0x00000000002eddb0                rockchip_reset_ops
 .data.supported
                0x00000000002eddd8       0x40 drivers/net/built-in.o
 .data.genphy_driver
                0x00000000002ede18       0x68 drivers/net/phy/built-in.o
 .data.phy_drivers
                0x00000000002ede80       0x10 drivers/net/phy/built-in.o
 .data.pm_cpu   0x00000000002ede90      0x1a0 drivers/power/dvfs/built-in.o
 .data.pm_dmc   0x00000000002ee030      0x1a0 drivers/power/dvfs/built-in.o
 .data.pm_e_head
                0x00000000002ee1d0       0x10 drivers/power/dvfs/built-in.o
 .data.rk805_irq_chip
                0x00000000002ee1e0       0x38 drivers/power/pmic/built-in.o
 .data.rk808_irq_chip
                0x00000000002ee218       0x38 drivers/power/pmic/built-in.o
 .data.rk816_irq_chip
                0x00000000002ee250       0x38 drivers/power/pmic/built-in.o
 .data.rk817_init_reg
                0x00000000002ee288        0xf drivers/power/pmic/built-in.o
 *fill*         0x00000000002ee297        0x1 
 .data.rk817_irq_chip
                0x00000000002ee298       0x38 drivers/power/pmic/built-in.o
 .data.rk818_init_current
                0x00000000002ee2d0        0x3 drivers/power/pmic/built-in.o
 *fill*         0x00000000002ee2d3        0x5 
 .data.rk818_irq_chip
                0x00000000002ee2d8       0x38 drivers/power/pmic/built-in.o
 .data.rk8xx_ops
                0x00000000002ee310       0x30 drivers/power/pmic/built-in.o
 .data.dwc2_ep_ops
                0x00000000002ee340       0x50 drivers/usb/gadget/built-in.o
 .data.ep0_fifo_size
                0x00000000002ee390        0x4 drivers/usb/gadget/built-in.o
 .data.ep_fifo_size
                0x00000000002ee394        0x4 drivers/usb/gadget/built-in.o
 .data.memory   0x00000000002ee398      0x2d0 drivers/usb/gadget/built-in.o
 .data.reset_available
                0x00000000002ee668        0x4 drivers/usb/gadget/built-in.o
 *fill*         0x00000000002ee66c        0x4 
 .data.composite_driver
                0x00000000002ee670       0x48 drivers/usb/gadget/built-in.o
 .data.device_desc
                0x00000000002ee6b8       0x12 drivers/usb/gadget/built-in.o
 *fill*         0x00000000002ee6ca        0x6 
 .data.g_dnl_composite_strings
                0x00000000002ee6d0       0x10 drivers/usb/gadget/built-in.o
 .data.g_dnl_driver
                0x00000000002ee6e0       0x40 drivers/usb/gadget/built-in.o
 .data.g_dnl_string_defs
                0x00000000002ee720       0x40 drivers/usb/gadget/built-in.o
 .data.g_dnl_string_tab
                0x00000000002ee760       0x10 drivers/usb/gadget/built-in.o
 .data.fsg_fs_bulk_in_desc
                0x00000000002ee770        0x9 drivers/usb/gadget/built-in.o
 .data.fsg_fs_bulk_out_desc
                0x00000000002ee779        0x9 drivers/usb/gadget/built-in.o
 *fill*         0x00000000002ee782        0x6 
 .data.fsg_fs_function
                0x00000000002ee788       0x20 drivers/usb/gadget/built-in.o
 .data.fsg_hs_bulk_in_desc
                0x00000000002ee7a8        0x9 drivers/usb/gadget/built-in.o
 .data.fsg_hs_bulk_out_desc
                0x00000000002ee7b1        0x9 drivers/usb/gadget/built-in.o
 *fill*         0x00000000002ee7ba        0x6 
 .data.fsg_hs_function
                0x00000000002ee7c0       0x20 drivers/usb/gadget/built-in.o
 .data.fsg_intf_desc
                0x00000000002ee7e0        0x9 drivers/usb/gadget/built-in.o
 .data.fsg_ss_bulk_in_comp_desc
                0x00000000002ee7e9        0x6 drivers/usb/gadget/built-in.o
 .data.fsg_ss_bulk_in_desc
                0x00000000002ee7ef        0x9 drivers/usb/gadget/built-in.o
 .data.fsg_ss_bulk_out_comp_desc
                0x00000000002ee7f8        0x6 drivers/usb/gadget/built-in.o
 .data.fsg_ss_bulk_out_desc
                0x00000000002ee7fe        0x9 drivers/usb/gadget/built-in.o
 *fill*         0x00000000002ee807        0x1 
 .data.fsg_strings
                0x00000000002ee808       0x20 drivers/usb/gadget/built-in.o
 .data.fsg_strings_array
                0x00000000002ee828       0x10 drivers/usb/gadget/built-in.o
 .data.fsg_stringtab
                0x00000000002ee838       0x10 drivers/usb/gadget/built-in.o
 .data.rkusb_fs_function
                0x00000000002ee848       0x20 drivers/usb/gadget/built-in.o
 .data.rkusb_hs_function
                0x00000000002ee868       0x20 drivers/usb/gadget/built-in.o
 .data.rkusb_intf_desc
                0x00000000002ee888        0x9 drivers/usb/gadget/built-in.o
 *fill*         0x00000000002ee891        0x7 
 .data.rkusb_ss_function
                0x00000000002ee898       0x30 drivers/usb/gadget/built-in.o
 .data.fastboot_string_defs
                0x00000000002ee8c8       0x20 drivers/usb/gadget/built-in.o
 .data.fastboot_strings
                0x00000000002ee8e8       0x10 drivers/usb/gadget/built-in.o
 .data.fb_fs_function
                0x00000000002ee8f8       0x18 drivers/usb/gadget/built-in.o
 .data.fb_hs_function
                0x00000000002ee910       0x20 drivers/usb/gadget/built-in.o
 .data.fb_ss_function
                0x00000000002ee930       0x30 drivers/usb/gadget/built-in.o
 .data.fs_ep_in
                0x00000000002ee960        0x9 drivers/usb/gadget/built-in.o
 .data.fs_ep_out
                0x00000000002ee969        0x9 drivers/usb/gadget/built-in.o
 .data.hs_ep_in
                0x00000000002ee972        0x9 drivers/usb/gadget/built-in.o
 .data.hs_ep_out
                0x00000000002ee97b        0x9 drivers/usb/gadget/built-in.o
 .data.interface_desc
                0x00000000002ee984        0x9 drivers/usb/gadget/built-in.o
 .data.ss_ep_in
                0x00000000002ee98d        0x9 drivers/usb/gadget/built-in.o
 .data.ss_ep_in_comp_desc
                0x00000000002ee996        0x6 drivers/usb/gadget/built-in.o
 .data.ss_ep_out
                0x00000000002ee99c        0x9 drivers/usb/gadget/built-in.o
 .data.ss_ep_out_comp_desc
                0x00000000002ee9a5        0x6 drivers/usb/gadget/built-in.o
 *fill*         0x00000000002ee9ab        0x5 
 .data.stringtab_fastboot
                0x00000000002ee9b0       0x10 drivers/usb/gadget/built-in.o
 .data.ohci_usb_ops
                0x00000000002ee9c0       0x50 drivers/usb/host/built-in.o
                0x00000000002ee9c0                ohci_usb_ops
 .data.root_hub_config_des
                0x00000000002eea10       0x19 drivers/usb/host/built-in.o
 .data.root_hub_dev_des
                0x00000000002eea29       0x12 drivers/usb/host/built-in.o
 .data.root_hub_str_index0
                0x00000000002eea3b        0x4 drivers/usb/host/built-in.o
 .data.root_hub_str_index1
                0x00000000002eea3f       0x20 drivers/usb/host/built-in.o
 .data.descriptor
                0x00000000002eea5f       0x39 drivers/usb/host/built-in.o
 .data.ehci_usb_ops
                0x00000000002eea98       0x50 drivers/usb/host/built-in.o
                0x00000000002eea98                ehci_usb_ops
 .data.env_htab
                0x00000000002eeae8       0x18 env/built-in.o
                0x00000000002eeae8                env_htab
 .data.first_call
                0x00000000002eeb00        0x8 env/built-in.o
 .data.fstypes  0x00000000002eeb08      0x150 fs/built-in.o
 .data.ext4fs_indir1_blkno
                0x00000000002eec58        0x4 fs/built-in.o
                0x00000000002eec58                ext4fs_indir1_blkno
 .data.ext4fs_indir2_blkno
                0x00000000002eec5c        0x4 fs/built-in.o
                0x00000000002eec5c                ext4fs_indir2_blkno
 .data.ext4fs_indir3_blkno
                0x00000000002eec60        0x4 fs/built-in.o
                0x00000000002eec60                ext4fs_indir3_blkno
 *fill*         0x00000000002eec64        0x4 
 .data          0x00000000002eec68      0x570 lib/built-in.o
                0x00000000002eec68                plat_sysmem
                0x00000000002eeee0                plat_bidram
 .data.sha256_padding
                0x00000000002ef1d8       0x40 lib/built-in.o
 .data.algorithm_data
                0x00000000002ef218       0xa8 lib/built-in.o
 .data.curr_device
                0x00000000002ef2c0        0x4 lib/built-in.o
 .data.last_slot_index.1
                0x00000000002ef2c4        0x4 lib/built-in.o
 .data.y        0x00000000002ef2c8        0x4 lib/built-in.o
 .data.first_call.0
                0x00000000002ef2cc        0x4 net/built-in.o
 .data.net_native_vlan
                0x00000000002ef2d0        0x2 net/built-in.o
                0x00000000002ef2d0                net_native_vlan
 .data.net_our_vlan
                0x00000000002ef2d2        0x2 net/built-in.o
                0x00000000002ef2d2                net_our_vlan
 .data.nfs_offset
                0x00000000002ef2d4        0x4 net/built-in.o
 .data.supported_nfs_versions
                0x00000000002ef2d8        0x1 net/built-in.o
 *fill*         0x00000000002ef2d9        0x1 
 .data.tftp_block_size
                0x00000000002ef2da        0x2 net/built-in.o
 .data.tftp_block_size_option
                0x00000000002ef2dc        0x2 net/built-in.o
 *fill*         0x00000000002ef2de        0x2 
 .data.tftp_timeout_count_max
                0x00000000002ef2e0        0x4 net/built-in.o
                0x00000000002ef2e0                tftp_timeout_count_max
 .data.timeout_count_max
                0x00000000002ef2e4        0x4 net/built-in.o
 .data.timeout_ms
                0x00000000002ef2e8        0x8 net/built-in.o
 .data.sub_cmd  0x00000000002ef2f0      0x510 test/built-in.o
 .data.cmd_grp_net
                0x00000000002ef800       0x20 test/built-in.o
                0x00000000002ef800                cmd_grp_net
 .data.sub_cmd_help
                0x00000000002ef820      0x34f test/built-in.o
 *fill*         0x00000000002efb6f        0x1 
 .data.test_commands
                0x00000000002efb70       0xc0 test/dm/built-in.o

.got            0x00000000002efc30        0x8
 .got           0x00000000002efc30        0x8 arch/arm/cpu/armv8/start.o
                0x00000000002efc30                _GLOBAL_OFFSET_TABLE_

.got.plt        0x00000000002efc38       0x18
 .got.plt       0x00000000002efc38       0x18 arch/arm/cpu/armv8/start.o
                0x00000000002efc50                . = ALIGN (0x8)
                0x00000000002efc50                . = .
                0x00000000002efc50                . = ALIGN (0x8)

.u_boot_list    0x00000000002efc50     0x4cf8
 *(SORT_BY_NAME(.u_boot_list*))
 .u_boot_list_2_cmd_1
                0x00000000002efc50        0x0 cmd/built-in.o
 .u_boot_list_2_cmd_1
                0x00000000002efc50        0x0 common/built-in.o
 .u_boot_list_2_cmd_2_android_print_hdr
                0x00000000002efc50       0x30 cmd/built-in.o
                0x00000000002efc50                _u_boot_list_2_cmd_2_android_print_hdr
 .u_boot_list_2_cmd_2_atags
                0x00000000002efc80       0x30 cmd/built-in.o
                0x00000000002efc80                _u_boot_list_2_cmd_2_atags
 .u_boot_list_2_cmd_2_base
                0x00000000002efcb0       0x30 cmd/built-in.o
                0x00000000002efcb0                _u_boot_list_2_cmd_2_base
 .u_boot_list_2_cmd_2_bdinfo
                0x00000000002efce0       0x30 cmd/built-in.o
                0x00000000002efce0                _u_boot_list_2_cmd_2_bdinfo
 .u_boot_list_2_cmd_2_bidram_dump
                0x00000000002efd10       0x30 lib/built-in.o
                0x00000000002efd10                _u_boot_list_2_cmd_2_bidram_dump
 .u_boot_list_2_cmd_2_blk
                0x00000000002efd40       0x30 cmd/built-in.o
                0x00000000002efd40                _u_boot_list_2_cmd_2_blk
 .u_boot_list_2_cmd_2_boot
                0x00000000002efd70       0x30 cmd/built-in.o
                0x00000000002efd70                _u_boot_list_2_cmd_2_boot
 .u_boot_list_2_cmd_2_boot_android
                0x00000000002efda0       0x30 cmd/built-in.o
                0x00000000002efda0                _u_boot_list_2_cmd_2_boot_android
 .u_boot_list_2_cmd_2_bootavb
                0x00000000002efdd0       0x30 cmd/built-in.o
                0x00000000002efdd0                _u_boot_list_2_cmd_2_bootavb
 .u_boot_list_2_cmd_2_bootd
                0x00000000002efe00       0x30 cmd/built-in.o
                0x00000000002efe00                _u_boot_list_2_cmd_2_bootd
 .u_boot_list_2_cmd_2_booti
                0x00000000002efe30       0x30 cmd/built-in.o
                0x00000000002efe30                _u_boot_list_2_cmd_2_booti
 .u_boot_list_2_cmd_2_bootm
                0x00000000002efe60       0x30 cmd/built-in.o
                0x00000000002efe60                _u_boot_list_2_cmd_2_bootm
 .u_boot_list_2_cmd_2_bootp
                0x00000000002efe90       0x30 cmd/built-in.o
                0x00000000002efe90                _u_boot_list_2_cmd_2_bootp
 .u_boot_list_2_cmd_2_bootrkp
                0x00000000002efec0       0x30 cmd/built-in.o
                0x00000000002efec0                _u_boot_list_2_cmd_2_bootrkp
 .u_boot_list_2_cmd_2_charge
                0x00000000002efef0       0x30 cmd/built-in.o
                0x00000000002efef0                _u_boot_list_2_cmd_2_charge
 .u_boot_list_2_cmd_2_cmp
                0x00000000002eff20       0x30 cmd/built-in.o
                0x00000000002eff20                _u_boot_list_2_cmd_2_cmp
 .u_boot_list_2_cmd_2_coninfo
                0x00000000002eff50       0x30 cmd/built-in.o
                0x00000000002eff50                _u_boot_list_2_cmd_2_coninfo
 .u_boot_list_2_cmd_2_cp
                0x00000000002eff80       0x30 cmd/built-in.o
                0x00000000002eff80                _u_boot_list_2_cmd_2_cp
 .u_boot_list_2_cmd_2_crc32
                0x00000000002effb0       0x30 cmd/built-in.o
                0x00000000002effb0                _u_boot_list_2_cmd_2_crc32
 .u_boot_list_2_cmd_2_crypto_sum
                0x00000000002effe0       0x30 cmd/built-in.o
                0x00000000002effe0                _u_boot_list_2_cmd_2_crypto_sum
 .u_boot_list_2_cmd_2_dhcp
                0x00000000002f0010       0x30 cmd/built-in.o
                0x00000000002f0010                _u_boot_list_2_cmd_2_dhcp
 .u_boot_list_2_cmd_2_dm
                0x00000000002f0040       0x30 test/dm/built-in.o
                0x00000000002f0040                _u_boot_list_2_cmd_2_dm
 .u_boot_list_2_cmd_2_download
                0x00000000002f0070       0x30 cmd/built-in.o
                0x00000000002f0070                _u_boot_list_2_cmd_2_download
 .u_boot_list_2_cmd_2_dtimg
                0x00000000002f00a0       0x30 cmd/built-in.o
                0x00000000002f00a0                _u_boot_list_2_cmd_2_dtimg
 .u_boot_list_2_cmd_2_dump_irqs
                0x00000000002f00d0       0x30 drivers/built-in.o
                0x00000000002f00d0                _u_boot_list_2_cmd_2_dump_irqs
 .u_boot_list_2_cmd_2_dump_resource
                0x00000000002f0100       0x30 arch/arm/mach-rockchip/built-in.o
                0x00000000002f0100                _u_boot_list_2_cmd_2_dump_resource
 .u_boot_list_2_cmd_2_dvfs
                0x00000000002f0130       0x30 cmd/built-in.o
                0x00000000002f0130                _u_boot_list_2_cmd_2_dvfs
 .u_boot_list_2_cmd_2_echo
                0x00000000002f0160       0x30 cmd/built-in.o
                0x00000000002f0160                _u_boot_list_2_cmd_2_echo
 .u_boot_list_2_cmd_2_editenv
                0x00000000002f0190       0x30 cmd/built-in.o
                0x00000000002f0190                _u_boot_list_2_cmd_2_editenv
 .u_boot_list_2_cmd_2_env
                0x00000000002f01c0       0x30 cmd/built-in.o
                0x00000000002f01c0                _u_boot_list_2_cmd_2_env
 .u_boot_list_2_cmd_2_exit
                0x00000000002f01f0       0x30 cmd/built-in.o
                0x00000000002f01f0                _u_boot_list_2_cmd_2_exit
 .u_boot_list_2_cmd_2_ext2load
                0x00000000002f0220       0x30 cmd/built-in.o
                0x00000000002f0220                _u_boot_list_2_cmd_2_ext2load
 .u_boot_list_2_cmd_2_ext2ls
                0x00000000002f0250       0x30 cmd/built-in.o
                0x00000000002f0250                _u_boot_list_2_cmd_2_ext2ls
 .u_boot_list_2_cmd_2_ext4load
                0x00000000002f0280       0x30 cmd/built-in.o
                0x00000000002f0280                _u_boot_list_2_cmd_2_ext4load
 .u_boot_list_2_cmd_2_ext4ls
                0x00000000002f02b0       0x30 cmd/built-in.o
                0x00000000002f02b0                _u_boot_list_2_cmd_2_ext4ls
 .u_boot_list_2_cmd_2_ext4size
                0x00000000002f02e0       0x30 cmd/built-in.o
                0x00000000002f02e0                _u_boot_list_2_cmd_2_ext4size
 .u_boot_list_2_cmd_2_false
                0x00000000002f0310       0x30 cmd/built-in.o
                0x00000000002f0310                _u_boot_list_2_cmd_2_false
 .u_boot_list_2_cmd_2_fastboot
                0x00000000002f0340       0x30 cmd/built-in.o
                0x00000000002f0340                _u_boot_list_2_cmd_2_fastboot
 .u_boot_list_2_cmd_2_fatinfo
                0x00000000002f0370       0x30 cmd/built-in.o
                0x00000000002f0370                _u_boot_list_2_cmd_2_fatinfo
 .u_boot_list_2_cmd_2_fatload
                0x00000000002f03a0       0x30 cmd/built-in.o
                0x00000000002f03a0                _u_boot_list_2_cmd_2_fatload
 .u_boot_list_2_cmd_2_fatls
                0x00000000002f03d0       0x30 cmd/built-in.o
                0x00000000002f03d0                _u_boot_list_2_cmd_2_fatls
 .u_boot_list_2_cmd_2_fatsize
                0x00000000002f0400       0x30 cmd/built-in.o
                0x00000000002f0400                _u_boot_list_2_cmd_2_fatsize
 .u_boot_list_2_cmd_2_fatwrite
                0x00000000002f0430       0x30 cmd/built-in.o
                0x00000000002f0430                _u_boot_list_2_cmd_2_fatwrite
 .u_boot_list_2_cmd_2_fdt
                0x00000000002f0460       0x30 cmd/built-in.o
                0x00000000002f0460                _u_boot_list_2_cmd_2_fdt
 .u_boot_list_2_cmd_2_fstype
                0x00000000002f0490       0x30 cmd/built-in.o
                0x00000000002f0490                _u_boot_list_2_cmd_2_fstype
 .u_boot_list_2_cmd_2_go
                0x00000000002f04c0       0x30 cmd/built-in.o
                0x00000000002f04c0                _u_boot_list_2_cmd_2_go
 .u_boot_list_2_cmd_2_gpt
                0x00000000002f04f0       0x30 cmd/built-in.o
                0x00000000002f04f0                _u_boot_list_2_cmd_2_gpt
 .u_boot_list_2_cmd_2_help
                0x00000000002f0520       0x30 cmd/built-in.o
                0x00000000002f0520                _u_boot_list_2_cmd_2_help
 .u_boot_list_2_cmd_2_iomem
                0x00000000002f0550       0x30 arch/arm/mach-rockchip/built-in.o
                0x00000000002f0550                _u_boot_list_2_cmd_2_iomem
 .u_boot_list_2_cmd_2_lcdputs
                0x00000000002f0580       0x30 drivers/built-in.o
                0x00000000002f0580                _u_boot_list_2_cmd_2_lcdputs
 .u_boot_list_2_cmd_2_load
                0x00000000002f05b0       0x30 cmd/built-in.o
                0x00000000002f05b0                _u_boot_list_2_cmd_2_load
 .u_boot_list_2_cmd_2_loop
                0x00000000002f05e0       0x30 cmd/built-in.o
                0x00000000002f05e0                _u_boot_list_2_cmd_2_loop
 .u_boot_list_2_cmd_2_ls
                0x00000000002f0610       0x30 cmd/built-in.o
                0x00000000002f0610                _u_boot_list_2_cmd_2_ls
 .u_boot_list_2_cmd_2_md
                0x00000000002f0640       0x30 cmd/built-in.o
                0x00000000002f0640                _u_boot_list_2_cmd_2_md
 .u_boot_list_2_cmd_2_mdio
                0x00000000002f0670       0x30 cmd/built-in.o
                0x00000000002f0670                _u_boot_list_2_cmd_2_mdio
 .u_boot_list_2_cmd_2_mii
                0x00000000002f06a0       0x30 cmd/built-in.o
                0x00000000002f06a0                _u_boot_list_2_cmd_2_mii
 .u_boot_list_2_cmd_2_mm
                0x00000000002f06d0       0x30 cmd/built-in.o
                0x00000000002f06d0                _u_boot_list_2_cmd_2_mm
 .u_boot_list_2_cmd_2_mmc
                0x00000000002f0700       0x30 cmd/built-in.o
                0x00000000002f0700                _u_boot_list_2_cmd_2_mmc
 .u_boot_list_2_cmd_2_mmcinfo
                0x00000000002f0730       0x30 cmd/built-in.o
                0x00000000002f0730                _u_boot_list_2_cmd_2_mmcinfo
 .u_boot_list_2_cmd_2_mw
                0x00000000002f0760       0x30 cmd/built-in.o
                0x00000000002f0760                _u_boot_list_2_cmd_2_mw
 .u_boot_list_2_cmd_2_nfs
                0x00000000002f0790       0x30 cmd/built-in.o
                0x00000000002f0790                _u_boot_list_2_cmd_2_nfs
 .u_boot_list_2_cmd_2_nm
                0x00000000002f07c0       0x30 cmd/built-in.o
                0x00000000002f07c0                _u_boot_list_2_cmd_2_nm
 .u_boot_list_2_cmd_2_part
                0x00000000002f07f0       0x30 cmd/built-in.o
                0x00000000002f07f0                _u_boot_list_2_cmd_2_part
 .u_boot_list_2_cmd_2_ping
                0x00000000002f0820       0x30 cmd/built-in.o
                0x00000000002f0820                _u_boot_list_2_cmd_2_ping
 .u_boot_list_2_cmd_2_printenv
                0x00000000002f0850       0x30 cmd/built-in.o
                0x00000000002f0850                _u_boot_list_2_cmd_2_printenv
 .u_boot_list_2_cmd_2_pxe
                0x00000000002f0880       0x30 cmd/built-in.o
                0x00000000002f0880                _u_boot_list_2_cmd_2_pxe
 .u_boot_list_2_cmd_2_question_mark
                0x00000000002f08b0       0x30 cmd/built-in.o
                0x00000000002f08b0                _u_boot_list_2_cmd_2_question_mark
 .u_boot_list_2_cmd_2_rbrom
                0x00000000002f08e0       0x30 cmd/built-in.o
                0x00000000002f08e0                _u_boot_list_2_cmd_2_rbrom
 .u_boot_list_2_cmd_2_reboot
                0x00000000002f0910       0x30 cmd/built-in.o
                0x00000000002f0910                _u_boot_list_2_cmd_2_reboot
 .u_boot_list_2_cmd_2_reset
                0x00000000002f0940       0x30 cmd/built-in.o
                0x00000000002f0940                _u_boot_list_2_cmd_2_reset
 .u_boot_list_2_cmd_2_rkimgtest
                0x00000000002f0970       0x30 cmd/built-in.o
                0x00000000002f0970                _u_boot_list_2_cmd_2_rkimgtest
 .u_boot_list_2_cmd_2_rknand
                0x00000000002f09a0       0x30 cmd/built-in.o
                0x00000000002f09a0                _u_boot_list_2_cmd_2_rknand
 .u_boot_list_2_cmd_2_rktest
                0x00000000002f09d0       0x30 test/built-in.o
                0x00000000002f09d0                _u_boot_list_2_cmd_2_rktest
 .u_boot_list_2_cmd_2_rockchip_show_bmp
                0x00000000002f0a00       0x30 drivers/built-in.o
                0x00000000002f0a00                _u_boot_list_2_cmd_2_rockchip_show_bmp
 .u_boot_list_2_cmd_2_rockchip_show_logo
                0x00000000002f0a30       0x30 drivers/built-in.o
                0x00000000002f0a30                _u_boot_list_2_cmd_2_rockchip_show_logo
 .u_boot_list_2_cmd_2_rockusb
                0x00000000002f0a60       0x30 cmd/built-in.o
                0x00000000002f0a60                _u_boot_list_2_cmd_2_rockusb
 .u_boot_list_2_cmd_2_run
                0x00000000002f0a90       0x30 cmd/built-in.o
                0x00000000002f0a90                _u_boot_list_2_cmd_2_run
 .u_boot_list_2_cmd_2_save
                0x00000000002f0ac0       0x30 cmd/built-in.o
                0x00000000002f0ac0                _u_boot_list_2_cmd_2_save
 .u_boot_list_2_cmd_2_saveenv
                0x00000000002f0af0       0x30 cmd/built-in.o
                0x00000000002f0af0                _u_boot_list_2_cmd_2_saveenv
 .u_boot_list_2_cmd_2_setcurs
                0x00000000002f0b20       0x30 drivers/built-in.o
                0x00000000002f0b20                _u_boot_list_2_cmd_2_setcurs
 .u_boot_list_2_cmd_2_setenv
                0x00000000002f0b50       0x30 cmd/built-in.o
                0x00000000002f0b50                _u_boot_list_2_cmd_2_setenv
 .u_boot_list_2_cmd_2_showvar
                0x00000000002f0b80       0x30 common/built-in.o
                0x00000000002f0b80                _u_boot_list_2_cmd_2_showvar
 .u_boot_list_2_cmd_2_size
                0x00000000002f0bb0       0x30 cmd/built-in.o
                0x00000000002f0bb0                _u_boot_list_2_cmd_2_size
 .u_boot_list_2_cmd_2_source
                0x00000000002f0be0       0x30 cmd/built-in.o
                0x00000000002f0be0                _u_boot_list_2_cmd_2_source
 .u_boot_list_2_cmd_2_sysboot
                0x00000000002f0c10       0x30 cmd/built-in.o
                0x00000000002f0c10                _u_boot_list_2_cmd_2_sysboot
 .u_boot_list_2_cmd_2_sysmem_dump
                0x00000000002f0c40       0x30 lib/built-in.o
                0x00000000002f0c40                _u_boot_list_2_cmd_2_sysmem_dump
 .u_boot_list_2_cmd_2_sysmem_search
                0x00000000002f0c70       0x30 lib/built-in.o
                0x00000000002f0c70                _u_boot_list_2_cmd_2_sysmem_search
 .u_boot_list_2_cmd_2_test
                0x00000000002f0ca0       0x30 cmd/built-in.o
                0x00000000002f0ca0                _u_boot_list_2_cmd_2_test
 .u_boot_list_2_cmd_2_tftp
                0x00000000002f0cd0       0x30 cmd/built-in.o
                0x00000000002f0cd0                _u_boot_list_2_cmd_2_tftp
 .u_boot_list_2_cmd_2_true
                0x00000000002f0d00       0x30 cmd/built-in.o
                0x00000000002f0d00                _u_boot_list_2_cmd_2_true
 .u_boot_list_2_cmd_2_ums
                0x00000000002f0d30       0x30 cmd/built-in.o
                0x00000000002f0d30                _u_boot_list_2_cmd_2_ums
 .u_boot_list_2_cmd_2_usb
                0x00000000002f0d60       0x30 cmd/built-in.o
                0x00000000002f0d60                _u_boot_list_2_cmd_2_usb
 .u_boot_list_2_cmd_2_usbboot
                0x00000000002f0d90       0x30 cmd/built-in.o
                0x00000000002f0d90                _u_boot_list_2_cmd_2_usbboot
 .u_boot_list_2_cmd_2_version
                0x00000000002f0dc0       0x30 cmd/built-in.o
                0x00000000002f0dc0                _u_boot_list_2_cmd_2_version
 .u_boot_list_2_cmd_2_vop_dump
                0x00000000002f0df0       0x30 drivers/built-in.o
                0x00000000002f0df0                _u_boot_list_2_cmd_2_vop_dump
 .u_boot_list_2_cmd_3
                0x00000000002f0e20        0x0 cmd/built-in.o
 .u_boot_list_2_cmd_3
                0x00000000002f0e20        0x0 common/built-in.o
 .u_boot_list_2_driver_1
                0x00000000002f0e20        0x0 drivers/built-in.o
 .u_boot_list_2_driver_2_a_psci_sysreset
                0x00000000002f0e20       0x78 drivers/built-in.o
                0x00000000002f0e20                _u_boot_list_2_driver_2_a_psci_sysreset
 .u_boot_list_2_driver_2_adc_key
                0x00000000002f0e98       0x78 drivers/built-in.o
                0x00000000002f0e98                _u_boot_list_2_driver_2_adc_key
 .u_boot_list_2_driver_2_adc_key_bus
                0x00000000002f0f10       0x78 drivers/built-in.o
                0x00000000002f0f10                _u_boot_list_2_driver_2_adc_key_bus
 .u_boot_list_2_driver_2_analogix_anx6345
                0x00000000002f0f88       0x78 drivers/built-in.o
                0x00000000002f0f88                _u_boot_list_2_driver_2_analogix_anx6345
 .u_boot_list_2_driver_2_charge_animation
                0x00000000002f1000       0x78 drivers/power/built-in.o
                0x00000000002f1000                _u_boot_list_2_driver_2_charge_animation
 .u_boot_list_2_driver_2_clk_fixed_rate
                0x00000000002f1078       0x78 drivers/built-in.o
                0x00000000002f1078                _u_boot_list_2_driver_2_clk_fixed_rate
 .u_boot_list_2_driver_2_dmc_fsp
                0x00000000002f10f0       0x78 drivers/built-in.o
                0x00000000002f10f0                _u_boot_list_2_driver_2_dmc_fsp
 .u_boot_list_2_driver_2_dmc_tiny
                0x00000000002f1168       0x78 drivers/built-in.o
                0x00000000002f1168                _u_boot_list_2_driver_2_dmc_tiny
 .u_boot_list_2_driver_2_dw_mipi_dsi
                0x00000000002f11e0       0x78 drivers/built-in.o
                0x00000000002f11e0                _u_boot_list_2_driver_2_dw_mipi_dsi
 .u_boot_list_2_driver_2_ehci_generic
                0x00000000002f1258       0x78 drivers/usb/host/built-in.o
                0x00000000002f1258                _u_boot_list_2_driver_2_ehci_generic
 .u_boot_list_2_driver_2_eth_designware
                0x00000000002f12d0       0x78 drivers/net/built-in.o
                0x00000000002f12d0                _u_boot_list_2_driver_2_eth_designware
 .u_boot_list_2_driver_2_eth_gmac_rockchip
                0x00000000002f1348       0x78 drivers/net/built-in.o
                0x00000000002f1348                _u_boot_list_2_driver_2_eth_gmac_rockchip
 .u_boot_list_2_driver_2_firmware
                0x00000000002f13c0       0x78 drivers/built-in.o
                0x00000000002f13c0                _u_boot_list_2_driver_2_firmware
 .u_boot_list_2_driver_2_fixed_regulator
                0x00000000002f1438       0x78 drivers/power/regulator/built-in.o
                0x00000000002f1438                _u_boot_list_2_driver_2_fixed_regulator
 .u_boot_list_2_driver_2_generic_syscon
                0x00000000002f14b0       0x78 drivers/built-in.o
                0x00000000002f14b0                _u_boot_list_2_driver_2_generic_syscon
 .u_boot_list_2_driver_2_gpio_rockchip
                0x00000000002f1528       0x78 drivers/gpio/built-in.o
                0x00000000002f1528                _u_boot_list_2_driver_2_gpio_rockchip
 .u_boot_list_2_driver_2_i2c_generic_chip_drv
                0x00000000002f15a0       0x78 drivers/i2c/built-in.o
                0x00000000002f15a0                _u_boot_list_2_driver_2_i2c_generic_chip_drv
 .u_boot_list_2_driver_2_i2c_rockchip
                0x00000000002f1618       0x78 drivers/i2c/built-in.o
                0x00000000002f1618                _u_boot_list_2_driver_2_i2c_rockchip
 .u_boot_list_2_driver_2_inno_video_combo_phy
                0x00000000002f1690       0x78 drivers/built-in.o
                0x00000000002f1690                _u_boot_list_2_driver_2_inno_video_combo_phy
 .u_boot_list_2_driver_2_io_domain
                0x00000000002f1708       0x78 drivers/power/io-domain/built-in.o
                0x00000000002f1708                _u_boot_list_2_driver_2_io_domain
 .u_boot_list_2_driver_2_mmc
                0x00000000002f1780       0x78 drivers/built-in.o
                0x00000000002f1780                _u_boot_list_2_driver_2_mmc
 .u_boot_list_2_driver_2_mmc_blk
                0x00000000002f17f8       0x78 drivers/built-in.o
                0x00000000002f17f8                _u_boot_list_2_driver_2_mmc_blk
 .u_boot_list_2_driver_2_ns16550_serial
                0x00000000002f1870       0x78 drivers/serial/built-in.o
                0x00000000002f1870                _u_boot_list_2_driver_2_ns16550_serial
 .u_boot_list_2_driver_2_ohci_generic
                0x00000000002f18e8       0x78 drivers/usb/host/built-in.o
                0x00000000002f18e8                _u_boot_list_2_driver_2_ohci_generic
 .u_boot_list_2_driver_2_pinconfig_generic
                0x00000000002f1960       0x78 drivers/built-in.o
                0x00000000002f1960                _u_boot_list_2_driver_2_pinconfig_generic
 .u_boot_list_2_driver_2_pinctrl_rockchip
                0x00000000002f19d8       0x78 drivers/built-in.o
                0x00000000002f19d8                _u_boot_list_2_driver_2_pinctrl_rockchip
 .u_boot_list_2_driver_2_pmic_rk8xx
                0x00000000002f1a50       0x78 drivers/power/pmic/built-in.o
                0x00000000002f1a50                _u_boot_list_2_driver_2_pmic_rk8xx
 .u_boot_list_2_driver_2_psci
                0x00000000002f1ac8       0x78 drivers/built-in.o
                0x00000000002f1ac8                _u_boot_list_2_driver_2_psci
 .u_boot_list_2_driver_2_pwm_backlight
                0x00000000002f1b40       0x78 drivers/built-in.o
                0x00000000002f1b40                _u_boot_list_2_driver_2_pwm_backlight
 .u_boot_list_2_driver_2_pwm_regulator
                0x00000000002f1bb8       0x78 drivers/power/regulator/built-in.o
                0x00000000002f1bb8                _u_boot_list_2_driver_2_pwm_regulator
 .u_boot_list_2_driver_2_rk618
                0x00000000002f1c30       0x78 drivers/built-in.o
                0x00000000002f1c30                _u_boot_list_2_driver_2_rk618
 .u_boot_list_2_driver_2_rk618_dsi
                0x00000000002f1ca8       0x78 drivers/built-in.o
                0x00000000002f1ca8                _u_boot_list_2_driver_2_rk618_dsi
 .u_boot_list_2_driver_2_rk618_lvds
                0x00000000002f1d20       0x78 drivers/built-in.o
                0x00000000002f1d20                _u_boot_list_2_driver_2_rk618_lvds
 .u_boot_list_2_driver_2_rk817
                0x00000000002f1d98       0x78 drivers/built-in.o
                0x00000000002f1d98                _u_boot_list_2_driver_2_rk817
 .u_boot_list_2_driver_2_rk8xx_buck
                0x00000000002f1e10       0x78 drivers/power/regulator/built-in.o
                0x00000000002f1e10                _u_boot_list_2_driver_2_rk8xx_buck
 .u_boot_list_2_driver_2_rk8xx_ldo
                0x00000000002f1e88       0x78 drivers/power/regulator/built-in.o
                0x00000000002f1e88                _u_boot_list_2_driver_2_rk8xx_ldo
 .u_boot_list_2_driver_2_rk8xx_pwrkey
                0x00000000002f1f00       0x78 drivers/built-in.o
                0x00000000002f1f00                _u_boot_list_2_driver_2_rk8xx_pwrkey
 .u_boot_list_2_driver_2_rk8xx_switch
                0x00000000002f1f78       0x78 drivers/power/regulator/built-in.o
                0x00000000002f1f78                _u_boot_list_2_driver_2_rk8xx_switch
 .u_boot_list_2_driver_2_rk_pwm
                0x00000000002f1ff0       0x78 drivers/built-in.o
                0x00000000002f1ff0                _u_boot_list_2_driver_2_rk_pwm
 .u_boot_list_2_driver_2_rknand
                0x00000000002f2068       0x78 drivers/built-in.o
                0x00000000002f2068                _u_boot_list_2_driver_2_rknand
 .u_boot_list_2_driver_2_rknand_blk
                0x00000000002f20e0       0x78 drivers/built-in.o
                0x00000000002f20e0                _u_boot_list_2_driver_2_rknand_blk
 .u_boot_list_2_driver_2_rockchip_crypto_v2
                0x00000000002f2158       0x78 drivers/built-in.o
                0x00000000002f2158                _u_boot_list_2_driver_2_rockchip_crypto_v2
 .u_boot_list_2_driver_2_rockchip_display
                0x00000000002f21d0       0x78 drivers/built-in.o
                0x00000000002f21d0                _u_boot_list_2_driver_2_rockchip_display
 .u_boot_list_2_driver_2_rockchip_dwmmc_drv
                0x00000000002f2248       0x78 drivers/built-in.o
                0x00000000002f2248                _u_boot_list_2_driver_2_rockchip_dwmmc_drv
 .u_boot_list_2_driver_2_rockchip_i2s
                0x00000000002f22c0       0x78 drivers/built-in.o
                0x00000000002f22c0                _u_boot_list_2_driver_2_rockchip_i2s
 .u_boot_list_2_driver_2_rockchip_lvds
                0x00000000002f2338       0x78 drivers/built-in.o
                0x00000000002f2338                _u_boot_list_2_driver_2_rockchip_lvds
 .u_boot_list_2_driver_2_rockchip_panel
                0x00000000002f23b0       0x78 drivers/built-in.o
                0x00000000002f23b0                _u_boot_list_2_driver_2_rockchip_panel
 .u_boot_list_2_driver_2_rockchip_px30_cru
                0x00000000002f2428       0x78 drivers/built-in.o
                0x00000000002f2428                _u_boot_list_2_driver_2_rockchip_px30_cru
 .u_boot_list_2_driver_2_rockchip_px30_pmucru
                0x00000000002f24a0       0x78 drivers/built-in.o
                0x00000000002f24a0                _u_boot_list_2_driver_2_rockchip_px30_pmucru
 .u_boot_list_2_driver_2_rockchip_reset
                0x00000000002f2518       0x78 drivers/built-in.o
                0x00000000002f2518                _u_boot_list_2_driver_2_rockchip_reset
 .u_boot_list_2_driver_2_rockchip_rgb
                0x00000000002f2590       0x78 drivers/built-in.o
                0x00000000002f2590                _u_boot_list_2_driver_2_rockchip_rgb
 .u_boot_list_2_driver_2_rockchip_saradc
                0x00000000002f2608       0x78 drivers/built-in.o
                0x00000000002f2608                _u_boot_list_2_driver_2_rockchip_saradc
 .u_boot_list_2_driver_2_rockchip_thermal
                0x00000000002f2680       0x78 drivers/built-in.o
                0x00000000002f2680                _u_boot_list_2_driver_2_rockchip_thermal
 .u_boot_list_2_driver_2_rockchip_usb2phy
                0x00000000002f26f8       0x78 drivers/built-in.o
                0x00000000002f26f8                _u_boot_list_2_driver_2_rockchip_usb2phy
 .u_boot_list_2_driver_2_rockchip_usb2phy_port
                0x00000000002f2770       0x78 drivers/built-in.o
                0x00000000002f2770                _u_boot_list_2_driver_2_rockchip_usb2phy_port
 .u_boot_list_2_driver_2_rockchip_vop
                0x00000000002f27e8       0x78 drivers/built-in.o
                0x00000000002f27e8                _u_boot_list_2_driver_2_rockchip_vop
 .u_boot_list_2_driver_2_rockchip_vp
                0x00000000002f2860       0x78 drivers/built-in.o
                0x00000000002f2860                _u_boot_list_2_driver_2_rockchip_vp
 .u_boot_list_2_driver_2_rockchip_wide_temp_dvfs
                0x00000000002f28d8       0x78 drivers/power/dvfs/built-in.o
                0x00000000002f28d8                _u_boot_list_2_driver_2_rockchip_wide_temp_dvfs
 .u_boot_list_2_driver_2_root_driver
                0x00000000002f2950       0x78 drivers/built-in.o
                0x00000000002f2950                _u_boot_list_2_driver_2_root_driver
 .u_boot_list_2_driver_2_simple_bus_drv
                0x00000000002f29c8       0x78 drivers/built-in.o
                0x00000000002f29c8                _u_boot_list_2_driver_2_simple_bus_drv
 .u_boot_list_2_driver_2_simple_panel
                0x00000000002f2a40       0x78 drivers/built-in.o
                0x00000000002f2a40                _u_boot_list_2_driver_2_simple_panel
 .u_boot_list_2_driver_2_spi_generic_drv
                0x00000000002f2ab8       0x78 drivers/spi/built-in.o
                0x00000000002f2ab8                _u_boot_list_2_driver_2_spi_generic_drv
 .u_boot_list_2_driver_2_syscon_px30
                0x00000000002f2b30       0x78 arch/arm/mach-rockchip/built-in.o
                0x00000000002f2b30                _u_boot_list_2_driver_2_syscon_px30
 .u_boot_list_2_driver_2_sysreset_rockchip
                0x00000000002f2ba8       0x78 drivers/built-in.o
                0x00000000002f2ba8                _u_boot_list_2_driver_2_sysreset_rockchip
 .u_boot_list_2_driver_2_sysreset_syscon_reboot
                0x00000000002f2c20       0x78 drivers/built-in.o
                0x00000000002f2c20                _u_boot_list_2_driver_2_sysreset_syscon_reboot
 .u_boot_list_2_driver_2_usb_dev_generic_drv
                0x00000000002f2c98       0x78 drivers/usb/host/built-in.o
                0x00000000002f2c98                _u_boot_list_2_driver_2_usb_dev_generic_drv
 .u_boot_list_2_driver_2_usb_generic_hub
                0x00000000002f2d10       0x78 common/built-in.o
                0x00000000002f2d10                _u_boot_list_2_driver_2_usb_generic_hub
 .u_boot_list_2_driver_2_usb_mass_storage
                0x00000000002f2d88       0x78 common/built-in.o
                0x00000000002f2d88                _u_boot_list_2_driver_2_usb_mass_storage
 .u_boot_list_2_driver_2_usb_storage_blk
                0x00000000002f2e00       0x78 common/built-in.o
                0x00000000002f2e00                _u_boot_list_2_driver_2_usb_storage_blk
 .u_boot_list_2_driver_2_vidconsole_normal
                0x00000000002f2e78       0x78 drivers/built-in.o
                0x00000000002f2e78                _u_boot_list_2_driver_2_vidconsole_normal
 .u_boot_list_2_driver_3
                0x00000000002f2ef0        0x0 drivers/built-in.o
 .u_boot_list_2_driver_info_1
                0x00000000002f2ef0        0x0 drivers/built-in.o
 .u_boot_list_2_driver_info_3
                0x00000000002f2ef0        0x0 drivers/built-in.o
 .u_boot_list_2_env_clbk_1
                0x00000000002f2ef0        0x0 env/built-in.o
 .u_boot_list_2_env_clbk_2_bootfile
                0x00000000002f2ef0       0x10 net/built-in.o
                0x00000000002f2ef0                _u_boot_list_2_env_clbk_2_bootfile
 .u_boot_list_2_env_clbk_2_callbacks
                0x00000000002f2f00       0x10 env/built-in.o
                0x00000000002f2f00                _u_boot_list_2_env_clbk_2_callbacks
 .u_boot_list_2_env_clbk_2_console
                0x00000000002f2f10       0x10 common/built-in.o
                0x00000000002f2f10                _u_boot_list_2_env_clbk_2_console
 .u_boot_list_2_env_clbk_2_ethaddr
                0x00000000002f2f20       0x10 net/built-in.o
                0x00000000002f2f20                _u_boot_list_2_env_clbk_2_ethaddr
 .u_boot_list_2_env_clbk_2_flags
                0x00000000002f2f30       0x10 env/built-in.o
                0x00000000002f2f30                _u_boot_list_2_env_clbk_2_flags
 .u_boot_list_2_env_clbk_2_gatewayip
                0x00000000002f2f40       0x10 net/built-in.o
                0x00000000002f2f40                _u_boot_list_2_env_clbk_2_gatewayip
 .u_boot_list_2_env_clbk_2_ipaddr
                0x00000000002f2f50       0x10 net/built-in.o
                0x00000000002f2f50                _u_boot_list_2_env_clbk_2_ipaddr
 .u_boot_list_2_env_clbk_2_loadaddr
                0x00000000002f2f60       0x10 common/built-in.o
                0x00000000002f2f60                _u_boot_list_2_env_clbk_2_loadaddr
 .u_boot_list_2_env_clbk_2_netmask
                0x00000000002f2f70       0x10 net/built-in.o
                0x00000000002f2f70                _u_boot_list_2_env_clbk_2_netmask
 .u_boot_list_2_env_clbk_2_nvlan
                0x00000000002f2f80       0x10 net/built-in.o
                0x00000000002f2f80                _u_boot_list_2_env_clbk_2_nvlan
 .u_boot_list_2_env_clbk_2_serialno
                0x00000000002f2f90       0x10 drivers/usb/gadget/built-in.o
                0x00000000002f2f90                _u_boot_list_2_env_clbk_2_serialno
 .u_boot_list_2_env_clbk_2_serverip
                0x00000000002f2fa0       0x10 net/built-in.o
                0x00000000002f2fa0                _u_boot_list_2_env_clbk_2_serverip
 .u_boot_list_2_env_clbk_2_vlan
                0x00000000002f2fb0       0x10 net/built-in.o
                0x00000000002f2fb0                _u_boot_list_2_env_clbk_2_vlan
 .u_boot_list_2_env_clbk_3
                0x00000000002f2fc0        0x0 env/built-in.o
 .u_boot_list_2_env_driver_1
                0x00000000002f2fc0        0x0 env/built-in.o
 .u_boot_list_2_env_driver_2_nowhere
                0x00000000002f2fc0       0x30 env/built-in.o
                0x00000000002f2fc0                _u_boot_list_2_env_driver_2_nowhere
 .u_boot_list_2_env_driver_3
                0x00000000002f2ff0        0x0 env/built-in.o
 .u_boot_list_2_fit_loadable_1
                0x00000000002f2ff0        0x0 common/built-in.o
 .u_boot_list_2_fit_loadable_3
                0x00000000002f2ff0        0x0 common/built-in.o
 .u_boot_list_2_g_dnl_bind_callbacks_1
                0x00000000002f2ff0        0x0 drivers/usb/gadget/built-in.o
 .u_boot_list_2_g_dnl_bind_callbacks_2___usb_function_name_rkusb_ums_dnl
                0x00000000002f2ff0       0x10 drivers/usb/gadget/built-in.o
                0x00000000002f2ff0                _u_boot_list_2_g_dnl_bind_callbacks_2___usb_function_name_rkusb_ums_dnl
 .u_boot_list_2_g_dnl_bind_callbacks_2___usb_function_name_usb_dnl_fastboot
                0x00000000002f3000       0x10 drivers/usb/gadget/built-in.o
                0x00000000002f3000                _u_boot_list_2_g_dnl_bind_callbacks_2___usb_function_name_usb_dnl_fastboot
 .u_boot_list_2_g_dnl_bind_callbacks_2___usb_function_name_usb_dnl_ums
                0x00000000002f3010       0x10 drivers/usb/gadget/built-in.o
                0x00000000002f3010                _u_boot_list_2_g_dnl_bind_callbacks_2___usb_function_name_usb_dnl_ums
 .u_boot_list_2_part_driver_1
                0x00000000002f3020        0x0 disk/built-in.o
 .u_boot_list_2_part_driver_2_a_efi
                0x00000000002f3020       0x28 disk/built-in.o
                0x00000000002f3020                _u_boot_list_2_part_driver_2_a_efi
 .u_boot_list_2_part_driver_2_b_rkparm
                0x00000000002f3048       0x28 disk/built-in.o
                0x00000000002f3048                _u_boot_list_2_part_driver_2_b_rkparm
 .u_boot_list_2_part_driver_2_dos
                0x00000000002f3070       0x28 disk/built-in.o
                0x00000000002f3070                _u_boot_list_2_part_driver_2_dos
 .u_boot_list_2_part_driver_3
                0x00000000002f3098        0x0 disk/built-in.o
 .u_boot_list_2_pci_driver_entry_2_eth_designware
                0x00000000002f3098       0x10 drivers/net/built-in.o
                0x00000000002f3098                _u_boot_list_2_pci_driver_entry_2_eth_designware
 .u_boot_list_2_uclass_1
                0x00000000002f30a8        0x0 drivers/built-in.o
 .u_boot_list_2_uclass_2_adc
                0x00000000002f30a8       0x80 drivers/built-in.o
                0x00000000002f30a8                _u_boot_list_2_uclass_2_adc
 .u_boot_list_2_uclass_2_backlight
                0x00000000002f3128       0x80 drivers/built-in.o
                0x00000000002f3128                _u_boot_list_2_uclass_2_backlight
 .u_boot_list_2_uclass_2_blk
                0x00000000002f31a8       0x80 drivers/built-in.o
                0x00000000002f31a8                _u_boot_list_2_uclass_2_blk
 .u_boot_list_2_uclass_2_charge_display
                0x00000000002f3228       0x80 drivers/power/built-in.o
                0x00000000002f3228                _u_boot_list_2_uclass_2_charge_display
 .u_boot_list_2_uclass_2_clk
                0x00000000002f32a8       0x80 drivers/built-in.o
                0x00000000002f32a8                _u_boot_list_2_uclass_2_clk
 .u_boot_list_2_uclass_2_codec
                0x00000000002f3328       0x80 drivers/built-in.o
                0x00000000002f3328                _u_boot_list_2_uclass_2_codec
 .u_boot_list_2_uclass_2_crypto
                0x00000000002f33a8       0x80 drivers/built-in.o
                0x00000000002f33a8                _u_boot_list_2_uclass_2_crypto
 .u_boot_list_2_uclass_2_display
                0x00000000002f3428       0x80 drivers/built-in.o
                0x00000000002f3428                _u_boot_list_2_uclass_2_display
 .u_boot_list_2_uclass_2_dmc
                0x00000000002f34a8       0x80 drivers/built-in.o
                0x00000000002f34a8                _u_boot_list_2_uclass_2_dmc
 .u_boot_list_2_uclass_2_dvfs
                0x00000000002f3528       0x80 drivers/power/dvfs/built-in.o
                0x00000000002f3528                _u_boot_list_2_uclass_2_dvfs
 .u_boot_list_2_uclass_2_ethernet
                0x00000000002f35a8       0x80 net/built-in.o
                0x00000000002f35a8                _u_boot_list_2_uclass_2_ethernet
 .u_boot_list_2_uclass_2_firmware
                0x00000000002f3628       0x80 drivers/built-in.o
                0x00000000002f3628                _u_boot_list_2_uclass_2_firmware
 .u_boot_list_2_uclass_2_fuel_guage
                0x00000000002f36a8       0x80 drivers/power/fuel_gauge/built-in.o
                0x00000000002f36a8                _u_boot_list_2_uclass_2_fuel_guage
 .u_boot_list_2_uclass_2_gpio
                0x00000000002f3728       0x80 drivers/gpio/built-in.o
                0x00000000002f3728                _u_boot_list_2_uclass_2_gpio
 .u_boot_list_2_uclass_2_i2c
                0x00000000002f37a8       0x80 drivers/i2c/built-in.o
                0x00000000002f37a8                _u_boot_list_2_uclass_2_i2c
 .u_boot_list_2_uclass_2_i2c_generic
                0x00000000002f3828       0x80 drivers/i2c/built-in.o
                0x00000000002f3828                _u_boot_list_2_uclass_2_i2c_generic
 .u_boot_list_2_uclass_2_i2s
                0x00000000002f38a8       0x80 drivers/built-in.o
                0x00000000002f38a8                _u_boot_list_2_uclass_2_i2s
 .u_boot_list_2_uclass_2_io_domain
                0x00000000002f3928       0x80 drivers/power/io-domain/built-in.o
                0x00000000002f3928                _u_boot_list_2_uclass_2_io_domain
 .u_boot_list_2_uclass_2_key
                0x00000000002f39a8       0x80 drivers/built-in.o
                0x00000000002f39a8                _u_boot_list_2_uclass_2_key
 .u_boot_list_2_uclass_2_mmc
                0x00000000002f3a28       0x80 drivers/built-in.o
                0x00000000002f3a28                _u_boot_list_2_uclass_2_mmc
 .u_boot_list_2_uclass_2_nop
                0x00000000002f3aa8       0x80 drivers/built-in.o
                0x00000000002f3aa8                _u_boot_list_2_uclass_2_nop
 .u_boot_list_2_uclass_2_panel
                0x00000000002f3b28       0x80 drivers/built-in.o
                0x00000000002f3b28                _u_boot_list_2_uclass_2_panel
 .u_boot_list_2_uclass_2_phy
                0x00000000002f3ba8       0x80 drivers/built-in.o
                0x00000000002f3ba8                _u_boot_list_2_uclass_2_phy
 .u_boot_list_2_uclass_2_pinconfig
                0x00000000002f3c28       0x80 drivers/built-in.o
                0x00000000002f3c28                _u_boot_list_2_uclass_2_pinconfig
 .u_boot_list_2_uclass_2_pinctrl
                0x00000000002f3ca8       0x80 drivers/built-in.o
                0x00000000002f3ca8                _u_boot_list_2_uclass_2_pinctrl
 .u_boot_list_2_uclass_2_pmic
                0x00000000002f3d28       0x80 drivers/power/pmic/built-in.o
                0x00000000002f3d28                _u_boot_list_2_uclass_2_pmic
 .u_boot_list_2_uclass_2_pwm
                0x00000000002f3da8       0x80 drivers/built-in.o
                0x00000000002f3da8                _u_boot_list_2_uclass_2_pwm
 .u_boot_list_2_uclass_2_ram
                0x00000000002f3e28       0x80 drivers/built-in.o
                0x00000000002f3e28                _u_boot_list_2_uclass_2_ram
 .u_boot_list_2_uclass_2_regulator
                0x00000000002f3ea8       0x80 drivers/power/regulator/built-in.o
                0x00000000002f3ea8                _u_boot_list_2_uclass_2_regulator
 .u_boot_list_2_uclass_2_reset
                0x00000000002f3f28       0x80 drivers/built-in.o
                0x00000000002f3f28                _u_boot_list_2_uclass_2_reset
 .u_boot_list_2_uclass_2_rknand
                0x00000000002f3fa8       0x80 drivers/built-in.o
                0x00000000002f3fa8                _u_boot_list_2_uclass_2_rknand
 .u_boot_list_2_uclass_2_rockchip_crtc
                0x00000000002f4028       0x80 drivers/built-in.o
                0x00000000002f4028                _u_boot_list_2_uclass_2_rockchip_crtc
 .u_boot_list_2_uclass_2_root
                0x00000000002f40a8       0x80 drivers/built-in.o
                0x00000000002f40a8                _u_boot_list_2_uclass_2_root
 .u_boot_list_2_uclass_2_serial
                0x00000000002f4128       0x80 drivers/serial/built-in.o
                0x00000000002f4128                _u_boot_list_2_uclass_2_serial
 .u_boot_list_2_uclass_2_simple_bus
                0x00000000002f41a8       0x80 drivers/built-in.o
                0x00000000002f41a8                _u_boot_list_2_uclass_2_simple_bus
 .u_boot_list_2_uclass_2_spi
                0x00000000002f4228       0x80 drivers/spi/built-in.o
                0x00000000002f4228                _u_boot_list_2_uclass_2_spi
 .u_boot_list_2_uclass_2_spi_generic
                0x00000000002f42a8       0x80 drivers/spi/built-in.o
                0x00000000002f42a8                _u_boot_list_2_uclass_2_spi_generic
 .u_boot_list_2_uclass_2_spi_nor
                0x00000000002f4328       0x80 drivers/mtd/spi/built-in.o
                0x00000000002f4328                _u_boot_list_2_uclass_2_spi_nor
 .u_boot_list_2_uclass_2_syscon
                0x00000000002f43a8       0x80 drivers/built-in.o
                0x00000000002f43a8                _u_boot_list_2_uclass_2_syscon
 .u_boot_list_2_uclass_2_sysreset
                0x00000000002f4428       0x80 drivers/built-in.o
                0x00000000002f4428                _u_boot_list_2_uclass_2_sysreset
 .u_boot_list_2_uclass_2_thermal
                0x00000000002f44a8       0x80 drivers/built-in.o
                0x00000000002f44a8                _u_boot_list_2_uclass_2_thermal
 .u_boot_list_2_uclass_2_usb
                0x00000000002f4528       0x80 drivers/usb/host/built-in.o
                0x00000000002f4528                _u_boot_list_2_uclass_2_usb
 .u_boot_list_2_uclass_2_usb_dev_generic
                0x00000000002f45a8       0x80 drivers/usb/host/built-in.o
                0x00000000002f45a8                _u_boot_list_2_uclass_2_usb_dev_generic
 .u_boot_list_2_uclass_2_usb_gadget_generic
                0x00000000002f4628       0x80 drivers/usb/gadget/udc/built-in.o
                0x00000000002f4628                _u_boot_list_2_uclass_2_usb_gadget_generic
 .u_boot_list_2_uclass_2_usb_hub
                0x00000000002f46a8       0x80 common/built-in.o
                0x00000000002f46a8                _u_boot_list_2_uclass_2_usb_hub
 .u_boot_list_2_uclass_2_usb_mass_storage
                0x00000000002f4728       0x80 common/built-in.o
                0x00000000002f4728                _u_boot_list_2_uclass_2_usb_mass_storage
 .u_boot_list_2_uclass_2_vidconsole
                0x00000000002f47a8       0x80 drivers/built-in.o
                0x00000000002f47a8                _u_boot_list_2_uclass_2_vidconsole
 .u_boot_list_2_uclass_2_video
                0x00000000002f4828       0x80 drivers/built-in.o
                0x00000000002f4828                _u_boot_list_2_uclass_2_video
 .u_boot_list_2_uclass_2_video_bridge
                0x00000000002f48a8       0x80 drivers/built-in.o
                0x00000000002f48a8                _u_boot_list_2_uclass_2_video_bridge
 .u_boot_list_2_uclass_3
                0x00000000002f4928        0x0 drivers/built-in.o
 .u_boot_list_2_usb_driver_entry_1
                0x00000000002f4928        0x0 drivers/usb/host/built-in.o
 .u_boot_list_2_usb_driver_entry_2_usb_generic_hub
                0x00000000002f4928       0x10 common/built-in.o
                0x00000000002f4928                _u_boot_list_2_usb_driver_entry_2_usb_generic_hub
 .u_boot_list_2_usb_driver_entry_2_usb_mass_storage
                0x00000000002f4938       0x10 common/built-in.o
                0x00000000002f4938                _u_boot_list_2_usb_driver_entry_2_usb_mass_storage
 .u_boot_list_2_usb_driver_entry_3
                0x00000000002f4948        0x0 drivers/usb/host/built-in.o
                0x00000000002f4948                . = ALIGN (0x8)

.efi_runtime    0x00000000002f4948        0x0
                0x00000000002f4948                __efi_runtime_start = .
 *(efi_runtime_text)
 *(efi_runtime_data)
                0x00000000002f4948                __efi_runtime_stop = .

.efi_runtime_rel
                0x00000000002f4948        0x0
                0x00000000002f4948                __efi_runtime_rel_start = .
 *(.relaefi_runtime_text)
 *(.relaefi_runtime_data)
                0x00000000002f4948                __efi_runtime_rel_stop = .
                0x00000000002f4948                . = ALIGN (0x8)

.image_copy_end
                0x00000000002f4948        0x0
 *(.__image_copy_end)
 .__image_copy_end
                0x00000000002f4948        0x0 arch/arm/lib/built-in.o
                0x00000000002f4948                . = ALIGN (0x8)

.rel_dyn_start  0x00000000002f4948        0x0
 *(.__rel_dyn_start)
 .__rel_dyn_start
                0x00000000002f4948        0x0 arch/arm/lib/built-in.o

.rela.dyn       0x00000000002f4948    0x15f48
 *(.rela*)
 .rela.got      0x00000000002f4948        0x0 arch/arm/cpu/armv8/start.o
 .rela.plt      0x00000000002f4948        0x0 arch/arm/cpu/armv8/start.o
 .rela.bss      0x00000000002f4948        0x0 arch/arm/cpu/armv8/start.o
 .rela.data.rel.ro
                0x00000000002f4948        0x0 arch/arm/cpu/armv8/start.o
 .rela.ifunc    0x00000000002f4948        0x0 arch/arm/cpu/armv8/start.o
 .rela.text     0x00000000002f4948       0x30 arch/arm/cpu/armv8/start.o
 .rela.rodata   0x00000000002f4978      0x390 arch/arm/cpu/armv8/start.o
 .rela.rodata.plat_mem_attr
                0x00000000002f4d08      0x210 arch/arm/cpu/armv8/start.o
 .rela.rodata.px30_syscon_ids
                0x00000000002f4f18       0x48 arch/arm/cpu/armv8/start.o
 .rela.u_boot_list_2_cmd_2_iomem
                0x00000000002f4f60       0x60 arch/arm/cpu/armv8/start.o
 .rela.data.mem_attr
                0x00000000002f4fc0       0x18 arch/arm/cpu/armv8/start.o
 .rela.data.entry_head
                0x00000000002f4fd8       0x30 arch/arm/cpu/armv8/start.o
 .rela.u_boot_list_2_cmd_2_dump_resource
                0x00000000002f5008       0x60 arch/arm/cpu/armv8/start.o
 .rela.u_boot_list_2_driver_2_syscon_px30
                0x00000000002f5068       0x48 arch/arm/cpu/armv8/start.o
 .rela.data.mem_map
                0x00000000002f50b0       0x18 arch/arm/cpu/armv8/start.o
 .rela.rodata.desc_and_len_tbl
                0x00000000002f50c8       0x90 arch/arm/cpu/armv8/start.o
 .rela.rodata.reg_0_5_desc_tbl
                0x00000000002f5158       0x90 arch/arm/cpu/armv8/start.o
 .rela.rodata.reg_0_desc_tbl
                0x00000000002f51e8       0xf0 arch/arm/cpu/armv8/start.o
 .rela.rodata.reg_1_desc_tbl
                0x00000000002f52d8      0x180 arch/arm/cpu/armv8/start.o
 .rela.rodata.reg_2_desc_tbl
                0x00000000002f5458       0x18 arch/arm/cpu/armv8/start.o
 .rela.rodata.reg_3_desc_tbl
                0x00000000002f5470       0x48 arch/arm/cpu/armv8/start.o
 .rela.rodata.reg_4_desc_tbl
                0x00000000002f54b8      0x120 arch/arm/cpu/armv8/start.o
 .rela.rodata.reg_5_desc_tbl
                0x00000000002f55d8      0x120 arch/arm/cpu/armv8/start.o
 .rela.rodata.keywords
                0x00000000002f56f8      0x1b0 arch/arm/cpu/armv8/start.o
 .rela.rodata.op_adv
                0x00000000002f58a8      0x180 arch/arm/cpu/armv8/start.o
 .rela.rodata.CSWTCH.40
                0x00000000002f5a28       0x78 arch/arm/cpu/armv8/start.o
 .rela.u_boot_list_2_cmd_2_go
                0x00000000002f5aa0       0x60 arch/arm/cpu/armv8/start.o
 .rela.u_boot_list_2_cmd_2_rbrom
                0x00000000002f5b00       0x60 arch/arm/cpu/armv8/start.o
 .rela.u_boot_list_2_cmd_2_reboot
                0x00000000002f5b60       0x60 arch/arm/cpu/armv8/start.o
 .rela.u_boot_list_2_cmd_2_reset
                0x00000000002f5bc0       0x60 arch/arm/cpu/armv8/start.o
 .rela.data.cmd_bootm_sub
                0x00000000002f5c20      0x288 arch/arm/cpu/armv8/start.o
 .rela.u_boot_list_2_cmd_2_boot
                0x00000000002f5ea8       0x60 arch/arm/cpu/armv8/start.o
 .rela.u_boot_list_2_cmd_2_bootd
                0x00000000002f5f08       0x60 arch/arm/cpu/armv8/start.o
 .rela.u_boot_list_2_cmd_2_bootm
                0x00000000002f5f68       0x60 arch/arm/cpu/armv8/start.o
 .rela.u_boot_list_2_cmd_2_help
                0x00000000002f5fc8       0x60 arch/arm/cpu/armv8/start.o
 .rela.u_boot_list_2_cmd_2_question_mark
                0x00000000002f6028       0x60 arch/arm/cpu/armv8/start.o
 .rela.u_boot_list_2_cmd_2_version
                0x00000000002f6088       0x60 arch/arm/cpu/armv8/start.o
 .rela.u_boot_list_2_cmd_2_blk
                0x00000000002f60e8       0x60 arch/arm/cpu/armv8/start.o
 .rela.u_boot_list_2_cmd_2_source
                0x00000000002f6148       0x60 arch/arm/cpu/armv8/start.o
 .rela.u_boot_list_2_cmd_2_bdinfo
                0x00000000002f61a8       0x60 arch/arm/cpu/armv8/start.o
 .rela.data.cmd_avb
                0x00000000002f6208      0x3c0 arch/arm/cpu/armv8/start.o
 .rela.u_boot_list_2_cmd_2_boot_android
                0x00000000002f65c8       0x60 arch/arm/cpu/armv8/start.o
 .rela.u_boot_list_2_cmd_2_bootavb
                0x00000000002f6628       0x60 arch/arm/cpu/armv8/start.o
 .rela.u_boot_list_2_cmd_2_android_print_hdr
                0x00000000002f6688       0x60 arch/arm/cpu/armv8/start.o
 .rela.u_boot_list_2_cmd_2_bootrkp
                0x00000000002f66e8       0x60 arch/arm/cpu/armv8/start.o
 .rela.u_boot_list_2_cmd_2_booti
                0x00000000002f6748       0x60 arch/arm/cpu/armv8/start.o
 .rela.u_boot_list_2_cmd_2_coninfo
                0x00000000002f67a8       0x60 arch/arm/cpu/armv8/start.o
 .rela.u_boot_list_2_cmd_2_charge
                0x00000000002f6808       0x60 arch/arm/cpu/armv8/start.o
 .rela.u_boot_list_2_cmd_2_crypto_sum
                0x00000000002f6868       0x60 arch/arm/cpu/armv8/start.o
 .rela.data.cmd_dtimg_sub
                0x00000000002f68c8      0x120 arch/arm/cpu/armv8/start.o
 .rela.u_boot_list_2_cmd_2_dtimg
                0x00000000002f69e8       0x60 arch/arm/cpu/armv8/start.o
 .rela.u_boot_list_2_cmd_2_echo
                0x00000000002f6a48       0x60 arch/arm/cpu/armv8/start.o
 .rela.u_boot_list_2_cmd_2_exit
                0x00000000002f6aa8       0x60 arch/arm/cpu/armv8/start.o
 .rela.u_boot_list_2_cmd_2_ext4load
                0x00000000002f6b08       0x60 arch/arm/cpu/armv8/start.o
 .rela.u_boot_list_2_cmd_2_ext4ls
                0x00000000002f6b68       0x60 arch/arm/cpu/armv8/start.o
 .rela.u_boot_list_2_cmd_2_ext4size
                0x00000000002f6bc8       0x60 arch/arm/cpu/armv8/start.o
 .rela.u_boot_list_2_cmd_2_ext2load
                0x00000000002f6c28       0x60 arch/arm/cpu/armv8/start.o
 .rela.u_boot_list_2_cmd_2_ext2ls
                0x00000000002f6c88       0x60 arch/arm/cpu/armv8/start.o
 .rela.u_boot_list_2_cmd_2_fatinfo
                0x00000000002f6ce8       0x60 arch/arm/cpu/armv8/start.o
 .rela.u_boot_list_2_cmd_2_fatload
                0x00000000002f6d48       0x60 arch/arm/cpu/armv8/start.o
 .rela.u_boot_list_2_cmd_2_fatls
                0x00000000002f6da8       0x60 arch/arm/cpu/armv8/start.o
 .rela.u_boot_list_2_cmd_2_fatsize
                0x00000000002f6e08       0x60 arch/arm/cpu/armv8/start.o
 .rela.u_boot_list_2_cmd_2_fatwrite
                0x00000000002f6e68       0x60 arch/arm/cpu/armv8/start.o
 .rela.u_boot_list_2_cmd_2_fdt
                0x00000000002f6ec8       0x60 arch/arm/cpu/armv8/start.o
 .rela.u_boot_list_2_cmd_2_fstype
                0x00000000002f6f28       0x60 arch/arm/cpu/armv8/start.o
 .rela.u_boot_list_2_cmd_2_load
                0x00000000002f6f88       0x60 arch/arm/cpu/armv8/start.o
 .rela.u_boot_list_2_cmd_2_ls
                0x00000000002f6fe8       0x60 arch/arm/cpu/armv8/start.o
 .rela.u_boot_list_2_cmd_2_save
                0x00000000002f7048       0x60 arch/arm/cpu/armv8/start.o
 .rela.u_boot_list_2_cmd_2_size
                0x00000000002f70a8       0x60 arch/arm/cpu/armv8/start.o
 .rela.u_boot_list_2_cmd_2_download
                0x00000000002f7108       0x60 arch/arm/cpu/armv8/start.o
 .rela.u_boot_list_2_cmd_2_base
                0x00000000002f7168       0x60 arch/arm/cpu/armv8/start.o
 .rela.u_boot_list_2_cmd_2_cmp
                0x00000000002f71c8       0x60 arch/arm/cpu/armv8/start.o
 .rela.u_boot_list_2_cmd_2_cp
                0x00000000002f7228       0x60 arch/arm/cpu/armv8/start.o
 .rela.u_boot_list_2_cmd_2_crc32
                0x00000000002f7288       0x60 arch/arm/cpu/armv8/start.o
 .rela.u_boot_list_2_cmd_2_loop
                0x00000000002f72e8       0x60 arch/arm/cpu/armv8/start.o
 .rela.u_boot_list_2_cmd_2_md
                0x00000000002f7348       0x60 arch/arm/cpu/armv8/start.o
 .rela.u_boot_list_2_cmd_2_mm
                0x00000000002f73a8       0x60 arch/arm/cpu/armv8/start.o
 .rela.u_boot_list_2_cmd_2_mw
                0x00000000002f7408       0x60 arch/arm/cpu/armv8/start.o
 .rela.u_boot_list_2_cmd_2_nm
                0x00000000002f7468       0x60 arch/arm/cpu/armv8/start.o
 .rela.u_boot_list_2_cmd_2_mii
                0x00000000002f74c8       0x60 arch/arm/cpu/armv8/start.o
 .rela.u_boot_list_2_cmd_2_mdio
                0x00000000002f7528       0x60 arch/arm/cpu/armv8/start.o
 .rela.data.cmd_mmc
                0x00000000002f7588      0x4e0 arch/arm/cpu/armv8/start.o
 .rela.data.cmd_rpmb
                0x00000000002f7a68      0x180 arch/arm/cpu/armv8/start.o
 .rela.u_boot_list_2_cmd_2_mmc
                0x00000000002f7be8       0x60 arch/arm/cpu/armv8/start.o
 .rela.u_boot_list_2_cmd_2_mmcinfo
                0x00000000002f7c48       0x60 arch/arm/cpu/armv8/start.o
 .rela.u_boot_list_2_cmd_2_bootp
                0x00000000002f7ca8       0x60 arch/arm/cpu/armv8/start.o
 .rela.u_boot_list_2_cmd_2_dhcp
                0x00000000002f7d08       0x60 arch/arm/cpu/armv8/start.o
 .rela.u_boot_list_2_cmd_2_nfs
                0x00000000002f7d68       0x60 arch/arm/cpu/armv8/start.o
 .rela.u_boot_list_2_cmd_2_ping
                0x00000000002f7dc8       0x60 arch/arm/cpu/armv8/start.o
 .rela.u_boot_list_2_cmd_2_tftp
                0x00000000002f7e28       0x60 arch/arm/cpu/armv8/start.o
 .rela.u_boot_list_2_cmd_2_part
                0x00000000002f7e88       0x60 arch/arm/cpu/armv8/start.o
 .rela.data.cmd_pxe_sub
                0x00000000002f7ee8       0xc0 arch/arm/cpu/armv8/start.o
 .rela.data.pxe_default_paths
                0x00000000002f7fa8       0x48 arch/arm/cpu/armv8/start.o
 .rela.u_boot_list_2_cmd_2_pxe
                0x00000000002f7ff0       0x60 arch/arm/cpu/armv8/start.o
 .rela.u_boot_list_2_cmd_2_sysboot
                0x00000000002f8050       0x60 arch/arm/cpu/armv8/start.o
 .rela.u_boot_list_2_cmd_2_rockusb
                0x00000000002f80b0       0x60 arch/arm/cpu/armv8/start.o
 .rela.u_boot_list_2_cmd_2_rknand
                0x00000000002f8110       0x60 arch/arm/cpu/armv8/start.o
 .rela.u_boot_list_2_cmd_2_false
                0x00000000002f8170       0x48 arch/arm/cpu/armv8/start.o
 .rela.u_boot_list_2_cmd_2_test
                0x00000000002f81b8       0x60 arch/arm/cpu/armv8/start.o
 .rela.u_boot_list_2_cmd_2_true
                0x00000000002f8218       0x48 arch/arm/cpu/armv8/start.o
 .rela.u_boot_list_2_cmd_2_usb
                0x00000000002f8260       0x60 arch/arm/cpu/armv8/start.o
 .rela.u_boot_list_2_cmd_2_usbboot
                0x00000000002f82c0       0x60 arch/arm/cpu/armv8/start.o
 .rela.u_boot_list_2_cmd_2_fastboot
                0x00000000002f8320       0x60 arch/arm/cpu/armv8/start.o
 .rela.u_boot_list_2_cmd_2_ums
                0x00000000002f8380       0x60 arch/arm/cpu/armv8/start.o
 .rela.u_boot_list_2_cmd_2_gpt
                0x00000000002f83e0       0x60 arch/arm/cpu/armv8/start.o
 .rela.u_boot_list_2_cmd_2_dvfs
                0x00000000002f8440       0x60 arch/arm/cpu/armv8/start.o
 .rela.u_boot_list_2_cmd_2_rkimgtest
                0x00000000002f84a0       0x60 arch/arm/cpu/armv8/start.o
 .rela.u_boot_list_2_cmd_2_atags
                0x00000000002f8500       0x60 arch/arm/cpu/armv8/start.o
 .rela.data.cmd_env_sub
                0x00000000002f8560      0x420 arch/arm/cpu/armv8/start.o
 .rela.u_boot_list_2_cmd_2_editenv
                0x00000000002f8980       0x78 arch/arm/cpu/armv8/start.o
 .rela.u_boot_list_2_cmd_2_env
                0x00000000002f89f8       0x60 arch/arm/cpu/armv8/start.o
 .rela.u_boot_list_2_cmd_2_printenv
                0x00000000002f8a58       0x78 arch/arm/cpu/armv8/start.o
 .rela.u_boot_list_2_cmd_2_run
                0x00000000002f8ad0       0x78 arch/arm/cpu/armv8/start.o
 .rela.u_boot_list_2_cmd_2_saveenv
                0x00000000002f8b48       0x60 arch/arm/cpu/armv8/start.o
 .rela.u_boot_list_2_cmd_2_setenv
                0x00000000002f8ba8       0x78 arch/arm/cpu/armv8/start.o
 .rela.rodata.init_sequence_f
                0x00000000002f8c20      0x3f0 arch/arm/cpu/armv8/start.o
 .rela.rodata.boot_os
                0x00000000002f9010       0x90 arch/arm/cpu/armv8/start.o
 .rela.rodata.usb_hub_ids
                0x00000000002f90a0       0x18 arch/arm/cpu/armv8/start.o
 .rela.rodata.usb_mass_storage_ids
                0x00000000002f90b8       0x18 arch/arm/cpu/armv8/start.o
 .rela.rodata.usb_storage_ops
                0x00000000002f90d0       0x30 arch/arm/cpu/armv8/start.o
 .rela.rodata.uimage_arch
                0x00000000002f9100      0x510 arch/arm/cpu/armv8/start.o
 .rela.rodata.uimage_comp
                0x00000000002f9610      0x150 arch/arm/cpu/armv8/start.o
 .rela.rodata.uimage_os
                0x00000000002f9760      0x210 arch/arm/cpu/armv8/start.o
 .rela.rodata.uimage_type
                0x00000000002f9970      0x660 arch/arm/cpu/armv8/start.o
 .rela.rodata.CSWTCH.88
                0x00000000002f9fd0       0x48 arch/arm/cpu/armv8/start.o
 .rela.rodata.CSWTCH.192
                0x00000000002fa018      0x2a0 arch/arm/cpu/armv8/start.o
 .rela.data.reserved_list
                0x00000000002fa2b8      0x108 arch/arm/cpu/armv8/start.o
 .rela.u_boot_list_2_cmd_2_showvar
                0x00000000002fa3c0       0x60 arch/arm/cpu/armv8/start.o
 .rela.data.init_sequence_r
                0x00000000002fa420      0x348 arch/arm/cpu/armv8/start.o
 .rela.data.of_busses
                0x00000000002fa768      0x108 arch/arm/cpu/armv8/start.o
 .rela.data.usb_scan_list
                0x00000000002fa870       0x30 arch/arm/cpu/armv8/start.o
 .rela.u_boot_list_2_driver_2_usb_generic_hub
                0x00000000002fa8a0       0x30 arch/arm/cpu/armv8/start.o
 .rela.u_boot_list_2_uclass_2_usb_hub
                0x00000000002fa8d0       0x60 arch/arm/cpu/armv8/start.o
 .rela.u_boot_list_2_usb_driver_entry_2_usb_generic_hub
                0x00000000002fa930       0x30 arch/arm/cpu/armv8/start.o
 .rela.u_boot_list_2_driver_2_usb_mass_storage
                0x00000000002fa960       0x48 arch/arm/cpu/armv8/start.o
 .rela.u_boot_list_2_driver_2_usb_storage_blk
                0x00000000002fa9a8       0x30 arch/arm/cpu/armv8/start.o
 .rela.u_boot_list_2_uclass_2_usb_mass_storage
                0x00000000002fa9d8       0x18 arch/arm/cpu/armv8/start.o
 .rela.u_boot_list_2_usb_driver_entry_2_usb_mass_storage
                0x00000000002fa9f0       0x30 arch/arm/cpu/armv8/start.o
 .rela.u_boot_list_2_env_clbk_2_console
                0x00000000002faa20       0x30 arch/arm/cpu/armv8/start.o
 .rela.data.av_
                0x00000000002faa50     0x1800 arch/arm/cpu/armv8/start.o
 .rela.u_boot_list_2_env_clbk_2_loadaddr
                0x00000000002fc250       0x30 arch/arm/cpu/armv8/start.o
 .rela.data.stdio_names
                0x00000000002fc280       0x48 arch/arm/cpu/armv8/start.o
 .rela.rodata.CSWTCH.29
                0x00000000002fc2c8       0xc0 arch/arm/cpu/armv8/start.o
 .rela.u_boot_list_2_part_driver_2_dos
                0x00000000002fc388       0x60 arch/arm/cpu/armv8/start.o
 .rela.u_boot_list_2_part_driver_2_a_efi
                0x00000000002fc3e8       0x60 arch/arm/cpu/armv8/start.o
 .rela.data.parts_head
                0x00000000002fc448       0x30 arch/arm/cpu/armv8/start.o
 .rela.u_boot_list_2_part_driver_2_b_rkparm
                0x00000000002fc478       0x60 arch/arm/cpu/armv8/start.o
 .rela.rodata.clk_fixed_rate_match
                0x00000000002fc4d8       0x18 arch/arm/cpu/armv8/start.o
 .rela.rodata.clk_fixed_rate_ops
                0x00000000002fc4f0       0x18 arch/arm/cpu/armv8/start.o
 .rela.rodata.clks_dump
                0x00000000002fc508      0x108 arch/arm/cpu/armv8/start.o
 .rela.rodata.px30_clk_ids
                0x00000000002fc610       0x18 arch/arm/cpu/armv8/start.o
 .rela.rodata.px30_pmuclk_ids
                0x00000000002fc628       0x18 arch/arm/cpu/armv8/start.o
 .rela.rodata.root_info
                0x00000000002fc640       0x18 arch/arm/cpu/armv8/start.o
 .rela.rodata.generic_simple_bus_ids
                0x00000000002fc658       0x30 arch/arm/cpu/armv8/start.o
 .rela.rodata.generic_syscon_ids
                0x00000000002fc688       0x18 arch/arm/cpu/armv8/start.o
 .rela.rodata.rockchip_crypto_ids
                0x00000000002fc6a0      0x180 arch/arm/cpu/armv8/start.o
 .rela.rodata.rockchip_crypto_ops
                0x00000000002fc820       0x78 arch/arm/cpu/armv8/start.o
 .rela.rodata.soc_data_cryptov3
                0x00000000002fc898       0x18 arch/arm/cpu/armv8/start.o
 .rela.rodata.adc_key_bus_match
                0x00000000002fc8b0       0x18 arch/arm/cpu/armv8/start.o
 .rela.rodata.px30_pin_ctrl
                0x00000000002fc8c8       0xa8 arch/arm/cpu/armv8/start.o
 .rela.rodata.rk1808_pin_ctrl
                0x00000000002fc970       0x90 arch/arm/cpu/armv8/start.o
 .rela.rodata.rk2928_pin_ctrl
                0x00000000002fca00       0x48 arch/arm/cpu/armv8/start.o
 .rela.rodata.rk3036_pin_ctrl
                0x00000000002fca48       0x48 arch/arm/cpu/armv8/start.o
 .rela.rodata.rk3066a_pin_ctrl
                0x00000000002fca90       0x48 arch/arm/cpu/armv8/start.o
 .rela.rodata.rk3066b_pin_ctrl
                0x00000000002fcad8       0x30 arch/arm/cpu/armv8/start.o
 .rela.rodata.rk3128_pin_ctrl
                0x00000000002fcb08       0x78 arch/arm/cpu/armv8/start.o
 .rela.rodata.rk3188_pin_ctrl
                0x00000000002fcb80       0x48 arch/arm/cpu/armv8/start.o
 .rela.rodata.rk3228_pin_ctrl
                0x00000000002fcbc8       0x78 arch/arm/cpu/armv8/start.o
 .rela.rodata.rk3288_pin_ctrl
                0x00000000002fcc40       0x78 arch/arm/cpu/armv8/start.o
 .rela.rodata.rk3328_pin_ctrl
                0x00000000002fccb8       0xa8 arch/arm/cpu/armv8/start.o
 .rela.rodata.rk3368_pin_ctrl
                0x00000000002fcd60       0x60 arch/arm/cpu/armv8/start.o
 .rela.rodata.rk3399_pin_ctrl
                0x00000000002fcdc0       0x78 arch/arm/cpu/armv8/start.o
 .rela.rodata.rockchip_conf_params
                0x00000000002fce38      0x1b0 arch/arm/cpu/armv8/start.o
 .rela.rodata.rockchip_pinctrl_dt_match
                0x00000000002fcfe8      0x300 arch/arm/cpu/armv8/start.o
 .rela.rodata.rv1108_pin_ctrl
                0x00000000002fd2e8       0x90 arch/arm/cpu/armv8/start.o
 .rela.rodata.rv1126_pin_ctrl
                0x00000000002fd378       0xa8 arch/arm/cpu/armv8/start.o
 .rela.rodata.dmc_ids
                0x00000000002fd420       0x18 arch/arm/cpu/armv8/start.o
 .rela.rodata.rockchip_dmc_fsp_ids
                0x00000000002fd438       0x30 arch/arm/cpu/armv8/start.o
 .rela.rodata.rockchip_saradc_ids
                0x00000000002fd468       0x90 arch/arm/cpu/armv8/start.o
 .rela.rodata.rockchip_saradc_ops
                0x00000000002fd4f8       0x48 arch/arm/cpu/armv8/start.o
 .rela.rodata.if_typename_str
                0x00000000002fd540      0x180 arch/arm/cpu/armv8/start.o
 .rela.rodata.psci_of_match
                0x00000000002fd6c0       0x48 arch/arm/cpu/armv8/start.o
 .rela.rodata.mmc_blk_ops
                0x00000000002fd708       0x60 arch/arm/cpu/armv8/start.o
 .rela.rodata.dm_dwmci_ops
                0x00000000002fd768       0x78 arch/arm/cpu/armv8/start.o
 .rela.rodata.rockchip_dwmmc_ids
                0x00000000002fd7e0       0x30 arch/arm/cpu/armv8/start.o
 .rela.rodata.rpmb_err_msg
                0x00000000002fd810       0xc0 arch/arm/cpu/armv8/start.o
 .rela.rodata.rknand_blk_ops
                0x00000000002fd8d0       0x48 arch/arm/cpu/armv8/start.o
 .rela.rodata.rockchip_nand_ids
                0x00000000002fd918       0x18 arch/arm/cpu/armv8/start.o
 .rela.rodata.rockchip_i2s_ids
                0x00000000002fd930       0xd8 arch/arm/cpu/armv8/start.o
 .rela.rodata.rockchip_i2s_ops
                0x00000000002fda08       0x48 arch/arm/cpu/armv8/start.o
 .rela.rodata.rk817_codec_ids
                0x00000000002fda50       0x18 arch/arm/cpu/armv8/start.o
 .rela.rodata.rk817_codec_ops
                0x00000000002fda68       0x30 arch/arm/cpu/armv8/start.o
 .rela.rodata.syscon_reboot_match
                0x00000000002fda98       0x18 arch/arm/cpu/armv8/start.o
 .rela.rodata.syscon_reboot_ops
                0x00000000002fdab0       0x18 arch/arm/cpu/armv8/start.o
 .rela.rodata.simple_panel_ids
                0x00000000002fdac8       0x60 arch/arm/cpu/armv8/start.o
 .rela.rodata.simple_panel_ops
                0x00000000002fdb28       0x18 arch/arm/cpu/armv8/start.o
 .rela.rodata.pwm_backlight_ids
                0x00000000002fdb40       0x18 arch/arm/cpu/armv8/start.o
 .rela.rodata.pwm_backlight_ops
                0x00000000002fdb58       0x30 arch/arm/cpu/armv8/start.o
 .rela.rodata.rockchip_display_ids
                0x00000000002fdb88       0x18 arch/arm/cpu/armv8/start.o
 .rela.rodata.px30_vop_big_data
                0x00000000002fdba0       0x30 arch/arm/cpu/armv8/start.o
 .rela.rodata.px30_vop_lit_data
                0x00000000002fdbd0       0x30 arch/arm/cpu/armv8/start.o
 .rela.rodata.rk1808_vop_data
                0x00000000002fdc00       0x30 arch/arm/cpu/armv8/start.o
 .rela.rodata.rk3036_vop_data
                0x00000000002fdc30       0x30 arch/arm/cpu/armv8/start.o
 .rela.rodata.rk322x_vop_data
                0x00000000002fdc60       0x30 arch/arm/cpu/armv8/start.o
 .rela.rodata.rk3288_vop_big_data
                0x00000000002fdc90       0x30 arch/arm/cpu/armv8/start.o
 .rela.rodata.rk3288_vop_lit_data
                0x00000000002fdcc0       0x30 arch/arm/cpu/armv8/start.o
 .rela.rodata.rk3308_vop_data
                0x00000000002fdcf0       0x30 arch/arm/cpu/armv8/start.o
 .rela.rodata.rk3328_vop_data
                0x00000000002fdd20       0x30 arch/arm/cpu/armv8/start.o
 .rela.rodata.rk3366_vop_data
                0x00000000002fdd50       0x30 arch/arm/cpu/armv8/start.o
 .rela.rodata.rk3368_vop_data
                0x00000000002fdd80       0x30 arch/arm/cpu/armv8/start.o
 .rela.rodata.rk3399_vop_big_data
                0x00000000002fddb0       0x30 arch/arm/cpu/armv8/start.o
 .rela.rodata.rk3399_vop_lit_data
                0x00000000002fdde0       0x30 arch/arm/cpu/armv8/start.o
 .rela.rodata.rk3528_vop_data
                0x00000000002fde10       0x30 arch/arm/cpu/armv8/start.o
 .rela.rodata.rk3562_vop_data
                0x00000000002fde40       0x30 arch/arm/cpu/armv8/start.o
 .rela.rodata.rk3568_vop_data
                0x00000000002fde70       0x30 arch/arm/cpu/armv8/start.o
 .rela.rodata.rk3588_vop_data
                0x00000000002fdea0       0x30 arch/arm/cpu/armv8/start.o
 .rela.rodata.rockchip_vop_ids
                0x00000000002fded0      0x3f0 arch/arm/cpu/armv8/start.o
 .rela.rodata.rockchip_vp_ids
                0x00000000002fe2c0       0x18 arch/arm/cpu/armv8/start.o
 .rela.rodata.rv1106_vop_data
                0x00000000002fe2d8       0x30 arch/arm/cpu/armv8/start.o
 .rela.rodata.rv1108_vop_data
                0x00000000002fe308       0x30 arch/arm/cpu/armv8/start.o
 .rela.rodata.rv1126_vop_data
                0x00000000002fe338       0x30 arch/arm/cpu/armv8/start.o
 .rela.rodata.rockchip_vop_funcs
                0x00000000002fe368       0xf0 arch/arm/cpu/armv8/start.o
 .rela.rodata.px30_vop_big
                0x00000000002fe458       0x60 arch/arm/cpu/armv8/start.o
 .rela.rodata.px30_vop_lit
                0x00000000002fe4b8       0x60 arch/arm/cpu/armv8/start.o
 .rela.rodata.rk1808_vop
                0x00000000002fe518       0x60 arch/arm/cpu/armv8/start.o
 .rela.rodata.rk3036_vop
                0x00000000002fe578       0x48 arch/arm/cpu/armv8/start.o
 .rela.rodata.rk322x_vop
                0x00000000002fe5c0       0x48 arch/arm/cpu/armv8/start.o
 .rela.rodata.rk3288_vop_big
                0x00000000002fe608       0x60 arch/arm/cpu/armv8/start.o
 .rela.rodata.rk3288_vop_lit
                0x00000000002fe668       0x60 arch/arm/cpu/armv8/start.o
 .rela.rodata.rk3288_win01_data
                0x00000000002fe6c8       0x18 arch/arm/cpu/armv8/start.o
 .rela.rodata.rk3288_win_full_scl
                0x00000000002fe6e0       0x18 arch/arm/cpu/armv8/start.o
 .rela.rodata.rk3308_vop
                0x00000000002fe6f8       0x48 arch/arm/cpu/armv8/start.o
 .rela.rodata.rk3328_vop
                0x00000000002fe740       0x48 arch/arm/cpu/armv8/start.o
 .rela.rodata.rk3366_vop
                0x00000000002fe788       0x48 arch/arm/cpu/armv8/start.o
 .rela.rodata.rk3366_win0_data
                0x00000000002fe7d0       0x18 arch/arm/cpu/armv8/start.o
 .rela.rodata.rk3368_vop
                0x00000000002fe7e8       0x60 arch/arm/cpu/armv8/start.o
 .rela.rodata.rk3399_csc_table
                0x00000000002fe848       0x60 arch/arm/cpu/armv8/start.o
 .rela.rodata.rk3399_vop_big
                0x00000000002fe8a8       0x78 arch/arm/cpu/armv8/start.o
 .rela.rodata.rk3399_vop_lit
                0x00000000002fe920       0x78 arch/arm/cpu/armv8/start.o
 .rela.rodata.rv1106_vop
                0x00000000002fe998       0x60 arch/arm/cpu/armv8/start.o
 .rela.rodata.rv1108_vop
                0x00000000002fe9f8       0x48 arch/arm/cpu/armv8/start.o
 .rela.rodata.rv1126_vop
                0x00000000002fea40       0x60 arch/arm/cpu/armv8/start.o
 .rela.rodata.rk3528_vop
                0x00000000002feaa0       0x90 arch/arm/cpu/armv8/start.o
 .rela.rodata.rk3562_vop
                0x00000000002feb30       0x90 arch/arm/cpu/armv8/start.o
 .rela.rodata.rk3568_vop
                0x00000000002febc0       0x90 arch/arm/cpu/armv8/start.o
 .rela.rodata.rk3588_vop
                0x00000000002fec50       0xf0 arch/arm/cpu/armv8/start.o
 .rela.rodata.rockchip_vop2_funcs
                0x00000000002fed40      0x138 arch/arm/cpu/armv8/start.o
 .rela.rodata.g_mode_csc_coef
                0x00000000002fee78      0x930 arch/arm/cpu/armv8/start.o
 .rela.rodata.dw_mipi_dsi_connector_funcs
                0x00000000002ff7a8       0x78 arch/arm/cpu/armv8/start.o
 .rela.rodata.dw_mipi_dsi_host_ops
                0x00000000002ff820       0x30 arch/arm/cpu/armv8/start.o
 .rela.rodata.dw_mipi_dsi_ids
                0x00000000002ff850      0x210 arch/arm/cpu/armv8/start.o
 .rela.rodata.px30_mipi_dsi_plat_data
                0x00000000002ffa60       0x18 arch/arm/cpu/armv8/start.o
 .rela.rodata.rk1808_mipi_dsi_plat_data
                0x00000000002ffa78       0x18 arch/arm/cpu/armv8/start.o
 .rela.rodata.rk3128_mipi_dsi_plat_data
                0x00000000002ffa90       0x18 arch/arm/cpu/armv8/start.o
 .rela.rodata.rk3288_mipi_dsi_plat_data
                0x00000000002ffaa8       0x30 arch/arm/cpu/armv8/start.o
 .rela.rodata.rk3366_mipi_dsi_plat_data
                0x00000000002ffad8       0x18 arch/arm/cpu/armv8/start.o
 .rela.rodata.rk3368_mipi_dsi_plat_data
                0x00000000002ffaf0       0x18 arch/arm/cpu/armv8/start.o
 .rela.rodata.rk3399_mipi_dsi_plat_data
                0x00000000002ffb08       0x30 arch/arm/cpu/armv8/start.o
 .rela.rodata.rk3562_mipi_dsi_plat_data
                0x00000000002ffb38       0x18 arch/arm/cpu/armv8/start.o
 .rela.rodata.rk3568_mipi_dsi_plat_data
                0x00000000002ffb50       0x30 arch/arm/cpu/armv8/start.o
 .rela.rodata.rv1108_mipi_dsi_plat_data
                0x00000000002ffb80       0x18 arch/arm/cpu/armv8/start.o
 .rela.rodata.rv1126_mipi_dsi_plat_data
                0x00000000002ffb98       0x18 arch/arm/cpu/armv8/start.o
 .rela.rodata.inno_video_mipi_dphy_max_1GHz
                0x00000000002ffbb0       0x18 arch/arm/cpu/armv8/start.o
 .rela.rodata.inno_video_mipi_dphy_max_2_5GHz
                0x00000000002ffbc8       0x18 arch/arm/cpu/armv8/start.o
 .rela.rodata.inno_video_phy_funcs
                0x00000000002ffbe0       0x60 arch/arm/cpu/armv8/start.o
 .rela.rodata.inno_video_phy_ids
                0x00000000002ffc40       0xf0 arch/arm/cpu/armv8/start.o
 .rela.rodata.px30_lvds_funcs
                0x00000000002ffd30       0x30 arch/arm/cpu/armv8/start.o
 .rela.rodata.rk3126_lvds_funcs
                0x00000000002ffd60       0x30 arch/arm/cpu/armv8/start.o
 .rela.rodata.rk3288_lvds_funcs
                0x00000000002ffd90       0x30 arch/arm/cpu/armv8/start.o
 .rela.rodata.rk3368_lvds_funcs
                0x00000000002ffdc0       0x30 arch/arm/cpu/armv8/start.o
 .rela.rodata.rk3562_lvds_funcs
                0x00000000002ffdf0       0x30 arch/arm/cpu/armv8/start.o
 .rela.rodata.rk3568_lvds_funcs
                0x00000000002ffe20       0x30 arch/arm/cpu/armv8/start.o
 .rela.rodata.rockchip_lvds_connector_funcs
                0x00000000002ffe50       0x48 arch/arm/cpu/armv8/start.o
 .rela.rodata.rockchip_lvds_ids
                0x00000000002ffe98      0x120 arch/arm/cpu/armv8/start.o
 .rela.rodata.px30_rgb_funcs
                0x00000000002fffb8       0x18 arch/arm/cpu/armv8/start.o
 .rela.rodata.rk1808_rgb_funcs
                0x00000000002fffd0       0x18 arch/arm/cpu/armv8/start.o
 .rela.rodata.rk3288_rgb_funcs
                0x00000000002fffe8       0x30 arch/arm/cpu/armv8/start.o
 .rela.rodata.rk3368_rgb_funcs
                0x0000000000300018       0x18 arch/arm/cpu/armv8/start.o
 .rela.rodata.rk3562_rgb_funcs
                0x0000000000300030       0x18 arch/arm/cpu/armv8/start.o
 .rela.rodata.rk3568_rgb_funcs
                0x0000000000300048       0x18 arch/arm/cpu/armv8/start.o
 .rela.rodata.rockchip_mcu_panel_funcs
                0x0000000000300060       0x60 arch/arm/cpu/armv8/start.o
 .rela.rodata.rockchip_rgb_connector_funcs
                0x00000000003000c0       0x48 arch/arm/cpu/armv8/start.o
 .rela.rodata.rockchip_rgb_ids
                0x0000000000300108      0x1e0 arch/arm/cpu/armv8/start.o
 .rela.rodata.rv1106_rgb_funcs
                0x00000000003002e8       0x18 arch/arm/cpu/armv8/start.o
 .rela.rodata.rv1126_rgb_funcs
                0x0000000000300300       0x18 arch/arm/cpu/armv8/start.o
 .rela.rodata.rockchip_panel_funcs
                0x0000000000300318       0x60 arch/arm/cpu/armv8/start.o
 .rela.rodata.rockchip_panel_ids
                0x0000000000300378       0x30 arch/arm/cpu/armv8/start.o
 .rela.rodata.rk618_of_match
                0x00000000003003a8       0x18 arch/arm/cpu/armv8/start.o
 .rela.rodata.rk618_lvds_bridge_funcs
                0x00000000003003c0       0x30 arch/arm/cpu/armv8/start.o
 .rela.rodata.rk618_lvds_ids
                0x00000000003003f0       0x30 arch/arm/cpu/armv8/start.o
 .rela.rodata.rk618_dsi_bridge_funcs
                0x0000000000300420       0x78 arch/arm/cpu/armv8/start.o
 .rela.rodata.rk618_dsi_host_ops
                0x0000000000300498       0x30 arch/arm/cpu/armv8/start.o
 .rela.rodata.rk618_dsi_ids
                0x00000000003004c8       0x30 arch/arm/cpu/armv8/start.o
 .rela.rodata.anx6345_bridge_funcs
                0x00000000003004f8       0x18 arch/arm/cpu/armv8/start.o
 .rela.rodata.anx6345_ids
                0x0000000000300510       0x30 arch/arm/cpu/armv8/start.o
 .rela.rodata.anx6345_ops
                0x0000000000300540       0x48 arch/arm/cpu/armv8/start.o
 .rela.rodata.rk_pwm_ids
                0x0000000000300588       0xf0 arch/arm/cpu/armv8/start.o
 .rela.rodata.rk_pwm_ops
                0x0000000000300678       0x48 arch/arm/cpu/armv8/start.o
 .rela.rodata.px30_tsadc_data
                0x00000000003006c0       0xc0 arch/arm/cpu/armv8/start.o
 .rela.rodata.px30s_tsadc_data
                0x0000000000300780       0xa8 arch/arm/cpu/armv8/start.o
 .rela.rodata.rk1808_tsadc_data
                0x0000000000300828       0xc0 arch/arm/cpu/armv8/start.o
 .rela.rodata.rk3228_tsadc_data
                0x00000000003008e8       0xc0 arch/arm/cpu/armv8/start.o
 .rela.rodata.rk3288_tsadc_data
                0x00000000003009a8       0xc0 arch/arm/cpu/armv8/start.o
 .rela.rodata.rk3308_tsadc_data
                0x0000000000300a68       0xc0 arch/arm/cpu/armv8/start.o
 .rela.rodata.rk3308bs_tsadc_data
                0x0000000000300b28       0xa8 arch/arm/cpu/armv8/start.o
 .rela.rodata.rk3328_tsadc_data
                0x0000000000300bd0       0xc0 arch/arm/cpu/armv8/start.o
 .rela.rodata.rk3366_tsadc_data
                0x0000000000300c90       0xc0 arch/arm/cpu/armv8/start.o
 .rela.rodata.rk3368_tsadc_data
                0x0000000000300d50       0xc0 arch/arm/cpu/armv8/start.o
 .rela.rodata.rk3399_tsadc_data
                0x0000000000300e10       0xc0 arch/arm/cpu/armv8/start.o
 .rela.rodata.rk3528_tsadc_data
                0x0000000000300ed0       0xc0 arch/arm/cpu/armv8/start.o
 .rela.rodata.rk3562_tsadc_data
                0x0000000000300f90       0xc0 arch/arm/cpu/armv8/start.o
 .rela.rodata.rk3568_tsadc_data
                0x0000000000301050       0xc0 arch/arm/cpu/armv8/start.o
 .rela.rodata.rk3588_tsadc_data
                0x0000000000301110       0xc0 arch/arm/cpu/armv8/start.o
 .rela.rodata.rockchip_thermal_match
                0x00000000003011d0      0x2d0 arch/arm/cpu/armv8/start.o
 .rela.rodata.rockchip_thermal_ops
                0x00000000003014a0       0x18 arch/arm/cpu/armv8/start.o
 .rela.u_boot_list_2_uclass_2_clk
                0x00000000003014b8       0x18 arch/arm/cpu/armv8/start.o
 .rela.u_boot_list_2_driver_2_clk_fixed_rate
                0x00000000003014d0       0x60 arch/arm/cpu/armv8/start.o
 .rela.data.px30_clk_ops
                0x0000000000301530       0x78 arch/arm/cpu/armv8/start.o
 .rela.data.px30_pmuclk_ops
                0x00000000003015a8       0x30 arch/arm/cpu/armv8/start.o
 .rela.u_boot_list_2_driver_2_rockchip_px30_cru
                0x00000000003015d8       0x90 arch/arm/cpu/armv8/start.o
 .rela.u_boot_list_2_driver_2_rockchip_px30_pmucru
                0x0000000000301668       0x78 arch/arm/cpu/armv8/start.o
 .rela.u_boot_list_2_driver_2_root_driver
                0x00000000003016e0       0x18 arch/arm/cpu/armv8/start.o
 .rela.u_boot_list_2_uclass_2_root
                0x00000000003016f8       0x18 arch/arm/cpu/armv8/start.o
 .rela.u_boot_list_2_uclass_2_nop
                0x0000000000301710       0x18 arch/arm/cpu/armv8/start.o
 .rela.u_boot_list_2_driver_2_simple_bus_drv
                0x0000000000301728       0x30 arch/arm/cpu/armv8/start.o
 .rela.u_boot_list_2_uclass_2_simple_bus
                0x0000000000301758       0x30 arch/arm/cpu/armv8/start.o
 .rela.u_boot_list_2_driver_2_generic_syscon
                0x0000000000301788       0x48 arch/arm/cpu/armv8/start.o
 .rela.u_boot_list_2_uclass_2_syscon
                0x00000000003017d0       0x30 arch/arm/cpu/armv8/start.o
 .rela.data.aliases_lookup
                0x0000000000301800       0x30 arch/arm/cpu/armv8/start.o
 .rela.u_boot_list_2_uclass_2_crypto
                0x0000000000301830       0x18 arch/arm/cpu/armv8/start.o
 .rela.u_boot_list_2_driver_2_rockchip_crypto_v2
                0x0000000000301848       0x78 arch/arm/cpu/armv8/start.o
 .rela.u_boot_list_2_uclass_2_key
                0x00000000003018c0       0x30 arch/arm/cpu/armv8/start.o
 .rela.u_boot_list_2_driver_2_rk8xx_pwrkey
                0x00000000003018f0       0x30 arch/arm/cpu/armv8/start.o
 .rela.u_boot_list_2_driver_2_adc_key
                0x0000000000301920       0x30 arch/arm/cpu/armv8/start.o
 .rela.u_boot_list_2_driver_2_adc_key_bus
                0x0000000000301950       0x48 arch/arm/cpu/armv8/start.o
 .rela.u_boot_list_2_uclass_2_phy
                0x0000000000301998       0x18 arch/arm/cpu/armv8/start.o
 .rela.data.rockchip_usb2phy_ops
                0x00000000003019b0       0x78 arch/arm/cpu/armv8/start.o
 .rela.u_boot_list_2_driver_2_rockchip_usb2phy
                0x0000000000301a28       0x60 arch/arm/cpu/armv8/start.o
 .rela.u_boot_list_2_driver_2_rockchip_usb2phy_port
                0x0000000000301a88       0x30 arch/arm/cpu/armv8/start.o
 .rela.u_boot_list_2_driver_2_pinconfig_generic
                0x0000000000301ab8       0x18 arch/arm/cpu/armv8/start.o
 .rela.u_boot_list_2_uclass_2_pinconfig
                0x0000000000301ad0       0x30 arch/arm/cpu/armv8/start.o
 .rela.u_boot_list_2_uclass_2_pinctrl
                0x0000000000301b00       0x30 arch/arm/cpu/armv8/start.o
 .rela.data.px30_pin_banks
                0x0000000000301b30       0x60 arch/arm/cpu/armv8/start.o
 .rela.data.rk1808_pin_banks
                0x0000000000301b90       0x78 arch/arm/cpu/armv8/start.o
 .rela.data.rk2928_pin_banks
                0x0000000000301c08       0x60 arch/arm/cpu/armv8/start.o
 .rela.data.rk3036_pin_banks
                0x0000000000301c68       0x48 arch/arm/cpu/armv8/start.o
 .rela.data.rk3066a_pin_banks
                0x0000000000301cb0       0x90 arch/arm/cpu/armv8/start.o
 .rela.data.rk3066b_pin_banks
                0x0000000000301d40       0x60 arch/arm/cpu/armv8/start.o
 .rela.data.rk3128_pin_banks
                0x0000000000301da0       0x60 arch/arm/cpu/armv8/start.o
 .rela.data.rk3188_pin_banks
                0x0000000000301e00       0x60 arch/arm/cpu/armv8/start.o
 .rela.data.rk3228_pin_banks
                0x0000000000301e60       0x60 arch/arm/cpu/armv8/start.o
 .rela.data.rk3288_pin_banks
                0x0000000000301ec0       0xd8 arch/arm/cpu/armv8/start.o
 .rela.data.rk3308_pin_banks
                0x0000000000301f98       0x78 arch/arm/cpu/armv8/start.o
 .rela.data.rk3308_pin_ctrl
                0x0000000000302010       0xa8 arch/arm/cpu/armv8/start.o
 .rela.data.rk3328_pin_banks
                0x00000000003020b8       0x60 arch/arm/cpu/armv8/start.o
 .rela.data.rk3368_pin_banks
                0x0000000000302118       0x60 arch/arm/cpu/armv8/start.o
 .rela.data.rk3399_pin_banks
                0x0000000000302178       0x78 arch/arm/cpu/armv8/start.o
 .rela.data.rockchip_pinctrl_ops
                0x00000000003021f0       0x48 arch/arm/cpu/armv8/start.o
 .rela.data.rv1108_pin_banks
                0x0000000000302238       0x60 arch/arm/cpu/armv8/start.o
 .rela.data.rv1126_pin_banks
                0x0000000000302298       0x78 arch/arm/cpu/armv8/start.o
 .rela.u_boot_list_2_driver_2_pinctrl_rockchip
                0x0000000000302310       0x78 arch/arm/cpu/armv8/start.o
 .rela.u_boot_list_2_uclass_2_ram
                0x0000000000302388       0x18 arch/arm/cpu/armv8/start.o
 .rela.data.dmc_ops
                0x00000000003023a0       0x18 arch/arm/cpu/armv8/start.o
 .rela.u_boot_list_2_driver_2_dmc_tiny
                0x00000000003023b8       0x60 arch/arm/cpu/armv8/start.o
 .rela.data.ddr_params_exp_v1
                0x0000000000302418     0x1290 arch/arm/cpu/armv8/start.o
 .rela.data.ddr_params_v1
                0x00000000003036a8      0x630 arch/arm/cpu/armv8/start.o
 .rela.u_boot_list_2_driver_2_dmc_fsp
                0x0000000000303cd8       0x48 arch/arm/cpu/armv8/start.o
 .rela.u_boot_list_2_uclass_2_dmc
                0x0000000000303d20       0x18 arch/arm/cpu/armv8/start.o
 .rela.data.gic_irq_chip
                0x0000000000303d38       0xd8 arch/arm/cpu/armv8/start.o
 .rela.data.gpio_irq_chip
                0x0000000000303e10       0xa8 arch/arm/cpu/armv8/start.o
 .rela.u_boot_list_2_cmd_2_dump_irqs
                0x0000000000303eb8       0x60 arch/arm/cpu/armv8/start.o
 .rela.data.gpio_banks
                0x0000000000303f18       0x60 arch/arm/cpu/armv8/start.o
 .rela.data.virq_desc_head
                0x0000000000303f78       0x30 arch/arm/cpu/armv8/start.o
 .rela.data.virq_generic_chip
                0x0000000000303fa8       0x60 arch/arm/cpu/armv8/start.o
 .rela.u_boot_list_2_uclass_2_adc
                0x0000000000304008       0x30 arch/arm/cpu/armv8/start.o
 .rela.u_boot_list_2_driver_2_rockchip_saradc
                0x0000000000304038       0x78 arch/arm/cpu/armv8/start.o
 .rela.u_boot_list_2_uclass_2_blk
                0x00000000003040b0       0x18 arch/arm/cpu/armv8/start.o
 .rela.u_boot_list_2_driver_2_firmware
                0x00000000003040c8       0x30 arch/arm/cpu/armv8/start.o
 .rela.u_boot_list_2_uclass_2_firmware
                0x00000000003040f8       0x18 arch/arm/cpu/armv8/start.o
 .rela.u_boot_list_2_driver_2_psci
                0x0000000000304110       0x60 arch/arm/cpu/armv8/start.o
 .rela.u_boot_list_2_driver_2_mmc
                0x0000000000304170       0x18 arch/arm/cpu/armv8/start.o
 .rela.u_boot_list_2_driver_2_mmc_blk
                0x0000000000304188       0x48 arch/arm/cpu/armv8/start.o
 .rela.u_boot_list_2_uclass_2_mmc
                0x00000000003041d0       0x18 arch/arm/cpu/armv8/start.o
 .rela.u_boot_list_2_driver_2_rockchip_dwmmc_drv
                0x00000000003041e8       0x90 arch/arm/cpu/armv8/start.o
 .rela.u_boot_list_2_driver_2_rknand
                0x0000000000304278       0x60 arch/arm/cpu/armv8/start.o
 .rela.u_boot_list_2_driver_2_rknand_blk
                0x00000000003042d8       0x48 arch/arm/cpu/armv8/start.o
 .rela.u_boot_list_2_uclass_2_rknand
                0x0000000000304320       0x18 arch/arm/cpu/armv8/start.o
 .rela.u_boot_list_2_driver_2_rockchip_i2s
                0x0000000000304338       0x60 arch/arm/cpu/armv8/start.o
 .rela.u_boot_list_2_uclass_2_i2s
                0x0000000000304398       0x18 arch/arm/cpu/armv8/start.o
 .rela.u_boot_list_2_driver_2_rk817
                0x00000000003043b0       0x60 arch/arm/cpu/armv8/start.o
 .rela.u_boot_list_2_uclass_2_codec
                0x0000000000304410       0x18 arch/arm/cpu/armv8/start.o
 .rela.u_boot_list_2_uclass_2_sysreset
                0x0000000000304428       0x18 arch/arm/cpu/armv8/start.o
 .rela.u_boot_list_2_driver_2_sysreset_syscon_reboot
                0x0000000000304440       0x48 arch/arm/cpu/armv8/start.o
 .rela.data.psci_sysreset_ops
                0x0000000000304488       0x18 arch/arm/cpu/armv8/start.o
 .rela.u_boot_list_2_driver_2_a_psci_sysreset
                0x00000000003044a0       0x30 arch/arm/cpu/armv8/start.o
 .rela.data.rockchip_sysreset
                0x00000000003044d0       0x18 arch/arm/cpu/armv8/start.o
 .rela.u_boot_list_2_driver_2_sysreset_rockchip
                0x00000000003044e8       0x30 arch/arm/cpu/armv8/start.o
 .rela.u_boot_list_2_uclass_2_display
                0x0000000000304518       0x18 arch/arm/cpu/armv8/start.o
 .rela.u_boot_list_2_uclass_2_backlight
                0x0000000000304530       0x18 arch/arm/cpu/armv8/start.o
 .rela.u_boot_list_2_uclass_2_panel
                0x0000000000304548       0x18 arch/arm/cpu/armv8/start.o
 .rela.u_boot_list_2_driver_2_simple_panel
                0x0000000000304560       0x78 arch/arm/cpu/armv8/start.o
 .rela.u_boot_list_2_uclass_2_video
                0x00000000003045d8       0x78 arch/arm/cpu/armv8/start.o
 .rela.u_boot_list_2_cmd_2_lcdputs
                0x0000000000304650       0x60 arch/arm/cpu/armv8/start.o
 .rela.u_boot_list_2_cmd_2_setcurs
                0x00000000003046b0       0x60 arch/arm/cpu/armv8/start.o
 .rela.u_boot_list_2_uclass_2_vidconsole
                0x0000000000304710       0x48 arch/arm/cpu/armv8/start.o
 .rela.u_boot_list_2_driver_2_pwm_backlight
                0x0000000000304758       0x78 arch/arm/cpu/armv8/start.o
 .rela.data.console_normal_ops
                0x00000000003047d0       0x48 arch/arm/cpu/armv8/start.o
 .rela.u_boot_list_2_driver_2_vidconsole_normal
                0x0000000000304818       0x48 arch/arm/cpu/armv8/start.o
 .rela.data.logo_cache_list
                0x0000000000304860       0x30 arch/arm/cpu/armv8/start.o
 .rela.data.rockchip_display_list
                0x0000000000304890       0x30 arch/arm/cpu/armv8/start.o
 .rela.u_boot_list_2_cmd_2_rockchip_show_bmp
                0x00000000003048c0       0x60 arch/arm/cpu/armv8/start.o
 .rela.u_boot_list_2_cmd_2_rockchip_show_logo
                0x0000000000304920       0x48 arch/arm/cpu/armv8/start.o
 .rela.u_boot_list_2_cmd_2_vop_dump
                0x0000000000304968       0x60 arch/arm/cpu/armv8/start.o
 .rela.u_boot_list_2_driver_2_rockchip_display
                0x00000000003049c8       0x60 arch/arm/cpu/armv8/start.o
 .rela.u_boot_list_2_driver_2_rockchip_vop
                0x0000000000304a28       0x60 arch/arm/cpu/armv8/start.o
 .rela.u_boot_list_2_driver_2_rockchip_vp
                0x0000000000304a88       0x30 arch/arm/cpu/armv8/start.o
 .rela.u_boot_list_2_uclass_2_rockchip_crtc
                0x0000000000304ab8       0x18 arch/arm/cpu/armv8/start.o
 .rela.data.rk3528_dump_regs
                0x0000000000304ad0      0x138 arch/arm/cpu/armv8/start.o
 .rela.data.rk3528_win_data
                0x0000000000304c08       0x78 arch/arm/cpu/armv8/start.o
 .rela.data.rk3562_dump_regs
                0x0000000000304c80       0xf0 arch/arm/cpu/armv8/start.o
 .rela.data.rk3562_win_data
                0x0000000000304d70       0x60 arch/arm/cpu/armv8/start.o
 .rela.data.rk3568_dump_regs
                0x0000000000304dd0      0x120 arch/arm/cpu/armv8/start.o
 .rela.data.rk3568_win_data
                0x0000000000304ef0       0x90 arch/arm/cpu/armv8/start.o
 .rela.data.rk3588_dsc_data
                0x0000000000304f80       0xc0 arch/arm/cpu/armv8/start.o
 .rela.data.rk3588_dump_regs
                0x0000000000305040      0x168 arch/arm/cpu/armv8/start.o
 .rela.data.rk3588_win_data
                0x00000000003051a8       0xc0 arch/arm/cpu/armv8/start.o
 .rela.data.rockchip_connector_list
                0x0000000000305268       0x30 arch/arm/cpu/armv8/start.o
 .rela.u_boot_list_2_driver_2_dw_mipi_dsi
                0x0000000000305298       0x90 arch/arm/cpu/armv8/start.o
 .rela.data.px30_inno_video_phy_driver_data
                0x0000000000305328       0x30 arch/arm/cpu/armv8/start.o
 .rela.data.px30s_inno_video_phy_driver_data
                0x0000000000305358       0x30 arch/arm/cpu/armv8/start.o
 .rela.data.rk3128_inno_video_phy_driver_data
                0x0000000000305388       0x30 arch/arm/cpu/armv8/start.o
 .rela.data.rk3368_inno_video_phy_driver_data
                0x00000000003053b8       0x30 arch/arm/cpu/armv8/start.o
 .rela.data.rk3568_inno_video_phy_driver_data
                0x00000000003053e8       0x30 arch/arm/cpu/armv8/start.o
 .rela.u_boot_list_2_driver_2_inno_video_combo_phy
                0x0000000000305418       0x48 arch/arm/cpu/armv8/start.o
 .rela.u_boot_list_2_driver_2_rockchip_lvds
                0x0000000000305460       0x48 arch/arm/cpu/armv8/start.o
 .rela.u_boot_list_2_driver_2_rockchip_rgb
                0x00000000003054a8       0x48 arch/arm/cpu/armv8/start.o
 .rela.u_boot_list_2_driver_2_rockchip_panel
                0x00000000003054f0       0x60 arch/arm/cpu/armv8/start.o
 .rela.u_boot_list_2_driver_2_rk618
                0x0000000000305550       0x60 arch/arm/cpu/armv8/start.o
 .rela.data.rk618_lvds_driver_data
                0x00000000003055b0       0x18 arch/arm/cpu/armv8/start.o
 .rela.u_boot_list_2_driver_2_rk618_lvds
                0x00000000003055c8       0x48 arch/arm/cpu/armv8/start.o
 .rela.data.rk618_dsi_driver_data
                0x0000000000305610       0x18 arch/arm/cpu/armv8/start.o
 .rela.u_boot_list_2_driver_2_rk618_dsi
                0x0000000000305628       0x90 arch/arm/cpu/armv8/start.o
 .rela.u_boot_list_2_uclass_2_video_bridge
                0x00000000003056b8       0x30 arch/arm/cpu/armv8/start.o
 .rela.data.anx6345_driver_data
                0x00000000003056e8       0x18 arch/arm/cpu/armv8/start.o
 .rela.u_boot_list_2_driver_2_analogix_anx6345
                0x0000000000305700       0x60 arch/arm/cpu/armv8/start.o
 .rela.u_boot_list_2_uclass_2_pwm
                0x0000000000305760       0x18 arch/arm/cpu/armv8/start.o
 .rela.u_boot_list_2_driver_2_rk_pwm
                0x0000000000305778       0x78 arch/arm/cpu/armv8/start.o
 .rela.u_boot_list_2_uclass_2_thermal
                0x00000000003057f0       0x18 arch/arm/cpu/armv8/start.o
 .rela.u_boot_list_2_driver_2_rockchip_thermal
                0x0000000000305808       0x78 arch/arm/cpu/armv8/start.o
 .rela.u_boot_list_2_uclass_2_reset
                0x0000000000305880       0x18 arch/arm/cpu/armv8/start.o
 .rela.data.rockchip_reset_ops
                0x0000000000305898       0x60 arch/arm/cpu/armv8/start.o
 .rela.u_boot_list_2_driver_2_rockchip_reset
                0x00000000003058f8       0x48 arch/arm/cpu/armv8/start.o
 .rela.rodata.gpio_rockchip_ops
                0x0000000000305940       0x78 arch/arm/cpu/armv8/start.o
 .rela.rodata.rockchip_gpio_ids
                0x00000000003059b8       0x18 arch/arm/cpu/armv8/start.o
 .rela.u_boot_list_2_uclass_2_gpio
                0x00000000003059d0       0x60 arch/arm/cpu/armv8/start.o
 .rela.u_boot_list_2_driver_2_gpio_rockchip
                0x0000000000305a30       0x60 arch/arm/cpu/armv8/start.o
 .rela.rodata.rockchip_i2c_ids
                0x0000000000305a90       0xa8 arch/arm/cpu/armv8/start.o
 .rela.rodata.rockchip_i2c_ops
                0x0000000000305b38       0x30 arch/arm/cpu/armv8/start.o
 .rela.u_boot_list_2_driver_2_i2c_generic_chip_drv
                0x0000000000305b68       0x18 arch/arm/cpu/armv8/start.o
 .rela.u_boot_list_2_uclass_2_i2c
                0x0000000000305b80       0x60 arch/arm/cpu/armv8/start.o
 .rela.u_boot_list_2_uclass_2_i2c_generic
                0x0000000000305be0       0x18 arch/arm/cpu/armv8/start.o
 .rela.u_boot_list_2_driver_2_i2c_rockchip
                0x0000000000305bf8       0x78 arch/arm/cpu/armv8/start.o
 .rela.u_boot_list_2_uclass_2_spi_nor
                0x0000000000305c70       0x30 arch/arm/cpu/armv8/start.o
 .rela.rodata.designware_eth_ids
                0x0000000000305ca0       0x78 arch/arm/cpu/armv8/start.o
 .rela.rodata.designware_eth_ops
                0x0000000000305d18       0x90 arch/arm/cpu/armv8/start.o
 .rela.rodata.gmac_rockchip_eth_ops
                0x0000000000305da8       0x90 arch/arm/cpu/armv8/start.o
 .rela.rodata.px30_gmac_ops
                0x0000000000305e38       0x30 arch/arm/cpu/armv8/start.o
 .rela.rodata.rockchip_gmac_ids
                0x0000000000305e68       0x30 arch/arm/cpu/armv8/start.o
 .rela.u_boot_list_2_driver_2_eth_designware
                0x0000000000305e98       0xa8 arch/arm/cpu/armv8/start.o
 .rela.u_boot_list_2_pci_driver_entry_2_eth_designware
                0x0000000000305f40       0x30 arch/arm/cpu/armv8/start.o
 .rela.u_boot_list_2_driver_2_eth_gmac_rockchip
                0x0000000000305f70       0x78 arch/arm/cpu/armv8/start.o
 .rela.rodata.phy_interface_strings
                0x0000000000305fe8      0x1b0 arch/arm/cpu/armv8/start.o
 .rela.data.genphy_driver
                0x0000000000306198       0x60 arch/arm/cpu/armv8/start.o
 .rela.data.phy_drivers
                0x00000000003061f8       0x30 arch/arm/cpu/armv8/start.o
 .rela.rodata.charge_animation_ids
                0x0000000000306228       0x18 arch/arm/cpu/armv8/start.o
 .rela.rodata.charge_animation_ops
                0x0000000000306240       0x18 arch/arm/cpu/armv8/start.o
 .rela.rodata.image
                0x0000000000306258       0xa8 arch/arm/cpu/armv8/start.o
 .rela.u_boot_list_2_uclass_2_charge_display
                0x0000000000306300       0x18 arch/arm/cpu/armv8/start.o
 .rela.u_boot_list_2_driver_2_charge_animation
                0x0000000000306318       0x78 arch/arm/cpu/armv8/start.o
 .rela.rodata.wtemp_dvfs_match
                0x0000000000306390       0x18 arch/arm/cpu/armv8/start.o
 .rela.rodata.wtemp_dvfs_ops
                0x00000000003063a8       0x30 arch/arm/cpu/armv8/start.o
 .rela.u_boot_list_2_uclass_2_dvfs
                0x00000000003063d8       0x18 arch/arm/cpu/armv8/start.o
 .rela.data.pm_cpu
                0x00000000003063f0       0x30 arch/arm/cpu/armv8/start.o
 .rela.data.pm_dmc
                0x0000000000306420       0x30 arch/arm/cpu/armv8/start.o
 .rela.data.pm_e_head
                0x0000000000306450       0x30 arch/arm/cpu/armv8/start.o
 .rela.u_boot_list_2_driver_2_rockchip_wide_temp_dvfs
                0x0000000000306480       0x78 arch/arm/cpu/armv8/start.o
 .rela.u_boot_list_2_uclass_2_fuel_guage
                0x00000000003064f8       0x18 arch/arm/cpu/armv8/start.o
 .rela.rodata.rockchip_iodomain_match
                0x0000000000306510      0x300 arch/arm/cpu/armv8/start.o
 .rela.rodata.soc_data_px30
                0x0000000000306810       0xc0 arch/arm/cpu/armv8/start.o
 .rela.rodata.soc_data_px30_pmu
                0x00000000003068d0       0x30 arch/arm/cpu/armv8/start.o
 .rela.rodata.soc_data_rk3188
                0x0000000000306900       0xc0 arch/arm/cpu/armv8/start.o
 .rela.rodata.soc_data_rk322x
                0x00000000003069c0       0x60 arch/arm/cpu/armv8/start.o
 .rela.rodata.soc_data_rk3288
                0x0000000000306a20      0x108 arch/arm/cpu/armv8/start.o
 .rela.rodata.soc_data_rk3308
                0x0000000000306b28       0xa8 arch/arm/cpu/armv8/start.o
 .rela.rodata.soc_data_rk3328
                0x0000000000306bd0       0xc0 arch/arm/cpu/armv8/start.o
 .rela.rodata.soc_data_rk3366
                0x0000000000306c90       0xc0 arch/arm/cpu/armv8/start.o
 .rela.rodata.soc_data_rk3368
                0x0000000000306d50       0xc0 arch/arm/cpu/armv8/start.o
 .rela.rodata.soc_data_rk3368_pmu
                0x0000000000306e10       0x30 arch/arm/cpu/armv8/start.o
 .rela.rodata.soc_data_rk3399
                0x0000000000306e40       0x60 arch/arm/cpu/armv8/start.o
 .rela.rodata.soc_data_rk3399_pmu
                0x0000000000306ea0       0x30 arch/arm/cpu/armv8/start.o
 .rela.rodata.soc_data_rk3568_pmu
                0x0000000000306ed0       0xd8 arch/arm/cpu/armv8/start.o
 .rela.rodata.soc_data_rv1108
                0x0000000000306fa8       0x78 arch/arm/cpu/armv8/start.o
 .rela.rodata.soc_data_rv1108_pmu
                0x0000000000307020       0x18 arch/arm/cpu/armv8/start.o
 .rela.rodata.soc_data_rv1126_pmu
                0x0000000000307038       0xd8 arch/arm/cpu/armv8/start.o
 .rela.u_boot_list_2_uclass_2_io_domain
                0x0000000000307110       0x18 arch/arm/cpu/armv8/start.o
 .rela.u_boot_list_2_driver_2_io_domain
                0x0000000000307128       0x60 arch/arm/cpu/armv8/start.o
 .rela.rodata.fuel_gauge_info
                0x0000000000307188       0xd8 arch/arm/cpu/armv8/start.o
 .rela.rodata.pmic_children_info
                0x0000000000307260       0x90 arch/arm/cpu/armv8/start.o
 .rela.rodata.power_key_info
                0x00000000003072f0       0x30 arch/arm/cpu/armv8/start.o
 .rela.rodata.rk817_codec_info
                0x0000000000307320       0x30 arch/arm/cpu/armv8/start.o
 .rela.rodata.rk8xx_ids
                0x0000000000307350       0x90 arch/arm/cpu/armv8/start.o
 .rela.rodata.rtc_info
                0x00000000003073e0       0x30 arch/arm/cpu/armv8/start.o
 .rela.u_boot_list_2_uclass_2_pmic
                0x0000000000307410       0x18 arch/arm/cpu/armv8/start.o
 .rela.data.rk805_irq_chip
                0x0000000000307428       0x48 arch/arm/cpu/armv8/start.o
 .rela.data.rk808_irq_chip
                0x0000000000307470       0x48 arch/arm/cpu/armv8/start.o
 .rela.data.rk816_irq_chip
                0x00000000003074b8       0x48 arch/arm/cpu/armv8/start.o
 .rela.data.rk817_irq_chip
                0x0000000000307500       0x48 arch/arm/cpu/armv8/start.o
 .rela.data.rk818_irq_chip
                0x0000000000307548       0x48 arch/arm/cpu/armv8/start.o
 .rela.data.rk8xx_ops
                0x0000000000307590       0x90 arch/arm/cpu/armv8/start.o
 .rela.u_boot_list_2_driver_2_pmic_rk8xx
                0x0000000000307620       0x90 arch/arm/cpu/armv8/start.o
 .rela.rodata.pwm_regulator_ids
                0x00000000003076b0       0x18 arch/arm/cpu/armv8/start.o
 .rela.rodata.pwm_regulator_ops
                0x00000000003076c8       0x48 arch/arm/cpu/armv8/start.o
 .rela.rodata.fixed_regulator_ids
                0x0000000000307710       0x18 arch/arm/cpu/armv8/start.o
 .rela.rodata.fixed_regulator_ops
                0x0000000000307728       0x60 arch/arm/cpu/armv8/start.o
 .rela.rodata.rk8xx_buck_ops
                0x0000000000307788       0xd8 arch/arm/cpu/armv8/start.o
 .rela.rodata.rk8xx_ldo_ops
                0x0000000000307860       0xc0 arch/arm/cpu/armv8/start.o
 .rela.rodata.rk8xx_switch_ops
                0x0000000000307920       0xc0 arch/arm/cpu/armv8/start.o
 .rela.u_boot_list_2_uclass_2_regulator
                0x00000000003079e0       0x48 arch/arm/cpu/armv8/start.o
 .rela.u_boot_list_2_driver_2_pwm_regulator
                0x0000000000307a28       0x78 arch/arm/cpu/armv8/start.o
 .rela.u_boot_list_2_driver_2_fixed_regulator
                0x0000000000307aa0       0x60 arch/arm/cpu/armv8/start.o
 .rela.u_boot_list_2_driver_2_rk8xx_buck
                0x0000000000307b00       0x48 arch/arm/cpu/armv8/start.o
 .rela.u_boot_list_2_driver_2_rk8xx_ldo
                0x0000000000307b48       0x48 arch/arm/cpu/armv8/start.o
 .rela.u_boot_list_2_driver_2_rk8xx_switch
                0x0000000000307b90       0x48 arch/arm/cpu/armv8/start.o
 .rela.rodata.ns16550_serial_ids
                0x0000000000307bd8      0x108 arch/arm/cpu/armv8/start.o
 .rela.rodata.ns16550_serial_ops
                0x0000000000307ce0       0x78 arch/arm/cpu/armv8/start.o
 .rela.u_boot_list_2_uclass_2_serial
                0x0000000000307d58       0x48 arch/arm/cpu/armv8/start.o
 .rela.u_boot_list_2_driver_2_ns16550_serial
                0x0000000000307da0       0x78 arch/arm/cpu/armv8/start.o
 .rela.u_boot_list_2_driver_2_spi_generic_drv
                0x0000000000307e18       0x18 arch/arm/cpu/armv8/start.o
 .rela.u_boot_list_2_uclass_2_spi
                0x0000000000307e30       0x78 arch/arm/cpu/armv8/start.o
 .rela.u_boot_list_2_uclass_2_spi_generic
                0x0000000000307ea8       0x18 arch/arm/cpu/armv8/start.o
 .rela.rodata.cmd_dispatch_info
                0x0000000000307ec0      0x210 arch/arm/cpu/armv8/start.o
 .rela.rodata.getvar_table
                0x00000000003080d0      0x2a0 arch/arm/cpu/armv8/start.o
 .rela.data.dwc2_ep_ops
                0x0000000000308370       0xd8 arch/arm/cpu/armv8/start.o
 .rela.data.memory
                0x0000000000308448      0x168 arch/arm/cpu/armv8/start.o
 .rela.data.composite_driver
                0x00000000003085b0       0xa8 arch/arm/cpu/armv8/start.o
 .rela.data.g_dnl_composite_strings
                0x0000000000308658       0x18 arch/arm/cpu/armv8/start.o
 .rela.data.g_dnl_driver
                0x0000000000308670       0x60 arch/arm/cpu/armv8/start.o
 .rela.data.g_dnl_string_defs
                0x00000000003086d0       0x48 arch/arm/cpu/armv8/start.o
 .rela.data.g_dnl_string_tab
                0x0000000000308718       0x18 arch/arm/cpu/armv8/start.o
 .rela.u_boot_list_2_env_clbk_2_serialno
                0x0000000000308730       0x30 arch/arm/cpu/armv8/start.o
 .rela.data.fsg_fs_function
                0x0000000000308760       0x48 arch/arm/cpu/armv8/start.o
 .rela.data.fsg_hs_function
                0x00000000003087a8       0x48 arch/arm/cpu/armv8/start.o
 .rela.data.fsg_strings
                0x00000000003087f0       0x18 arch/arm/cpu/armv8/start.o
 .rela.data.fsg_strings_array
                0x0000000000308808       0x18 arch/arm/cpu/armv8/start.o
 .rela.data.fsg_stringtab
                0x0000000000308820       0x18 arch/arm/cpu/armv8/start.o
 .rela.data.rkusb_fs_function
                0x0000000000308838       0x48 arch/arm/cpu/armv8/start.o
 .rela.data.rkusb_hs_function
                0x0000000000308880       0x48 arch/arm/cpu/armv8/start.o
 .rela.data.rkusb_ss_function
                0x00000000003088c8       0x78 arch/arm/cpu/armv8/start.o
 .rela.u_boot_list_2_g_dnl_bind_callbacks_2___usb_function_name_rkusb_ums_dnl
                0x0000000000308940       0x30 arch/arm/cpu/armv8/start.o
 .rela.u_boot_list_2_g_dnl_bind_callbacks_2___usb_function_name_usb_dnl_ums
                0x0000000000308970       0x30 arch/arm/cpu/armv8/start.o
 .rela.data.fastboot_string_defs
                0x00000000003089a0       0x18 arch/arm/cpu/armv8/start.o
 .rela.data.fastboot_strings
                0x00000000003089b8       0x18 arch/arm/cpu/armv8/start.o
 .rela.data.fb_fs_function
                0x00000000003089d0       0x48 arch/arm/cpu/armv8/start.o
 .rela.data.fb_hs_function
                0x0000000000308a18       0x48 arch/arm/cpu/armv8/start.o
 .rela.data.fb_ss_function
                0x0000000000308a60       0x78 arch/arm/cpu/armv8/start.o
 .rela.data.stringtab_fastboot
                0x0000000000308ad8       0x18 arch/arm/cpu/armv8/start.o
 .rela.u_boot_list_2_g_dnl_bind_callbacks_2___usb_function_name_usb_dnl_fastboot
                0x0000000000308af0       0x30 arch/arm/cpu/armv8/start.o
 .rela.u_boot_list_2_uclass_2_usb_gadget_generic
                0x0000000000308b20       0x18 arch/arm/cpu/armv8/start.o
 .rela.rodata.cc_to_string
                0x0000000000308b38      0x180 arch/arm/cpu/armv8/start.o
 .rela.rodata.ohci_usb_ids
                0x0000000000308cb8       0x18 arch/arm/cpu/armv8/start.o
 .rela.rodata.CSWTCH.111
                0x0000000000308cd0       0x48 arch/arm/cpu/armv8/start.o
 .rela.rodata.ehci_usb_ids
                0x0000000000308d18       0x18 arch/arm/cpu/armv8/start.o
 .rela.u_boot_list_2_driver_2_usb_dev_generic_drv
                0x0000000000308d30       0x18 arch/arm/cpu/armv8/start.o
 .rela.u_boot_list_2_uclass_2_usb
                0x0000000000308d48       0x60 arch/arm/cpu/armv8/start.o
 .rela.u_boot_list_2_uclass_2_usb_dev_generic
                0x0000000000308da8       0x18 arch/arm/cpu/armv8/start.o
 .rela.data.ohci_usb_ops
                0x0000000000308dc0       0x90 arch/arm/cpu/armv8/start.o
 .rela.u_boot_list_2_driver_2_ohci_generic
                0x0000000000308e50       0x78 arch/arm/cpu/armv8/start.o
 .rela.data.ehci_usb_ops
                0x0000000000308ec8       0xa8 arch/arm/cpu/armv8/start.o
 .rela.u_boot_list_2_driver_2_ehci_generic
                0x0000000000308f70       0x78 arch/arm/cpu/armv8/start.o
 .rela.data.env_htab
                0x0000000000308fe8       0x18 arch/arm/cpu/armv8/start.o
 .rela.u_boot_list_2_env_clbk_2_callbacks
                0x0000000000309000       0x30 arch/arm/cpu/armv8/start.o
 .rela.u_boot_list_2_env_clbk_2_flags
                0x0000000000309030       0x30 arch/arm/cpu/armv8/start.o
 .rela.u_boot_list_2_env_driver_2_nowhere
                0x0000000000309060       0x30 arch/arm/cpu/armv8/start.o
 .rela.data.fstypes
                0x0000000000309090      0x300 arch/arm/cpu/armv8/start.o
 .rela.rodata.fdt_errtable
                0x0000000000309390      0x198 arch/arm/cpu/armv8/start.o
 .rela.rodata.CSWTCH.8
                0x0000000000309528       0x90 arch/arm/cpu/armv8/start.o
 .rela.u_boot_list_2_cmd_2_sysmem_dump
                0x00000000003095b8       0x60 arch/arm/cpu/armv8/start.o
 .rela.u_boot_list_2_cmd_2_sysmem_search
                0x0000000000309618       0x60 arch/arm/cpu/armv8/start.o
 .rela.u_boot_list_2_cmd_2_bidram_dump
                0x0000000000309678       0x60 arch/arm/cpu/armv8/start.o
 .rela.data.algorithm_data
                0x00000000003096d8       0x90 arch/arm/cpu/armv8/start.o
 .rela.u_boot_list_2_env_clbk_2_ethaddr
                0x0000000000309768       0x30 arch/arm/cpu/armv8/start.o
 .rela.u_boot_list_2_uclass_2_ethernet
                0x0000000000309798       0x78 arch/arm/cpu/armv8/start.o
 .rela.u_boot_list_2_env_clbk_2_bootfile
                0x0000000000309810       0x30 arch/arm/cpu/armv8/start.o
 .rela.u_boot_list_2_env_clbk_2_gatewayip
                0x0000000000309840       0x30 arch/arm/cpu/armv8/start.o
 .rela.u_boot_list_2_env_clbk_2_ipaddr
                0x0000000000309870       0x30 arch/arm/cpu/armv8/start.o
 .rela.u_boot_list_2_env_clbk_2_netmask
                0x00000000003098a0       0x30 arch/arm/cpu/armv8/start.o
 .rela.u_boot_list_2_env_clbk_2_nvlan
                0x00000000003098d0       0x30 arch/arm/cpu/armv8/start.o
 .rela.u_boot_list_2_env_clbk_2_serverip
                0x0000000000309900       0x30 arch/arm/cpu/armv8/start.o
 .rela.u_boot_list_2_env_clbk_2_vlan
                0x0000000000309930       0x30 arch/arm/cpu/armv8/start.o
 .rela.rodata.cmd_groups
                0x0000000000309960       0xa8 arch/arm/cpu/armv8/start.o
 .rela.rodata.cmd_grp_name
                0x0000000000309a08       0xf0 arch/arm/cpu/armv8/start.o
 .rela.rodata.cmd_grp_boot
                0x0000000000309af8       0x30 arch/arm/cpu/armv8/start.o
 .rela.rodata.cmd_grp_download
                0x0000000000309b28       0x30 arch/arm/cpu/armv8/start.o
 .rela.rodata.cmd_grp_display
                0x0000000000309b58       0x30 arch/arm/cpu/armv8/start.o
 .rela.rodata.cmd_grp_misc
                0x0000000000309b88       0x30 arch/arm/cpu/armv8/start.o
 .rela.rodata.cmd_grp_power
                0x0000000000309bb8       0x30 arch/arm/cpu/armv8/start.o
 .rela.rodata.cmd_grp_storage
                0x0000000000309be8       0x30 arch/arm/cpu/armv8/start.o
 .rela.u_boot_list_2_cmd_2_rktest
                0x0000000000309c18       0x48 arch/arm/cpu/armv8/start.o
 .rela.data.sub_cmd
                0x0000000000309c60      0xa20 arch/arm/cpu/armv8/start.o
 .rela.data.cmd_grp_net
                0x000000000030a680       0x30 arch/arm/cpu/armv8/start.o
 .rela.data.test_commands
                0x000000000030a6b0      0x180 arch/arm/cpu/armv8/start.o
 .rela.u_boot_list_2_cmd_2_dm
                0x000000000030a830       0x60 arch/arm/cpu/armv8/start.o

.rel_dyn_end    0x000000000030a890        0x0
 *(.__rel_dyn_end)
 .__rel_dyn_end
                0x000000000030a890        0x0 arch/arm/lib/built-in.o
                0x000000000030a890                _end = .
                0x000000000030a890                . = ALIGN (0x8)

.bss_start      0x000000000030a890        0x0
 *(.__bss_start)
 .__bss_start   0x000000000030a890        0x0 arch/arm/lib/built-in.o
                0x000000000030a890                __bss_start

.bss            0x000000000030a8c0   0x1a1c00
 *(.bss*)
 .bss.appended.1
                0x000000000030a8c0        0x4 arch/arm/mach-rockchip/built-in.o
 *fill*         0x000000000030a8c4        0x4 
 .bss.dev_desc  0x000000000030a8c8        0x8 arch/arm/mach-rockchip/built-in.o
 .bss.done.2    0x000000000030a8d0        0x4 arch/arm/mach-rockchip/built-in.o
 *fill*         0x000000000030a8d4        0x4 
 .bss.orig_images_ep
                0x000000000030a8d8        0x8 arch/arm/mach-rockchip/built-in.o
 .bss._flash_read
                0x000000000030a8e0        0x8 arch/arm/mach-rockchip/built-in.o
 .bss._flash_write
                0x000000000030a8e8        0x8 arch/arm/mach-rockchip/built-in.o
 .bss.bootdev_type
                0x000000000030a8f0        0x4 arch/arm/mach-rockchip/built-in.o
 *fill*         0x000000000030a8f4        0x4 
 .bss.vendor_info
                0x000000000030a8f8       0x28 arch/arm/mach-rockchip/built-in.o
 .bss.blk_curr_iftype
                0x000000000030a920        0x4 cmd/built-in.o
 .bss.data.2    0x000000000030a924      0x400 cmd/built-in.o
 *fill*         0x000000000030ad24        0x4 
 .bss.working_fdt
                0x000000000030ad28        0x8 cmd/built-in.o
                0x000000000030ad28                working_fdt
 .bss.base_address
                0x000000000030ad30        0x8 cmd/built-in.o
 .bss.dp_last_addr
                0x000000000030ad38        0x8 cmd/built-in.o
 .bss.dp_last_size
                0x000000000030ad40        0x8 cmd/built-in.o
 .bss.mm_last_addr
                0x000000000030ad48        0x8 cmd/built-in.o
 .bss.mm_last_size
                0x000000000030ad50        0x8 cmd/built-in.o
 .bss.last_addr_hi
                0x000000000030ad58        0x8 cmd/built-in.o
 .bss.last_addr_lo
                0x000000000030ad60        0x8 cmd/built-in.o
 .bss.last_data
                0x000000000030ad68        0x8 cmd/built-in.o
 .bss.last_mask
                0x000000000030ad70        0x4 cmd/built-in.o
 .bss.last_op   0x000000000030ad74        0x4 cmd/built-in.o
 .bss.last_reg_hi
                0x000000000030ad78        0x8 cmd/built-in.o
 .bss.last_reg_lo
                0x000000000030ad80        0x8 cmd/built-in.o
 .bss.last_devad_hi
                0x000000000030ad88        0x4 cmd/built-in.o
 .bss.last_devad_lo
                0x000000000030ad8c        0x4 cmd/built-in.o
 .bss.temp_original_part
                0x000000000030ad90        0x1 cmd/built-in.o
                0x000000000030ad90                temp_original_part
 *fill*         0x000000000030ad91        0x7 
 .bss.do_getfile
                0x000000000030ad98        0x8 cmd/built-in.o
 .bss.fs_argv   0x000000000030ada0       0x28 cmd/built-in.o
 .bss.is_pxe    0x000000000030adc8        0x1 cmd/built-in.o
 *fill*         0x000000000030adc9        0x7 
 .bss.g_rkusb   0x000000000030add0        0x8 cmd/built-in.o
 .bss.rkusb     0x000000000030add8       0x10 cmd/built-in.o
 .bss.rknand_curr_dev
                0x000000000030ade8        0x4 cmd/built-in.o
 *fill*         0x000000000030adec        0x4 
 .bss.ums       0x000000000030adf0        0x8 cmd/built-in.o
 .bss.ums_count
                0x000000000030adf8        0x4 cmd/built-in.o
 .bss.buf.2     0x000000000030adfc       0x28 common/built-in.o
 .bss.do_repeat
                0x000000000030ae24        0x4 common/built-in.o
 .bss.flag_repeat
                0x000000000030ae28        0x4 common/built-in.o
 *fill*         0x000000000030ae2c        0x4 
 .bss.ifs       0x000000000030ae30        0x8 common/built-in.o
 .bss.last_return_code
                0x000000000030ae38        0x4 common/built-in.o
 .bss.map       0x000000000030ae3c      0x100 common/built-in.o
 .bss.the_command.0
                0x000000000030af3c      0x401 common/built-in.o
 *fill*         0x000000000030b33d        0x3 
 .bss.top_vars  0x000000000030b340        0x8 common/built-in.o
 .bss.stored_bootdelay
                0x000000000030b348        0x4 common/built-in.o
 *fill*         0x000000000030b34c        0x4 
 .bss.monitor_flash_len
                0x000000000030b350        0x8 common/built-in.o
                0x000000000030b350                monitor_flash_len
 .bss.images    0x000000000030b358      0x380 common/built-in.o
                0x000000000030b358                images
 .bss.current_mii
                0x000000000030b6d8        0x8 common/built-in.o
 .bss.mii_devs  0x000000000030b6e0       0x10 common/built-in.o
 .bss.usb_started
                0x000000000030b6f0        0x1 common/built-in.o
                0x000000000030b6f0                usb_started
 *fill*         0x000000000030b6f1        0x3 
 .bss.running.0
                0x000000000030b6f4        0x4 common/built-in.o
 .bss.CBWTag    0x000000000030b6f8        0x4 common/built-in.o
 *fill*         0x000000000030b6fc        0x4 
 .bss.usb_ccb   0x000000000030b700      0x100 common/built-in.o
 .bss.usb_max_devs
                0x000000000030b800        0x4 common/built-in.o
 .bss.console_buffer
                0x000000000030b804      0x401 common/built-in.o
                0x000000000030b804                console_buffer
 *fill*         0x000000000030bc05        0x3 
 .bss.hist_add_idx
                0x000000000030bc08        0x4 common/built-in.o
 .bss.hist_lines
                0x000000000030bc0c     0x5014 common/built-in.o
 .bss.hist_list
                0x0000000000310c20       0xa0 common/built-in.o
 .bss.hist_max  0x0000000000310cc0        0x4 common/built-in.o
 .bss.hist_num  0x0000000000310cc4        0x4 common/built-in.o
 .bss.initted.0
                0x0000000000310cc8        0x4 common/built-in.o
 .bss.cd_count  0x0000000000310ccc        0xc common/built-in.o
                0x0000000000310ccc                cd_count
 .bss.console_devices
                0x0000000000310cd8       0x18 common/built-in.o
                0x0000000000310cd8                console_devices
 .bss.ctrlc_disabled
                0x0000000000310cf0        0x4 common/built-in.o
 .bss.ctrlc_was_pressed
                0x0000000000310cf4        0x4 common/built-in.o
 .bss.tstcdev   0x0000000000310cf8        0x8 common/built-in.o
 .bss.current_mallinfo
                0x0000000000310d00       0x28 common/built-in.o
 .bss.max_sbrked_mem
                0x0000000000310d28        0x8 common/built-in.o
 .bss.max_total_mem
                0x0000000000310d30        0x8 common/built-in.o
 .bss.mem_malloc_brk
                0x0000000000310d38        0x8 common/built-in.o
                0x0000000000310d38                mem_malloc_brk
 .bss.mem_malloc_end
                0x0000000000310d40        0x8 common/built-in.o
                0x0000000000310d40                mem_malloc_end
 .bss.mem_malloc_start
                0x0000000000310d48        0x8 common/built-in.o
                0x0000000000310d48                mem_malloc_start
 .bss.top_pad   0x0000000000310d50        0x8 common/built-in.o
 .bss.andr_tmp_str
                0x0000000000310d58      0x201 common/built-in.o
 *fill*         0x0000000000310f59        0x3 
 .bss.android_kernel_comp_type
                0x0000000000310f5c        0x4 common/built-in.o
 .bss.preload_user_data
                0x0000000000310f60       0x60 common/built-in.o
 .bss.rsv_done.0
                0x0000000000310fc0        0x4 common/built-in.o
 .bss.rsv_done.1
                0x0000000000310fc4        0x4 common/built-in.o
 .bss.devs      0x0000000000310fc8       0x78 common/built-in.o
 .bss.stdio_devices
                0x0000000000311040       0x18 common/built-in.o
                0x0000000000311040                stdio_devices
 .bss.timer     0x0000000000311058        0x8 common/built-in.o
 .bss.tmp_buf   0x0000000000311060      0x400 common/built-in.o
 .bss.tmp_buf.0
                0x0000000000311460      0x200 common/built-in.o
 .bss.gpt_head.7
                0x0000000000311660        0x8 disk/built-in.o
 .bss.gpt_pte.6
                0x0000000000311668        0x8 disk/built-in.o
 .bss.name.8    0x0000000000311670       0x25 disk/built-in.o
 *fill*         0x0000000000311695        0x3 
 .bss.auto_table
                0x0000000000311698       0x20 drivers/built-in.o
 .bss.of_aliases
                0x00000000003116b8        0x8 drivers/built-in.o
 .bss.of_chosen
                0x00000000003116c0        0x8 drivers/built-in.o
 .bss.of_stdout
                0x00000000003116c8        0x8 drivers/built-in.o
 .bss.of_stdout_options
                0x00000000003116d0        0x8 drivers/built-in.o
 .bss.crypto_base
                0x00000000003116d8        0x8 drivers/built-in.o
                0x00000000003116d8                crypto_base
 .bss.gicc_save
                0x00000000003116e0        0x8 drivers/built-in.o
 .bss.gicd_save
                0x00000000003116e8      0xa7c drivers/built-in.o
 .bss.intr_setup
                0x0000000000312164        0x1 drivers/built-in.o
 *fill*         0x0000000000312165        0x3 
 .bss.irq_desc  0x0000000000312168     0x1800 drivers/built-in.o
 .bss.irqchip   0x0000000000313968       0x50 drivers/built-in.o
 .bss.gpio_alias
                0x00000000003139b8       0x20 drivers/built-in.o
 .bss.invoke_psci_fn
                0x00000000003139d8        0x8 drivers/built-in.o
                0x00000000003139d8                invoke_psci_fn
 .bss.initialized.0
                0x00000000003139e0        0x4 drivers/built-in.o
 .bss.mmc_ext_csd
                0x00000000003139e4      0x200 drivers/built-in.o
 .bss.IDByte    0x0000000000313be4       0x20 drivers/built-in.o
                0x0000000000313be4                IDByte
 .bss._c_ftl_blk_pre_plane
                0x0000000000313c04        0x2 drivers/built-in.o
                0x0000000000313c04                _c_ftl_blk_pre_plane
 .bss._c_ftl_block_addr_log2
                0x0000000000313c06        0x2 drivers/built-in.o
                0x0000000000313c06                _c_ftl_block_addr_log2
 .bss._c_ftl_block_align_addr
                0x0000000000313c08        0x2 drivers/built-in.o
                0x0000000000313c08                _c_ftl_block_align_addr
 .bss._c_ftl_byte_pre_page
                0x0000000000313c0a        0x2 drivers/built-in.o
                0x0000000000313c0a                _c_ftl_byte_pre_page
 .bss._c_ftl_cs_bits
                0x0000000000313c0c        0x1 drivers/built-in.o
                0x0000000000313c0c                _c_ftl_cs_bits
 .bss._c_ftl_nand_die_num
                0x0000000000313c0d        0x1 drivers/built-in.o
                0x0000000000313c0d                _c_ftl_nand_die_num
 .bss._c_ftl_nand_planes_num
                0x0000000000313c0e        0x1 drivers/built-in.o
                0x0000000000313c0e                _c_ftl_nand_planes_num
 .bss._c_ftl_nand_type
                0x0000000000313c0f        0x1 drivers/built-in.o
                0x0000000000313c0f                _c_ftl_nand_type
 .bss._c_ftl_page_pre_blk
                0x0000000000313c10        0x2 drivers/built-in.o
                0x0000000000313c10                _c_ftl_page_pre_blk
 .bss._c_ftl_page_pre_slc_blk
                0x0000000000313c12        0x2 drivers/built-in.o
                0x0000000000313c12                _c_ftl_page_pre_slc_blk
 .bss._c_ftl_planes_per_die
                0x0000000000313c14        0x1 drivers/built-in.o
                0x0000000000313c14                _c_ftl_planes_per_die
 *fill*         0x0000000000313c15        0x1 
 .bss._c_ftl_pm_page_num
                0x0000000000313c16        0x2 drivers/built-in.o
                0x0000000000313c16                _c_ftl_pm_page_num
 .bss._c_ftl_sec_per_page
                0x0000000000313c18        0x1 drivers/built-in.o
                0x0000000000313c18                _c_ftl_sec_per_page
 *fill*         0x0000000000313c19        0x1 
 .bss._c_max_pm_sblk
                0x0000000000313c1a        0x2 drivers/built-in.o
                0x0000000000313c1a                _c_max_pm_sblk
 .bss._c_mix_max_slc_ec_count
                0x0000000000313c1c        0x2 drivers/built-in.o
                0x0000000000313c1c                _c_mix_max_slc_ec_count
 .bss._c_mix_max_xlc_ec_count
                0x0000000000313c1e        0x2 drivers/built-in.o
                0x0000000000313c1e                _c_mix_max_xlc_ec_count
 .bss._c_slc_to_xlc_ec_ratio
                0x0000000000313c20        0x2 drivers/built-in.o
                0x0000000000313c20                _c_slc_to_xlc_ec_ratio
 .bss._c_swl_slc_gc_th
                0x0000000000313c22        0x2 drivers/built-in.o
                0x0000000000313c22                _c_swl_slc_gc_th
 .bss._c_swl_xlc_gc_th
                0x0000000000313c24        0x2 drivers/built-in.o
                0x0000000000313c24                _c_swl_xlc_gc_th
 *fill*         0x0000000000313c26        0x2 
 .bss._c_totle_data_density
                0x0000000000313c28        0x4 drivers/built-in.o
                0x0000000000313c28                _c_totle_data_density
 .bss._c_totle_log_page
                0x0000000000313c2c        0x4 drivers/built-in.o
                0x0000000000313c2c                _c_totle_log_page
 .bss._c_totle_phy_density
                0x0000000000313c30        0x4 drivers/built-in.o
                0x0000000000313c30                _c_totle_phy_density
 .bss._c_user_data_density
                0x0000000000313c34        0x4 drivers/built-in.o
                0x0000000000313c34                _c_user_data_density
 .bss._ftl_gc_tag_page_num
                0x0000000000313c38        0x1 drivers/built-in.o
                0x0000000000313c38                _ftl_gc_tag_page_num
 *fill*         0x0000000000313c39        0x3 
 .bss._gc_after_discard_en
                0x0000000000313c3c        0x4 drivers/built-in.o
                0x0000000000313c3c                _gc_after_discard_en
 .bss._max_xlc_super_block
                0x0000000000313c40        0x2 drivers/built-in.o
                0x0000000000313c40                _max_xlc_super_block
 .bss._min_slc_super_block
                0x0000000000313c42        0x2 drivers/built-in.o
                0x0000000000313c42                _min_slc_super_block
 .bss.discard_sector_count
                0x0000000000313c44        0x4 drivers/built-in.o
                0x0000000000313c44                discard_sector_count
 .bss.fill_spare_size
                0x0000000000313c48        0x2 drivers/built-in.o
                0x0000000000313c48                fill_spare_size
 *fill*         0x0000000000313c4a        0x2 
 .bss.flash_ddr_tuning_sdr_read_count
                0x0000000000313c4c        0x4 drivers/built-in.o
 .bss.flash_read_retry
                0x0000000000313c50        0x8 drivers/built-in.o
                0x0000000000313c50                flash_read_retry
 .bss.free_buf_count
                0x0000000000313c58        0x1 drivers/built-in.o
                0x0000000000313c58                free_buf_count
 *fill*         0x0000000000313c59        0x1 
 .bss.free_mix_sblk
                0x0000000000313c5a        0x2 drivers/built-in.o
                0x0000000000313c5a                free_mix_sblk
 .bss.free_slc_sblk
                0x0000000000313c5c        0x2 drivers/built-in.o
                0x0000000000313c5c                free_slc_sblk
 .bss.free_xlc_sblk
                0x0000000000313c5e        0x2 drivers/built-in.o
                0x0000000000313c5e                free_xlc_sblk
 .bss.ftl_ext_info_data_buffer
                0x0000000000313c60        0x8 drivers/built-in.o
                0x0000000000313c60                ftl_ext_info_data_buffer
 .bss.ftl_ext_info_first_write
                0x0000000000313c68        0x1 drivers/built-in.o
                0x0000000000313c68                ftl_ext_info_first_write
 *fill*         0x0000000000313c69        0x3 
 .bss.ftl_flush_jiffies
                0x0000000000313c6c        0x4 drivers/built-in.o
                0x0000000000313c6c                ftl_flush_jiffies
 .bss.ftl_info_data_buffer
                0x0000000000313c70        0x8 drivers/built-in.o
                0x0000000000313c70                ftl_info_data_buffer
 *fill*         0x0000000000313c78        0x8 
 .bss.ftl_info_spare
                0x0000000000313c80      0x100 drivers/built-in.o
                0x0000000000313c80                ftl_info_spare
 .bss.ftl_power_lost_flag
                0x0000000000313d80        0x1 drivers/built-in.o
                0x0000000000313d80                ftl_power_lost_flag
 *fill*         0x0000000000313d81        0x7 
 .bss.ftl_sblk_lpa_tbl
                0x0000000000313d88        0x8 drivers/built-in.o
                0x0000000000313d88                ftl_sblk_lpa_tbl
 .bss.ftl_sblk_update_list
                0x0000000000313d90       0x10 drivers/built-in.o
                0x0000000000313d90                ftl_sblk_update_list
 .bss.ftl_sblk_update_list_offset
                0x0000000000313da0        0x2 drivers/built-in.o
                0x0000000000313da0                ftl_sblk_update_list_offset
 *fill*         0x0000000000313da2        0x6 
 .bss.ftl_sblk_vpn
                0x0000000000313da8        0x8 drivers/built-in.o
                0x0000000000313da8                ftl_sblk_vpn
 .bss.ftl_sblk_vpn_update_id
                0x0000000000313db0        0x2 drivers/built-in.o
                0x0000000000313db0                ftl_sblk_vpn_update_id
 .bss.ftl_sys_info_first_write
                0x0000000000313db2        0x1 drivers/built-in.o
                0x0000000000313db2                ftl_sys_info_first_write
 *fill*         0x0000000000313db3        0x5 
 .bss.ftl_tmp_buffer
                0x0000000000313db8        0x8 drivers/built-in.o
                0x0000000000313db8                ftl_tmp_buffer
 .bss.ftl_tmp_spare
                0x0000000000313dc0      0x100 drivers/built-in.o
                0x0000000000313dc0                ftl_tmp_spare
 .bss.ftl_vpn_update_count
                0x0000000000313ec0        0x2 drivers/built-in.o
                0x0000000000313ec0                ftl_vpn_update_count
 .bss.g_block_align_addr
                0x0000000000313ec2        0x2 drivers/built-in.o
                0x0000000000313ec2                g_block_align_addr
 *fill*         0x0000000000313ec4        0x4 
 .bss.g_buf     0x0000000000313ec8      0x800 drivers/built-in.o
                0x0000000000313ec8                g_buf
 .bss.g_die_addr
                0x00000000003146c8       0x20 drivers/built-in.o
                0x00000000003146c8                g_die_addr
 .bss.g_die_cs_idx
                0x00000000003146e8        0x8 drivers/built-in.o
                0x00000000003146e8                g_die_cs_idx
 .bss.g_flash_3d_mlc_flag
                0x00000000003146f0        0x1 drivers/built-in.o
                0x00000000003146f0                g_flash_3d_mlc_flag
 .bss.g_flash_3d_tlc_flag
                0x00000000003146f1        0x1 drivers/built-in.o
                0x00000000003146f1                g_flash_3d_tlc_flag
 *fill*         0x00000000003146f2        0x6 
 .bss.g_flash_blk_info
                0x00000000003146f8        0x4 drivers/built-in.o
                0x00000000003146f8                g_flash_blk_info
 *fill*         0x00000000003146fc        0x4 
 .bss.g_flash_cur_mode
                0x0000000000314700        0x4 drivers/built-in.o
                0x0000000000314700                g_flash_cur_mode
 .bss.g_flash_interface_mode
                0x0000000000314704        0x1 drivers/built-in.o
                0x0000000000314704                g_flash_interface_mode
 .bss.g_flash_micron_3d_tlc_b05a
                0x0000000000314705        0x1 drivers/built-in.o
                0x0000000000314705                g_flash_micron_3d_tlc_b05a
 .bss.g_flash_micron_3d_tlc_b16a
                0x0000000000314706        0x1 drivers/built-in.o
                0x0000000000314706                g_flash_micron_3d_tlc_b16a
 .bss.g_flash_micron_3d_tlc_flag
                0x0000000000314707        0x1 drivers/built-in.o
                0x0000000000314707                g_flash_micron_3d_tlc_flag
 .bss.g_flash_multi_page_prog_en
                0x0000000000314708        0x1 drivers/built-in.o
                0x0000000000314708                g_flash_multi_page_prog_en
 .bss.g_flash_multi_page_read_en
                0x0000000000314709        0x1 drivers/built-in.o
                0x0000000000314709                g_flash_multi_page_read_en
 *fill*         0x000000000031470a        0x6 
 .bss.g_flash_page_buffer
                0x0000000000314710        0x8 drivers/built-in.o
                0x0000000000314710                g_flash_page_buffer
 .bss.g_flash_reversd_blks
                0x0000000000314718        0x1 drivers/built-in.o
                0x0000000000314718                g_flash_reversd_blks
 .bss.g_flash_six_addr
                0x0000000000314719        0x1 drivers/built-in.o
                0x0000000000314719                g_flash_six_addr
 .bss.g_flash_slc_mode
                0x000000000031471a        0x1 drivers/built-in.o
                0x000000000031471a                g_flash_slc_mode
 *fill*         0x000000000031471b        0x5 
 .bss.g_flash_spare_buffer
                0x0000000000314720        0x8 drivers/built-in.o
                0x0000000000314720                g_flash_spare_buffer
 .bss.g_flash_sys_spare_buffer
                0x0000000000314728        0x8 drivers/built-in.o
                0x0000000000314728                g_flash_sys_spare_buffer
 .bss.g_flash_tmp_page_buffer
                0x0000000000314730        0x8 drivers/built-in.o
                0x0000000000314730                g_flash_tmp_page_buffer
 .bss.g_flash_tmp_spare_buffer
                0x0000000000314738        0x8 drivers/built-in.o
                0x0000000000314738                g_flash_tmp_spare_buffer
 .bss.g_flash_toggle_mode_en
                0x0000000000314740        0x1 drivers/built-in.o
                0x0000000000314740                g_flash_toggle_mode_en
 .bss.g_flash_ymtc_3d_tlc_flag
                0x0000000000314741        0x1 drivers/built-in.o
                0x0000000000314741                g_flash_ymtc_3d_tlc_flag
 *fill*         0x0000000000314742       0x3e 
 .bss.g_ftl_info_blk
                0x0000000000314780        0x4 drivers/built-in.o
                0x0000000000314780                g_ftl_info_blk
 *fill*         0x0000000000314784        0x4 
 .bss.g_gc_info
                0x0000000000314788      0x8a8 drivers/built-in.o
                0x0000000000314788                g_gc_info
 .bss.g_idb_ecc_bits
                0x0000000000315030        0x1 drivers/built-in.o
                0x0000000000315030                g_idb_ecc_bits
 .bss.g_idb_slc_mode_enable
                0x0000000000315031        0x1 drivers/built-in.o
                0x0000000000315031                g_idb_slc_mode_enable
 *fill*         0x0000000000315032        0x2 
 .bss.g_lsb_page_tbl
                0x0000000000315034      0x400 drivers/built-in.o
                0x0000000000315034                g_lsb_page_tbl
 .bss.g_maxRegNum
                0x0000000000315434        0x1 drivers/built-in.o
                0x0000000000315434                g_maxRegNum
 .bss.g_maxRetryCount
                0x0000000000315435        0x1 drivers/built-in.o
                0x0000000000315435                g_maxRetryCount
 *fill*         0x0000000000315436        0x2 
 .bss.g_msb_page_tbl
                0x0000000000315438      0x800 drivers/built-in.o
                0x0000000000315438                g_msb_page_tbl
 .bss.g_nand_max_die
                0x0000000000315c38        0x1 drivers/built-in.o
                0x0000000000315c38                g_nand_max_die
 *fill*         0x0000000000315c39        0x7 
 .bss.g_nand_opt_para
                0x0000000000315c40       0x20 drivers/built-in.o
                0x0000000000315c40                g_nand_opt_para
 .bss.g_nandc_ecc_bits
                0x0000000000315c60        0x1 drivers/built-in.o
                0x0000000000315c60                g_nandc_ecc_bits
 .bss.g_nandc_tran_timeout
                0x0000000000315c61        0x1 drivers/built-in.o
                0x0000000000315c61                g_nandc_tran_timeout
 *fill*         0x0000000000315c62        0x6 
 .bss.g_nandc_v6_master_info
                0x0000000000315c68       0x28 drivers/built-in.o
                0x0000000000315c68                g_nandc_v6_master_info
 .bss.g_nandc_ver
                0x0000000000315c90        0x1 drivers/built-in.o
                0x0000000000315c90                g_nandc_ver
 .bss.g_one_pass_program
                0x0000000000315c91        0x1 drivers/built-in.o
                0x0000000000315c91                g_one_pass_program
 *fill*         0x0000000000315c92        0x6 
 .bss.g_pm_spare
                0x0000000000315c98        0x8 drivers/built-in.o
                0x0000000000315c98                g_pm_spare
 .bss.g_retryMode
                0x0000000000315ca0        0x1 drivers/built-in.o
                0x0000000000315ca0                g_retryMode
 .bss.g_slc_mode_addr2
                0x0000000000315ca1        0x1 drivers/built-in.o
                0x0000000000315ca1                g_slc_mode_addr2
 .bss.g_slc_page_num
                0x0000000000315ca2        0x2 drivers/built-in.o
                0x0000000000315ca2                g_slc_page_num
 .bss.g_totle_phy_block
                0x0000000000315ca4        0x2 drivers/built-in.o
                0x0000000000315ca4                g_totle_phy_block
 *fill*         0x0000000000315ca6        0x2 
 .bss.gc_des_ppa_tbl
                0x0000000000315ca8        0x8 drivers/built-in.o
                0x0000000000315ca8                gc_des_ppa_tbl
 .bss.gc_free_slc_sblk_th
                0x0000000000315cb0        0x2 drivers/built-in.o
                0x0000000000315cb0                gc_free_slc_sblk_th
 *fill*         0x0000000000315cb2        0x6 
 .bss.gc_lpa_tbl
                0x0000000000315cb8        0x8 drivers/built-in.o
                0x0000000000315cb8                gc_lpa_tbl
 .bss.gc_mode   0x0000000000315cc0        0x1 drivers/built-in.o
                0x0000000000315cc0                gc_mode
 *fill*         0x0000000000315cc1        0x7 
 .bss.gc_page_buf_id
                0x0000000000315cc8        0x8 drivers/built-in.o
                0x0000000000315cc8                gc_page_buf_id
 .bss.gc_pre_ppa_tbl
                0x0000000000315cd0        0x8 drivers/built-in.o
                0x0000000000315cd0                gc_pre_ppa_tbl
 .bss.gc_search_count
                0x0000000000315cd8        0x4 drivers/built-in.o
 .bss.gc_slc_cache_index
                0x0000000000315cdc        0x2 drivers/built-in.o
                0x0000000000315cdc                gc_slc_cache_index
 .bss.gc_slc_data_index
                0x0000000000315cde        0x2 drivers/built-in.o
                0x0000000000315cde                gc_slc_data_index
 .bss.gc_slc_mode_slc_vpn_th
                0x0000000000315ce0        0x2 drivers/built-in.o
                0x0000000000315ce0                gc_slc_mode_slc_vpn_th
 .bss.gc_slc_mode_tlc_vpn_th
                0x0000000000315ce2        0x2 drivers/built-in.o
                0x0000000000315ce2                gc_slc_mode_tlc_vpn_th
 .bss.gc_slc_mode_vpn_th
                0x0000000000315ce4        0x2 drivers/built-in.o
                0x0000000000315ce4                gc_slc_mode_vpn_th
 .bss.gc_state  0x0000000000315ce6        0x1 drivers/built-in.o
                0x0000000000315ce6                gc_state
 *fill*         0x0000000000315ce7        0x1 
 .bss.gc_tlc_mode_slc_vpn_th
                0x0000000000315ce8        0x2 drivers/built-in.o
                0x0000000000315ce8                gc_tlc_mode_slc_vpn_th
 .bss.gc_tlc_mode_tlc_vpn_th
                0x0000000000315cea        0x2 drivers/built-in.o
                0x0000000000315cea                gc_tlc_mode_tlc_vpn_th
 *fill*         0x0000000000315cec        0x4 
 .bss.gc_valid_page_ppa
                0x0000000000315cf0        0x8 drivers/built-in.o
                0x0000000000315cf0                gc_valid_page_ppa
 .bss.gc_xlc_data_index
                0x0000000000315cf8        0x2 drivers/built-in.o
                0x0000000000315cf8                gc_xlc_data_index
 .bss.gc_xlc_search_index
                0x0000000000315cfa        0x2 drivers/built-in.o
                0x0000000000315cfa                gc_xlc_search_index
 *fill*         0x0000000000315cfc        0x4 
 .bss.gp_blk_info
                0x0000000000315d00        0x8 drivers/built-in.o
                0x0000000000315d00                gp_blk_info
 .bss.gp_data_slc_cache_head
                0x0000000000315d08        0x8 drivers/built-in.o
                0x0000000000315d08                gp_data_slc_cache_head
 .bss.gp_data_slc_data_head
                0x0000000000315d10        0x8 drivers/built-in.o
                0x0000000000315d10                gp_data_slc_data_head
 .bss.gp_data_xlc_data_head
                0x0000000000315d18        0x8 drivers/built-in.o
                0x0000000000315d18                gp_data_xlc_data_head
 .bss.gp_flash_check_buf
                0x0000000000315d20        0x8 drivers/built-in.o
 .bss.gp_flash_info
                0x0000000000315d28        0x8 drivers/built-in.o
                0x0000000000315d28                gp_flash_info
 .bss.gp_free_mix_head
                0x0000000000315d30        0x8 drivers/built-in.o
                0x0000000000315d30                gp_free_mix_head
 .bss.gp_free_slc_head
                0x0000000000315d38        0x8 drivers/built-in.o
                0x0000000000315d38                gp_free_slc_head
 .bss.gp_free_xlc_head
                0x0000000000315d40        0x8 drivers/built-in.o
                0x0000000000315d40                gp_free_xlc_head
 .bss.gp_ftl_ext_info
                0x0000000000315d48        0x8 drivers/built-in.o
                0x0000000000315d48                gp_ftl_ext_info
 .bss.gp_ftl_info
                0x0000000000315d50        0x8 drivers/built-in.o
                0x0000000000315d50                gp_ftl_info
 .bss.gp_nand_para_info
                0x0000000000315d58        0x8 drivers/built-in.o
                0x0000000000315d58                gp_nand_para_info
 .bss.gp_nandc  0x0000000000315d60        0x8 drivers/built-in.o
                0x0000000000315d60                gp_nandc
 .bss.gp_sblk_list_tbl
                0x0000000000315d68        0x8 drivers/built-in.o
                0x0000000000315d68                gp_sblk_list_tbl
 .bss.idb_buf   0x0000000000315d70        0x8 drivers/built-in.o
 .bss.idb_last_lba
                0x0000000000315d78        0x4 drivers/built-in.o
 .bss.idb_need_write_back
                0x0000000000315d7c        0x4 drivers/built-in.o
 .bss.idb_write_enable
                0x0000000000315d80        0x1 drivers/built-in.o
 *fill*         0x0000000000315d81        0x7 
 .bss.lpa_hash  0x0000000000315d88      0x200 drivers/built-in.o
                0x0000000000315d88                lpa_hash
 .bss.lpa_hash_index
                0x0000000000315f88        0x8 drivers/built-in.o
                0x0000000000315f88                lpa_hash_index
 .bss.nandc_hw_seed
                0x0000000000315f90        0x1 drivers/built-in.o
                0x0000000000315f90                nandc_hw_seed
 .bss.nandc_randomizer_en
                0x0000000000315f91        0x1 drivers/built-in.o
                0x0000000000315f91                nandc_randomizer_en
 .bss.p_free_buf_head
                0x0000000000315f92        0x1 drivers/built-in.o
                0x0000000000315f92                p_free_buf_head
 .bss.pm_first_write
                0x0000000000315f93        0x1 drivers/built-in.o
                0x0000000000315f93                pm_first_write
 .bss.pm_force_gc
                0x0000000000315f94        0x4 drivers/built-in.o
                0x0000000000315f94                pm_force_gc
 .bss.pm_gc_enable
                0x0000000000315f98        0x4 drivers/built-in.o
                0x0000000000315f98                pm_gc_enable
 .bss.pm_last_load_ram_id
                0x0000000000315f9c        0x1 drivers/built-in.o
                0x0000000000315f9c                pm_last_load_ram_id
 .bss.pm_last_update_ram_id
                0x0000000000315f9d        0x1 drivers/built-in.o
                0x0000000000315f9d                pm_last_update_ram_id
 *fill*         0x0000000000315f9e        0x2 
 .bss.pm_ram_info
                0x0000000000315fa0      0x200 drivers/built-in.o
                0x0000000000315fa0                pm_ram_info
 .bss.read_ahead_lpa
                0x00000000003161a0        0x4 drivers/built-in.o
                0x00000000003161a0                read_ahead_lpa
 .bss.read_buf_count
                0x00000000003161a4        0x1 drivers/built-in.o
                0x00000000003161a4                read_buf_count
 .bss.read_buf_head
                0x00000000003161a5        0x1 drivers/built-in.o
                0x00000000003161a5                read_buf_head
 .bss.sblk_gc_write_completed_queue_head
                0x00000000003161a6        0x1 drivers/built-in.o
                0x00000000003161a6                sblk_gc_write_completed_queue_head
 .bss.sblk_queue_head
                0x00000000003161a7        0x1 drivers/built-in.o
                0x00000000003161a7                sblk_queue_head
 .bss.sblk_read_completed_queue_head
                0x00000000003161a8        0x1 drivers/built-in.o
                0x00000000003161a8                sblk_read_completed_queue_head
 .bss.sblk_write_completed_queue_head
                0x00000000003161a9        0x1 drivers/built-in.o
                0x00000000003161a9                sblk_write_completed_queue_head
 .bss.slc_cache_sblk
                0x00000000003161aa        0x2 drivers/built-in.o
                0x00000000003161aa                slc_cache_sblk
 .bss.slc_data_sblk
                0x00000000003161ac        0x2 drivers/built-in.o
                0x00000000003161ac                slc_data_sblk
 .bss.write_buf_count
                0x00000000003161ae        0x1 drivers/built-in.o
                0x00000000003161ae                write_buf_count
 .bss.write_buf_head
                0x00000000003161af        0x1 drivers/built-in.o
                0x00000000003161af                write_buf_head
 .bss.write_commit_count
                0x00000000003161b0        0x1 drivers/built-in.o
                0x00000000003161b0                write_commit_count
 .bss.write_commit_head
                0x00000000003161b1        0x1 drivers/built-in.o
                0x00000000003161b1                write_commit_head
 .bss.xlc_data_sblk
                0x00000000003161b2        0x2 drivers/built-in.o
                0x00000000003161b2                xlc_data_sblk
 .bss.zftl_print_list_count
                0x00000000003161b4        0x2 drivers/built-in.o
                0x00000000003161b4                zftl_print_list_count
 .bss.__print_once.1
                0x00000000003161b6        0x1 drivers/built-in.o
 *fill*         0x00000000003161b7        0x1 
 .bss.base_parameter
                0x00000000003161b8    0x61608 drivers/built-in.o
 .bss.crc32_table
                0x00000000003777c0      0x400 drivers/built-in.o
 .bss.cubic_lut_memory_start
                0x0000000000377bc0        0x8 drivers/built-in.o
 .bss.get_plane_mask_from_dts.0
                0x0000000000377bc8        0x1 drivers/built-in.o
 *fill*         0x0000000000377bc9        0x7 
 .bss.memory_end
                0x0000000000377bd0        0x8 drivers/built-in.o
 .bss.memory_start
                0x0000000000377bd8        0x8 drivers/built-in.o
 .bss.rockchip_vop2
                0x0000000000377be0        0x8 drivers/built-in.o
 .bss.vop_fix_dts.4
                0x0000000000377be8        0x1 drivers/built-in.o
 *fill*         0x0000000000377be9        0x3 
 .bss.bounding_cnt.1
                0x0000000000377bec        0x4 drivers/built-in.o
 .bss.count.0   0x0000000000377bf0        0x8 drivers/power/built-in.o
 .bss.timer_initialized.1
                0x0000000000377bf8        0x4 drivers/power/built-in.o
 .bss.epnum     0x0000000000377bfc        0x4 drivers/usb/gadget/built-in.o
 .bss.clear_feature_flag
                0x0000000000377c00        0x4 drivers/usb/gadget/built-in.o
                0x0000000000377c00                clear_feature_flag
 .bss.clear_feature_num
                0x0000000000377c04        0x1 drivers/usb/gadget/built-in.o
 *fill*         0x0000000000377c05        0x3 
 .bss.reg       0x0000000000377c08        0x8 drivers/usb/gadget/built-in.o
                0x0000000000377c08                reg
 .bss.the_controller
                0x0000000000377c10        0x8 drivers/usb/gadget/built-in.o
                0x0000000000377c10                the_controller
 .bss.usb_ctrl  0x0000000000377c18        0x8 drivers/usb/gadget/built-in.o
 .bss.usb_ctrl_dma_addr
                0x0000000000377c20        0x8 drivers/usb/gadget/built-in.o
 .bss.composite
                0x0000000000377c28        0x8 drivers/usb/gadget/built-in.o
 .bss.g_dnl_detach_request
                0x0000000000377c30        0x1 drivers/usb/gadget/built-in.o
 .bss.g_dnl_serial
                0x0000000000377c31      0x100 drivers/usb/gadget/built-in.o
 *fill*         0x0000000000377d31        0x3 
 .bss.rkusb_rst_code
                0x0000000000377d34        0x4 drivers/usb/gadget/built-in.o
 .bss.state.11  0x0000000000377d38        0x4 drivers/usb/gadget/built-in.o
 *fill*         0x0000000000377d3c        0x4 
 .bss.the_fsg_common
                0x0000000000377d40        0x8 drivers/usb/gadget/built-in.o
 .bss.ums       0x0000000000377d48        0x8 drivers/usb/gadget/built-in.o
 .bss.ums_count
                0x0000000000377d50        0x4 drivers/usb/gadget/built-in.o
 .bss.unknown.9
                0x0000000000377d54       0x10 drivers/usb/gadget/built-in.o
 .bss.usb_check_buffer.14
                0x0000000000377d64   0x100000 drivers/usb/gadget/built-in.o
 .bss.download_bytes
                0x0000000000477d64        0x4 drivers/usb/gadget/built-in.o
 .bss.download_size
                0x0000000000477d68        0x4 drivers/usb/gadget/built-in.o
 *fill*         0x0000000000477d6c        0x4 
 .bss.fastboot_func
                0x0000000000477d70        0x8 drivers/usb/gadget/built-in.o
 .bss.intthread_wakeup_needed
                0x0000000000477d78        0x4 drivers/usb/gadget/built-in.o
 .bss.start_upload
                0x0000000000477d7c        0x1 drivers/usb/gadget/built-in.o
 *fill*         0x0000000000477d7d        0x3 
 .bss.state.0   0x0000000000477d80        0x4 drivers/usb/gadget/built-in.o
 .bss.upload_bytes
                0x0000000000477d84        0x4 drivers/usb/gadget/built-in.o
 .bss.upload_size
                0x0000000000477d88        0x4 drivers/usb/gadget/built-in.o
 .bss.asynch_allowed
                0x0000000000477d8c        0x1 drivers/usb/host/built-in.o
 *fill*         0x0000000000477d8d        0x3 
 .bss.callback_list
                0x0000000000477d90        0x8 env/built-in.o
 .bss.flags_list
                0x0000000000477d98        0x8 env/built-in.o
 .bss.fs_dev_desc
                0x0000000000477da0        0x8 fs/built-in.o
 .bss.fs_dev_part
                0x0000000000477da8        0x4 fs/built-in.o
 *fill*         0x0000000000477dac        0x4 
 .bss.fs_partition
                0x0000000000477db0       0x88 fs/built-in.o
 .bss.fs_type   0x0000000000477e38        0x4 fs/built-in.o
 *fill*         0x0000000000477e3c        0x4 
 .bss.ext_fs    0x0000000000477e40       0x68 fs/built-in.o
                0x0000000000477e40                ext_fs
 .bss.ext4fs_file
                0x0000000000477ea8        0x8 fs/built-in.o
                0x0000000000477ea8                ext4fs_file
 .bss.ext4fs_indir1_block
                0x0000000000477eb0        0x8 fs/built-in.o
                0x0000000000477eb0                ext4fs_indir1_block
 .bss.ext4fs_indir1_size
                0x0000000000477eb8        0x4 fs/built-in.o
                0x0000000000477eb8                ext4fs_indir1_size
 *fill*         0x0000000000477ebc        0x4 
 .bss.ext4fs_indir2_block
                0x0000000000477ec0        0x8 fs/built-in.o
                0x0000000000477ec0                ext4fs_indir2_block
 .bss.ext4fs_indir2_size
                0x0000000000477ec8        0x4 fs/built-in.o
                0x0000000000477ec8                ext4fs_indir2_size
 *fill*         0x0000000000477ecc        0x4 
 .bss.ext4fs_indir3_block
                0x0000000000477ed0        0x8 fs/built-in.o
                0x0000000000477ed0                ext4fs_indir3_block
 .bss.ext4fs_indir3_size
                0x0000000000477ed8        0x4 fs/built-in.o
                0x0000000000477ed8                ext4fs_indir3_size
 *fill*         0x0000000000477edc        0x4 
 .bss.ext4fs_root
                0x0000000000477ee0        0x8 fs/built-in.o
                0x0000000000477ee0                ext4fs_root
 .bss.symlinknest
                0x0000000000477ee8        0x4 fs/built-in.o
 *fill*         0x0000000000477eec        0x4 
 .bss.part_info
                0x0000000000477ef0        0x8 fs/built-in.o
 .bss.part_offset
                0x0000000000477ef8        0x8 fs/built-in.o
                0x0000000000477ef8                part_offset
 .bss.cur_dev   0x0000000000477f00        0x8 fs/built-in.o
 .bss.cur_part_info
                0x0000000000477f08       0x88 fs/built-in.o
 .bss.dir_curclust
                0x0000000000477f90        0x4 fs/built-in.o
 *fill*         0x0000000000477f94       0x2c 
 .bss.do_fat_read_at_block
                0x0000000000477fc0    0x10000 fs/built-in.o
                0x0000000000477fc0                do_fat_read_at_block
 .bss.empty_dentptr
                0x0000000000487fc0        0x8 fs/built-in.o
 *fill*         0x0000000000487fc8       0x38 
 .bss.get_contents_vfatname_block
                0x0000000000488000    0x10000 fs/built-in.o
                0x0000000000488000                get_contents_vfatname_block
 .bss.get_dentfromdir_block
                0x0000000000498000    0x10000 fs/built-in.o
                0x0000000000498000                get_dentfromdir_block
 .bss.num_of_fats
                0x00000000004a8000        0x1 fs/built-in.o
 *fill*         0x00000000004a8001        0x3 
 .bss.total_sector
                0x00000000004a8004        0x4 fs/built-in.o
 .bss.depth.0   0x00000000004a8008        0x4 lib/built-in.o
 *fill*         0x00000000004a800c        0x4 
 .bss.alloc_flags
                0x00000000004a8010      0x320 lib/built-in.o
                0x00000000004a8010                alloc_flags
 .bss.my_count  0x00000000004a8330        0x4 lib/built-in.o
                0x00000000004a8330                my_count
 *fill*         0x00000000004a8334        0x4 
 .bss.my_flag   0x00000000004a8338        0x8 lib/built-in.o
                0x00000000004a8338                my_flag
 .bss.my_mem_start
                0x00000000004a8340        0x8 lib/built-in.o
                0x00000000004a8340                my_mem_start
 .bss.optee_is_init
                0x00000000004a8348        0x1 lib/built-in.o
 *fill*         0x00000000004a8349        0x1 
 .bss.global_block_count
                0x00000000004a834a        0x2 lib/built-in.o
                0x00000000004a834a                global_block_count
 .bss.rkss_version
                0x00000000004a834c        0x4 lib/built-in.o
 .bss.dev_desc  0x00000000004a8350       0x10 lib/built-in.o
 .bss.dir_cache
                0x00000000004a8360      0xabc lib/built-in.o
 .bss.dir_num   0x00000000004a8e1c        0x8 lib/built-in.o
 .bss.dir_seek  0x00000000004a8e24        0x8 lib/built-in.o
 *fill*         0x00000000004a8e2c        0x4 
 .bss.part_info
                0x00000000004a8e30      0x110 lib/built-in.o
 .bss.rkss_buffer
                0x00000000004a8f40       0x40 lib/built-in.o
 .bss.rkss_info
                0x00000000004a8f80      0x140 lib/built-in.o
 .bss.last_unlock_challenge
                0x00000000004a90c0       0x10 lib/built-in.o
 .bss.last_unlock_challenge_set
                0x00000000004a90d0        0x1 lib/built-in.o
 *fill*         0x00000000004a90d1        0x3 
 .bss.errno     0x00000000004a90d4        0x4 lib/built-in.o
                0x00000000004a90d4                errno
 .bss.___strtok
                0x00000000004a90d8        0x8 lib/built-in.o
                0x00000000004a90d8                ___strtok
 .bss.local.0   0x00000000004a90e0       0x16 lib/built-in.o
 *fill*         0x00000000004a90f6        0x2 
 .bss.arp_tx_packet
                0x00000000004a90f8        0x8 net/built-in.o
 .bss.arp_tx_packet_buf
                0x00000000004a9100      0x640 net/built-in.o
 .bss.arp_wait_packet_ethaddr
                0x00000000004a9740        0x8 net/built-in.o
                0x00000000004a9740                arp_wait_packet_ethaddr
 .bss.arp_wait_timer_start
                0x00000000004a9748        0x8 net/built-in.o
                0x00000000004a9748                arp_wait_timer_start
 .bss.arp_wait_try
                0x00000000004a9750        0x4 net/built-in.o
                0x00000000004a9750                arp_wait_try
 .bss.arp_wait_tx_packet_size
                0x00000000004a9754        0x4 net/built-in.o
                0x00000000004a9754                arp_wait_tx_packet_size
 .bss.net_arp_wait_packet_ip
                0x00000000004a9758        0x4 net/built-in.o
                0x00000000004a9758                net_arp_wait_packet_ip
 .bss.net_arp_wait_reply_ip
                0x00000000004a975c        0x4 net/built-in.o
 .bss.bootp_ids
                0x00000000004a9760       0x10 net/built-in.o
                0x00000000004a9760                bootp_ids
 .bss.bootp_num_ids
                0x00000000004a9770        0x4 net/built-in.o
                0x00000000004a9770                bootp_num_ids
 *fill*         0x00000000004a9774        0x4 
 .bss.bootp_start
                0x00000000004a9778        0x8 net/built-in.o
                0x00000000004a9778                bootp_start
 .bss.bootp_timeout
                0x00000000004a9780        0x8 net/built-in.o
                0x00000000004a9780                bootp_timeout
 .bss.bootp_try
                0x00000000004a9788        0x4 net/built-in.o
                0x00000000004a9788                bootp_try
 .bss.dhcp_leasetime
                0x00000000004a978c        0x4 net/built-in.o
 .bss.dhcp_option_overload
                0x00000000004a9790        0x1 net/built-in.o
 *fill*         0x00000000004a9791        0x3 
 .bss.dhcp_server_ip
                0x00000000004a9794        0x4 net/built-in.o
 .bss.dhcp_state
                0x00000000004a9798        0x4 net/built-in.o
 .bss.net_hostname
                0x00000000004a979c       0x20 net/built-in.o
                0x00000000004a979c                net_hostname
 .bss.net_nis_domain
                0x00000000004a97bc       0x20 net/built-in.o
                0x00000000004a97bc                net_nis_domain
 .bss.net_root_path
                0x00000000004a97dc       0x40 net/built-in.o
                0x00000000004a97dc                net_root_path
 *fill*         0x00000000004a981c        0x4 
 .bss.time_taken_max
                0x00000000004a9820        0x8 net/built-in.o
 .bss.eth_errno
                0x00000000004a9828        0x4 net/built-in.o
 *fill*         0x00000000004a982c        0x4 
 .bss.act.1     0x00000000004a9830        0x8 net/built-in.o
 .bss.env_changed_id.0
                0x00000000004a9838        0x4 net/built-in.o
 *fill*         0x00000000004a983c        0x4 
 .bss.first_failed.2
                0x00000000004a9840        0x8 net/built-in.o
 .bss.arp_packet_handler
                0x00000000004a9848        0x8 net/built-in.o
 .bss.net_boot_file_expected_size_in_blocks
                0x00000000004a9850        0x4 net/built-in.o
                0x00000000004a9850                net_boot_file_expected_size_in_blocks
 .bss.net_boot_file_name
                0x00000000004a9854      0x400 net/built-in.o
                0x00000000004a9854                net_boot_file_name
 .bss.net_boot_file_size
                0x00000000004a9c54        0x4 net/built-in.o
                0x00000000004a9c54                net_boot_file_size
 .bss.net_dev_exists
                0x00000000004a9c58        0x4 net/built-in.o
 .bss.net_dns_server
                0x00000000004a9c5c        0x4 net/built-in.o
                0x00000000004a9c5c                net_dns_server
 .bss.net_ethaddr
                0x00000000004a9c60        0x6 net/built-in.o
                0x00000000004a9c60                net_ethaddr
 *fill*         0x00000000004a9c66        0x2 
 .bss.net_gateway
                0x00000000004a9c68        0x4 net/built-in.o
                0x00000000004a9c68                net_gateway
 .bss.net_ip    0x00000000004a9c6c        0x4 net/built-in.o
                0x00000000004a9c6c                net_ip
 .bss.net_ip_id
                0x00000000004a9c70        0x4 net/built-in.o
 .bss.net_netmask
                0x00000000004a9c74        0x4 net/built-in.o
                0x00000000004a9c74                net_netmask
 .bss.net_pkt_buf
                0x00000000004a9c78     0x1e40 net/built-in.o
 .bss.net_restart_wrap
                0x00000000004abab8        0x4 net/built-in.o
                0x00000000004abab8                net_restart_wrap
 .bss.net_restarted
                0x00000000004ababc        0x4 net/built-in.o
 .bss.net_rx_packet
                0x00000000004abac0        0x8 net/built-in.o
                0x00000000004abac0                net_rx_packet
 .bss.net_rx_packet_len
                0x00000000004abac8        0x4 net/built-in.o
                0x00000000004abac8                net_rx_packet_len
 *fill*         0x00000000004abacc        0x4 
 .bss.net_rx_packets
                0x00000000004abad0       0x20 net/built-in.o
                0x00000000004abad0                net_rx_packets
 .bss.net_server_ethaddr
                0x00000000004abaf0        0x6 net/built-in.o
                0x00000000004abaf0                net_server_ethaddr
 *fill*         0x00000000004abaf6        0x2 
 .bss.net_server_ip
                0x00000000004abaf8        0x4 net/built-in.o
                0x00000000004abaf8                net_server_ip
 .bss.net_state
                0x00000000004abafc        0x4 net/built-in.o
                0x00000000004abafc                net_state
 .bss.net_try_count
                0x00000000004abb00        0x4 net/built-in.o
 *fill*         0x00000000004abb04        0x4 
 .bss.net_tx_packet
                0x00000000004abb08        0x8 net/built-in.o
                0x00000000004abb08                net_tx_packet
 .bss.time_delta
                0x00000000004abb10        0x8 net/built-in.o
 .bss.time_handler
                0x00000000004abb18        0x8 net/built-in.o
 .bss.time_start
                0x00000000004abb20       0x10 net/built-in.o
 .bss.udp_packet_handler
                0x00000000004abb30        0x8 net/built-in.o
 .bss.dirfh     0x00000000004abb38       0x20 net/built-in.o
 .bss.filefh    0x00000000004abb58       0x40 net/built-in.o
 .bss.filefh3_length
                0x00000000004abb98        0x4 net/built-in.o
 .bss.fs_mounted
                0x00000000004abb9c        0x4 net/built-in.o
 .bss.nfs_download_state
                0x00000000004abba0        0x4 net/built-in.o
 *fill*         0x00000000004abba4        0x4 
 .bss.nfs_filename
                0x00000000004abba8        0x8 net/built-in.o
 .bss.nfs_len   0x00000000004abbb0        0x4 net/built-in.o
 .bss.nfs_our_port
                0x00000000004abbb4        0x4 net/built-in.o
 .bss.nfs_path  0x00000000004abbb8        0x8 net/built-in.o
 .bss.nfs_path_buff
                0x00000000004abbc0      0x800 net/built-in.o
 .bss.nfs_server_ip
                0x00000000004ac3c0        0x4 net/built-in.o
 .bss.nfs_server_mount_port
                0x00000000004ac3c4        0x4 net/built-in.o
 .bss.nfs_server_port
                0x00000000004ac3c8        0x4 net/built-in.o
 .bss.nfs_state
                0x00000000004ac3cc        0x4 net/built-in.o
 .bss.nfs_timeout_count
                0x00000000004ac3d0        0x4 net/built-in.o
 *fill*         0x00000000004ac3d4        0x4 
 .bss.rpc_id    0x00000000004ac3d8        0x8 net/built-in.o
 .bss.net_ping_ip
                0x00000000004ac3e0        0x4 net/built-in.o
                0x00000000004ac3e0                net_ping_ip
 .bss.ping_seq_number
                0x00000000004ac3e4        0x2 net/built-in.o
 .bss.default_filename
                0x00000000004ac3e6        0xd net/built-in.o
 *fill*         0x00000000004ac3f3        0x5 
 .bss.tftp_block_wrap
                0x00000000004ac3f8        0x8 net/built-in.o
 .bss.tftp_block_wrap_offset
                0x00000000004ac400        0x8 net/built-in.o
 .bss.tftp_cur_block
                0x00000000004ac408        0x8 net/built-in.o
 .bss.tftp_filename
                0x00000000004ac410       0x80 net/built-in.o
 .bss.tftp_our_port
                0x00000000004ac490        0x4 net/built-in.o
 *fill*         0x00000000004ac494        0x4 
 .bss.tftp_prev_block
                0x00000000004ac498        0x8 net/built-in.o
 .bss.tftp_remote_ip
                0x00000000004ac4a0        0x4 net/built-in.o
 .bss.tftp_remote_port
                0x00000000004ac4a4        0x4 net/built-in.o
 .bss.tftp_state
                0x00000000004ac4a8        0x4 net/built-in.o
 .bss.timeout_count
                0x00000000004ac4ac        0x4 net/built-in.o
 .bss.irq_exit  0x00000000004ac4b0        0x4 test/built-in.o
 *fill*         0x00000000004ac4b4        0x4 
 .bss.seconds   0x00000000004ac4b8        0x8 test/built-in.o
                0x00000000004ac4c0                . = ALIGN (0x8)

.dynbss         0x00000000004ac4c0        0x0
 .dynbss        0x00000000004ac4c0        0x0 arch/arm/cpu/armv8/start.o

.bss_end        0x00000000004ac4c0        0x0
 *(.__bss_end)
 .__bss_end     0x00000000004ac4c0        0x0 arch/arm/lib/built-in.o
                0x00000000004ac4c0                __bss_end

/DISCARD/
 *(.dynsym)

/DISCARD/
 *(.dynstr*)

/DISCARD/
 *(.dynamic*)

/DISCARD/
 *(.plt*)

/DISCARD/
 *(.interp*)

/DISCARD/
 *(.gnu*)
LOAD arch/arm/cpu/armv8/start.o
START GROUP
LOAD arch/arm/cpu/built-in.o
LOAD arch/arm/cpu/armv8/built-in.o
LOAD arch/arm/lib/built-in.o
LOAD arch/arm/mach-rockchip/built-in.o
LOAD board/rockchip/evb_px30/built-in.o
LOAD cmd/built-in.o
LOAD common/built-in.o
LOAD disk/built-in.o
LOAD drivers/built-in.o
LOAD drivers/cpu/built-in.o
LOAD drivers/dma/built-in.o
LOAD drivers/gpio/built-in.o
LOAD drivers/i2c/built-in.o
LOAD drivers/mtd/built-in.o
LOAD drivers/mtd/onenand/built-in.o
LOAD drivers/mtd/spi/built-in.o
LOAD drivers/net/built-in.o
LOAD drivers/net/phy/built-in.o
LOAD drivers/pci/built-in.o
LOAD drivers/power/built-in.o
LOAD drivers/power/battery/built-in.o
LOAD drivers/power/charge/built-in.o
LOAD drivers/power/domain/built-in.o
LOAD drivers/power/dvfs/built-in.o
LOAD drivers/power/fuel_gauge/built-in.o
LOAD drivers/power/io-domain/built-in.o
LOAD drivers/power/mfd/built-in.o
LOAD drivers/power/pmic/built-in.o
LOAD drivers/power/regulator/built-in.o
LOAD drivers/serial/built-in.o
LOAD drivers/spi/built-in.o
LOAD drivers/usb/cdns3/built-in.o
LOAD drivers/usb/common/built-in.o
LOAD drivers/usb/dwc3/built-in.o
LOAD drivers/usb/emul/built-in.o
LOAD drivers/usb/eth/built-in.o
LOAD drivers/usb/gadget/built-in.o
LOAD drivers/usb/gadget/udc/built-in.o
LOAD drivers/usb/host/built-in.o
LOAD drivers/usb/musb-new/built-in.o
LOAD drivers/usb/musb/built-in.o
LOAD drivers/usb/phy/built-in.o
LOAD drivers/usb/ulpi/built-in.o
LOAD env/built-in.o
LOAD fs/built-in.o
LOAD lib/built-in.o
LOAD net/built-in.o
LOAD test/built-in.o
LOAD test/dm/built-in.o
END GROUP
LOAD /home/yujeong/iMON/iMON_old/px30_linux5.10_release_v1.1.1_20230520/prebuilts/gcc/linux-x86/aarch64/gcc-arm-10.3-2021.07-x86_64-aarch64-none-linux-gnu/bin/../lib/gcc/aarch64-none-linux-gnu/10.3.1/libgcc.a
OUTPUT(u-boot elf64-littleaarch64)
LOAD linker stubs

.debug_line     0x0000000000000000    0xd2e33
 .debug_line    0x0000000000000000       0xca arch/arm/cpu/armv8/start.o
 .debug_line    0x00000000000000ca     0x1b7f arch/arm/cpu/armv8/built-in.o
 .debug_line    0x0000000000001c49     0x1139 arch/arm/lib/built-in.o
 .debug_line    0x0000000000002d82     0x6edb arch/arm/mach-rockchip/built-in.o
 .debug_line    0x0000000000009c5d     0xda11 cmd/built-in.o
 .debug_line    0x000000000001766e    0x1ed7a common/built-in.o
 .debug_line    0x00000000000363e8     0x2f1d disk/built-in.o
 .debug_line    0x0000000000039305    0x4ac34 drivers/built-in.o
 .debug_line    0x0000000000083f39     0x1836 drivers/gpio/built-in.o
 .debug_line    0x000000000008576f     0x147a drivers/i2c/built-in.o
 .debug_line    0x0000000000086be9      0x32c drivers/mtd/spi/built-in.o
 .debug_line    0x0000000000086f15     0x18f7 drivers/net/built-in.o
 .debug_line    0x000000000008880c     0x12bd drivers/net/phy/built-in.o
 .debug_line    0x0000000000089ac9     0x13c9 drivers/power/built-in.o
 .debug_line    0x000000000008ae92      0xfd0 drivers/power/dvfs/built-in.o
 .debug_line    0x000000000008be62      0x4e5 drivers/power/fuel_gauge/built-in.o
 .debug_line    0x000000000008c347      0x7fa drivers/power/io-domain/built-in.o
 .debug_line    0x000000000008cb41     0x1112 drivers/power/pmic/built-in.o
 .debug_line    0x000000000008dc53     0x284b drivers/power/regulator/built-in.o
 .debug_line    0x000000000009049e     0x14b7 drivers/serial/built-in.o
 .debug_line    0x0000000000091955      0xa8f drivers/spi/built-in.o
 .debug_line    0x00000000000923e4     0xab46 drivers/usb/gadget/built-in.o
 .debug_line    0x000000000009cf2a      0x122 drivers/usb/gadget/udc/built-in.o
 .debug_line    0x000000000009d04c     0x5127 drivers/usb/host/built-in.o
 .debug_line    0x00000000000a2173     0x15ef env/built-in.o
 .debug_line    0x00000000000a3762     0x5232 fs/built-in.o
 .debug_line    0x00000000000a8994    0x22e14 lib/built-in.o
 .debug_line    0x00000000000cb7a8     0x57d8 net/built-in.o
 .debug_line    0x00000000000d0f80     0x1c67 test/built-in.o
 .debug_line    0x00000000000d2be7      0x24c test/dm/built-in.o

.debug_info     0x0000000000000000   0x2a327b
 .debug_info    0x0000000000000000       0x2e arch/arm/cpu/armv8/start.o
 .debug_info    0x000000000000002e     0x3d76 arch/arm/cpu/armv8/built-in.o
 .debug_info    0x0000000000003da4     0x55cc arch/arm/lib/built-in.o
 .debug_info    0x0000000000009370    0x1af04 arch/arm/mach-rockchip/built-in.o
 .debug_info    0x0000000000024274    0x36962 cmd/built-in.o
 .debug_info    0x000000000005abd6    0x5a2bf common/built-in.o
 .debug_info    0x00000000000b4e95     0x8178 disk/built-in.o
 .debug_info    0x00000000000bd00d    0xfc073 drivers/built-in.o
 .debug_info    0x00000000001b9080     0x53c4 drivers/gpio/built-in.o
 .debug_info    0x00000000001be444     0x4ef1 drivers/i2c/built-in.o
 .debug_info    0x00000000001c3335     0x2025 drivers/mtd/spi/built-in.o
 .debug_info    0x00000000001c535a     0xabb3 drivers/net/built-in.o
 .debug_info    0x00000000001cff0d     0x3242 drivers/net/phy/built-in.o
 .debug_info    0x00000000001d314f     0x4dd6 drivers/power/built-in.o
 .debug_info    0x00000000001d7f25     0x3ca7 drivers/power/dvfs/built-in.o
 .debug_info    0x00000000001dbbcc     0x141e drivers/power/fuel_gauge/built-in.o
 .debug_info    0x00000000001dcfea     0x2b62 drivers/power/io-domain/built-in.o
 .debug_info    0x00000000001dfb4c     0x4266 drivers/power/pmic/built-in.o
 .debug_info    0x00000000001e3db2     0x8902 drivers/power/regulator/built-in.o
 .debug_info    0x00000000001ec6b4     0x4b97 drivers/serial/built-in.o
 .debug_info    0x00000000001f124b     0x24c3 drivers/spi/built-in.o
 .debug_info    0x00000000001f370e    0x1def4 drivers/usb/gadget/built-in.o
 .debug_info    0x0000000000211602      0xd24 drivers/usb/gadget/udc/built-in.o
 .debug_info    0x0000000000212326    0x124db drivers/usb/host/built-in.o
 .debug_info    0x0000000000224801     0x4d25 env/built-in.o
 .debug_info    0x0000000000229526     0xc9ed fs/built-in.o
 .debug_info    0x0000000000235f13    0x53e83 lib/built-in.o
 .debug_info    0x0000000000289d96     0xea6a net/built-in.o
 .debug_info    0x0000000000298800     0x9908 test/built-in.o
 .debug_info    0x00000000002a2108     0x1173 test/dm/built-in.o

.debug_abbrev   0x0000000000000000    0x4efa2
 .debug_abbrev  0x0000000000000000       0x14 arch/arm/cpu/armv8/start.o
 .debug_abbrev  0x0000000000000014      0xb2e arch/arm/cpu/armv8/built-in.o
 .debug_abbrev  0x0000000000000b42      0xf28 arch/arm/lib/built-in.o
 .debug_abbrev  0x0000000000001a6a     0x396b arch/arm/mach-rockchip/built-in.o
 .debug_abbrev  0x00000000000053d5     0x7ea1 cmd/built-in.o
 .debug_abbrev  0x000000000000d276     0xa212 common/built-in.o
 .debug_abbrev  0x0000000000017488     0x1263 disk/built-in.o
 .debug_abbrev  0x00000000000186eb    0x18990 drivers/built-in.o
 .debug_abbrev  0x000000000003107b      0x90f drivers/gpio/built-in.o
 .debug_abbrev  0x000000000003198a      0xa5c drivers/i2c/built-in.o
 .debug_abbrev  0x00000000000323e6      0x32a drivers/mtd/spi/built-in.o
 .debug_abbrev  0x0000000000032710      0xa50 drivers/net/built-in.o
 .debug_abbrev  0x0000000000033160      0x5aa drivers/net/phy/built-in.o
 .debug_abbrev  0x000000000003370a      0x905 drivers/power/built-in.o
 .debug_abbrev  0x000000000003400f      0x75f drivers/power/dvfs/built-in.o
 .debug_abbrev  0x000000000003476e      0x242 drivers/power/fuel_gauge/built-in.o
 .debug_abbrev  0x00000000000349b0      0x6ad drivers/power/io-domain/built-in.o
 .debug_abbrev  0x000000000003505d      0x7a4 drivers/power/pmic/built-in.o
 .debug_abbrev  0x0000000000035801      0xefa drivers/power/regulator/built-in.o
 .debug_abbrev  0x00000000000366fb      0xa11 drivers/serial/built-in.o
 .debug_abbrev  0x000000000003710c      0x4af drivers/spi/built-in.o
 .debug_abbrev  0x00000000000375bb     0x24c0 drivers/usb/gadget/built-in.o
 .debug_abbrev  0x0000000000039a7b      0x1aa drivers/usb/gadget/udc/built-in.o
 .debug_abbrev  0x0000000000039c25     0x1d08 drivers/usb/host/built-in.o
 .debug_abbrev  0x000000000003b92d     0x1177 env/built-in.o
 .debug_abbrev  0x000000000003caa4     0x1675 fs/built-in.o
 .debug_abbrev  0x000000000003e119     0xd123 lib/built-in.o
 .debug_abbrev  0x000000000004b23c     0x2420 net/built-in.o
 .debug_abbrev  0x000000000004d65c     0x16aa test/built-in.o
 .debug_abbrev  0x000000000004ed06      0x29c test/dm/built-in.o

.debug_aranges  0x0000000000000000    0x12420
 .debug_aranges
                0x0000000000000000       0x30 arch/arm/cpu/armv8/start.o
 .debug_aranges
                0x0000000000000030      0x4e0 arch/arm/cpu/armv8/built-in.o
 .debug_aranges
                0x0000000000000510      0x390 arch/arm/lib/built-in.o
 .debug_aranges
                0x00000000000008a0      0x9c0 arch/arm/mach-rockchip/built-in.o
 .debug_aranges
                0x0000000000001260     0x12b0 cmd/built-in.o
 .debug_aranges
                0x0000000000002510     0x29e0 common/built-in.o
 .debug_aranges
                0x0000000000004ef0      0x360 disk/built-in.o
 .debug_aranges
                0x0000000000005250     0x6350 drivers/built-in.o
 .debug_aranges
                0x000000000000b5a0      0x380 drivers/gpio/built-in.o
 .debug_aranges
                0x000000000000b920      0x1e0 drivers/i2c/built-in.o
 .debug_aranges
                0x000000000000bb00       0xa0 drivers/mtd/spi/built-in.o
 .debug_aranges
                0x000000000000bba0      0x330 drivers/net/built-in.o
 .debug_aranges
                0x000000000000bed0      0x180 drivers/net/phy/built-in.o
 .debug_aranges
                0x000000000000c050      0x120 drivers/power/built-in.o
 .debug_aranges
                0x000000000000c170       0xe0 drivers/power/dvfs/built-in.o
 .debug_aranges
                0x000000000000c250       0xe0 drivers/power/fuel_gauge/built-in.o
 .debug_aranges
                0x000000000000c330      0x100 drivers/power/io-domain/built-in.o
 .debug_aranges
                0x000000000000c430      0x190 drivers/power/pmic/built-in.o
 .debug_aranges
                0x000000000000c5c0      0x4e0 drivers/power/regulator/built-in.o
 .debug_aranges
                0x000000000000caa0      0x390 drivers/serial/built-in.o
 .debug_aranges
                0x000000000000ce30      0x160 drivers/spi/built-in.o
 .debug_aranges
                0x000000000000cf90      0x940 drivers/usb/gadget/built-in.o
 .debug_aranges
                0x000000000000d8d0       0x20 drivers/usb/gadget/udc/built-in.o
 .debug_aranges
                0x000000000000d8f0      0x500 drivers/usb/host/built-in.o
 .debug_aranges
                0x000000000000ddf0      0x2f0 env/built-in.o
 .debug_aranges
                0x000000000000e0e0      0x630 fs/built-in.o
 .debug_aranges
                0x000000000000e710     0x3210 lib/built-in.o
 .debug_aranges
                0x0000000000011920      0x7c0 net/built-in.o
 .debug_aranges
                0x00000000000120e0      0x2d0 test/built-in.o
 .debug_aranges
                0x00000000000123b0       0x70 test/dm/built-in.o

.debug_str      0x0000000000000000    0x3a6c6
 .debug_str     0x0000000000000000       0x7c arch/arm/cpu/armv8/start.o
 .debug_str     0x000000000000007c     0x1093 arch/arm/cpu/armv8/built-in.o
                                       0x31e0 (size before relaxing)
 .debug_str     0x000000000000110f     0x1618 arch/arm/lib/built-in.o
                                       0x5946 (size before relaxing)
 .debug_str     0x0000000000002727     0x4241 arch/arm/mach-rockchip/built-in.o
                                      0x13367 (size before relaxing)
 .debug_str     0x0000000000006968     0x4aeb cmd/built-in.o
                                      0x25cdb (size before relaxing)
 .debug_str     0x000000000000b453     0x8696 common/built-in.o
                                      0x3006e (size before relaxing)
 .debug_str     0x0000000000013ae9      0x772 disk/built-in.o
                                       0x3f3a (size before relaxing)
 .debug_str     0x000000000001425b    0x124be drivers/built-in.o
                                      0x82b8c (size before relaxing)
 .debug_str     0x0000000000026719      0x5a4 drivers/gpio/built-in.o
                                       0x2ab3 (size before relaxing)
 .debug_str     0x0000000000026cbd      0x5e4 drivers/i2c/built-in.o
                                       0x25b8 (size before relaxing)
 .debug_str     0x00000000000272a1      0x654 drivers/mtd/spi/built-in.o
                                       0x1673 (size before relaxing)
 .debug_str     0x00000000000278f5     0x3168 drivers/net/built-in.o
                                       0x6269 (size before relaxing)
 .debug_str     0x000000000002aa5d      0x1cf drivers/net/phy/built-in.o
                                       0x1445 (size before relaxing)
 .debug_str     0x000000000002ac2c      0x509 drivers/power/built-in.o
                                       0x33ab (size before relaxing)
 .debug_str     0x000000000002b135      0x3bf drivers/power/dvfs/built-in.o
                                       0x225f (size before relaxing)
 .debug_str     0x000000000002b4f4      0x140 drivers/power/fuel_gauge/built-in.o
                                       0x1048 (size before relaxing)
 .debug_str     0x000000000002b634      0x37a drivers/power/io-domain/built-in.o
                                       0x20e9 (size before relaxing)
 .debug_str     0x000000000002b9ae      0xd1d drivers/power/pmic/built-in.o
                                       0x2e07 (size before relaxing)
 .debug_str     0x000000000002c6cb      0xa09 drivers/power/regulator/built-in.o
                                       0x59ed (size before relaxing)
 .debug_str     0x000000000002d0d4      0x528 drivers/serial/built-in.o
                                       0x244a (size before relaxing)
 .debug_str     0x000000000002d5fc      0x237 drivers/spi/built-in.o
                                       0x1308 (size before relaxing)
 .debug_str     0x000000000002d833     0x288b drivers/usb/gadget/built-in.o
                                       0xa579 (size before relaxing)
 .debug_str     0x00000000000300be       0x4f drivers/usb/gadget/udc/built-in.o
                                        0xe2e (size before relaxing)
 .debug_str     0x000000000003010d      0xed1 drivers/usb/host/built-in.o
                                       0x7e6a (size before relaxing)
 .debug_str     0x0000000000030fde      0x5ff env/built-in.o
                                       0x4045 (size before relaxing)
 .debug_str     0x00000000000315dd     0x13ed fs/built-in.o
                                       0x5c87 (size before relaxing)
 .debug_str     0x00000000000329ca     0x6199 lib/built-in.o
                                      0x2d88b (size before relaxing)
 .debug_str     0x0000000000038b63     0x1478 net/built-in.o
                                       0xa549 (size before relaxing)
 .debug_str     0x0000000000039fdb      0x65f test/built-in.o
                                       0x71d1 (size before relaxing)
 .debug_str     0x000000000003a63a       0x8c test/dm/built-in.o
                                        0xf4e (size before relaxing)

.comment        0x0000000000000000       0x5d
 .comment       0x0000000000000000       0x5d arch/arm/cpu/armv8/built-in.o
                                        0x234 (size before relaxing)
 .comment       0x000000000000005d      0x2f0 arch/arm/lib/built-in.o
 .comment       0x000000000000005d      0x6fa arch/arm/mach-rockchip/built-in.o
 .comment       0x000000000000005d     0x10e4 cmd/built-in.o
 .comment       0x000000000000005d      0xfca common/built-in.o
 .comment       0x000000000000005d      0x178 disk/built-in.o
 .comment       0x000000000000005d     0x2806 drivers/built-in.o
 .comment       0x000000000000005d       0xbc drivers/gpio/built-in.o
 .comment       0x000000000000005d       0xbc drivers/i2c/built-in.o
 .comment       0x000000000000005d       0x5e drivers/mtd/spi/built-in.o
 .comment       0x000000000000005d       0xbc drivers/net/built-in.o
 .comment       0x000000000000005d       0x5e drivers/net/phy/built-in.o
 .comment       0x000000000000005d      0x11a drivers/power/built-in.o
 .comment       0x000000000000005d       0xbc drivers/power/dvfs/built-in.o
 .comment       0x000000000000005d       0x5e drivers/power/fuel_gauge/built-in.o
 .comment       0x000000000000005d       0xbc drivers/power/io-domain/built-in.o
 .comment       0x000000000000005d       0xbc drivers/power/pmic/built-in.o
 .comment       0x000000000000005d      0x178 drivers/power/regulator/built-in.o
 .comment       0x000000000000005d       0xbc drivers/serial/built-in.o
 .comment       0x000000000000005d       0x5e drivers/spi/built-in.o
 .comment       0x000000000000005d      0x292 drivers/usb/gadget/built-in.o
 .comment       0x000000000000005d       0x5e drivers/usb/gadget/udc/built-in.o
 .comment       0x000000000000005d      0x1d6 drivers/usb/host/built-in.o
 .comment       0x000000000000005d      0x234 env/built-in.o
 .comment       0x000000000000005d      0x234 fs/built-in.o
 .comment       0x000000000000005d     0x1ff2 lib/built-in.o
 .comment       0x000000000000005d      0x34e net/built-in.o
 .comment       0x000000000000005d      0x2f0 test/built-in.o
 .comment       0x000000000000005d       0x5e test/dm/built-in.o

.note.GNU-stack
                0x0000000000000000        0x0
 .note.GNU-stack
                0x0000000000000000        0x0 arch/arm/cpu/armv8/built-in.o
 .note.GNU-stack
                0x0000000000000000        0x0 arch/arm/lib/built-in.o
 .note.GNU-stack
                0x0000000000000000        0x0 arch/arm/mach-rockchip/built-in.o
 .note.GNU-stack
                0x0000000000000000        0x0 cmd/built-in.o
 .note.GNU-stack
                0x0000000000000000        0x0 common/built-in.o
 .note.GNU-stack
                0x0000000000000000        0x0 disk/built-in.o
 .note.GNU-stack
                0x0000000000000000        0x0 drivers/built-in.o
 .note.GNU-stack
                0x0000000000000000        0x0 drivers/gpio/built-in.o
 .note.GNU-stack
                0x0000000000000000        0x0 drivers/i2c/built-in.o
 .note.GNU-stack
                0x0000000000000000        0x0 drivers/mtd/spi/built-in.o
 .note.GNU-stack
                0x0000000000000000        0x0 drivers/net/built-in.o
 .note.GNU-stack
                0x0000000000000000        0x0 drivers/net/phy/built-in.o
 .note.GNU-stack
                0x0000000000000000        0x0 drivers/power/built-in.o
 .note.GNU-stack
                0x0000000000000000        0x0 drivers/power/dvfs/built-in.o
 .note.GNU-stack
                0x0000000000000000        0x0 drivers/power/fuel_gauge/built-in.o
 .note.GNU-stack
                0x0000000000000000        0x0 drivers/power/io-domain/built-in.o
 .note.GNU-stack
                0x0000000000000000        0x0 drivers/power/pmic/built-in.o
 .note.GNU-stack
                0x0000000000000000        0x0 drivers/power/regulator/built-in.o
 .note.GNU-stack
                0x0000000000000000        0x0 drivers/serial/built-in.o
 .note.GNU-stack
                0x0000000000000000        0x0 drivers/spi/built-in.o
 .note.GNU-stack
                0x0000000000000000        0x0 drivers/usb/gadget/built-in.o
 .note.GNU-stack
                0x0000000000000000        0x0 drivers/usb/gadget/udc/built-in.o
 .note.GNU-stack
                0x0000000000000000        0x0 drivers/usb/host/built-in.o
 .note.GNU-stack
                0x0000000000000000        0x0 env/built-in.o
 .note.GNU-stack
                0x0000000000000000        0x0 fs/built-in.o
 .note.GNU-stack
                0x0000000000000000        0x0 lib/built-in.o
 .note.GNU-stack
                0x0000000000000000        0x0 net/built-in.o
 .note.GNU-stack
                0x0000000000000000        0x0 test/built-in.o
 .note.GNU-stack
                0x0000000000000000        0x0 test/dm/built-in.o

.debug_loc      0x0000000000000000   0x231698
 .debug_loc     0x0000000000000000     0x2fa4 arch/arm/cpu/armv8/built-in.o
 .debug_loc     0x0000000000002fa4     0x11fb arch/arm/lib/built-in.o
 .debug_loc     0x000000000000419f     0xb89f arch/arm/mach-rockchip/built-in.o
 .debug_loc     0x000000000000fa3e    0x25530 cmd/built-in.o
 .debug_loc     0x0000000000034f6e    0x524e3 common/built-in.o
 .debug_loc     0x0000000000087451     0x74cc disk/built-in.o
 .debug_loc     0x000000000008e91d    0xced3f drivers/built-in.o
 .debug_loc     0x000000000015d65c     0x4895 drivers/gpio/built-in.o
 .debug_loc     0x0000000000161ef1     0x4863 drivers/i2c/built-in.o
 .debug_loc     0x0000000000166754      0x6f6 drivers/mtd/spi/built-in.o
 .debug_loc     0x0000000000166e4a     0x4a27 drivers/net/built-in.o
 .debug_loc     0x000000000016b871     0x35c8 drivers/net/phy/built-in.o
 .debug_loc     0x000000000016ee39     0x2a13 drivers/power/built-in.o
 .debug_loc     0x000000000017184c     0x20e4 drivers/power/dvfs/built-in.o
 .debug_loc     0x0000000000173930      0xbf8 drivers/power/fuel_gauge/built-in.o
 .debug_loc     0x0000000000174528      0xda2 drivers/power/io-domain/built-in.o
 .debug_loc     0x00000000001752ca     0x2c4a drivers/power/pmic/built-in.o
 .debug_loc     0x0000000000177f14     0x6b1f drivers/power/regulator/built-in.o
 .debug_loc     0x000000000017ea33     0x2f19 drivers/serial/built-in.o
 .debug_loc     0x000000000018194c     0x21d4 drivers/spi/built-in.o
 .debug_loc     0x0000000000183b20    0x1bfd2 drivers/usb/gadget/built-in.o
 .debug_loc     0x000000000019faf2    0x11673 drivers/usb/host/built-in.o
 .debug_loc     0x00000000001b1165     0x2ca2 env/built-in.o
 .debug_loc     0x00000000001b3e07     0xe80f fs/built-in.o
 .debug_loc     0x00000000001c2616    0x5f168 lib/built-in.o
 .debug_loc     0x000000000022177e     0xb145 net/built-in.o
 .debug_loc     0x000000000022c8c3     0x47e1 test/built-in.o
 .debug_loc     0x00000000002310a4      0x5f4 test/dm/built-in.o

.debug_ranges   0x0000000000000000    0x4ab30
 .debug_ranges  0x0000000000000000      0xcb0 arch/arm/cpu/armv8/built-in.o
 .debug_ranges  0x0000000000000cb0      0x370 arch/arm/lib/built-in.o
 .debug_ranges  0x0000000000001020     0x16f0 arch/arm/mach-rockchip/built-in.o
 .debug_ranges  0x0000000000002710     0x3af0 cmd/built-in.o
 .debug_ranges  0x0000000000006200     0x9070 common/built-in.o
 .debug_ranges  0x000000000000f270      0xd20 disk/built-in.o
 .debug_ranges  0x000000000000ff90    0x236e0 drivers/built-in.o
 .debug_ranges  0x0000000000033670      0x500 drivers/gpio/built-in.o
 .debug_ranges  0x0000000000033b70      0x750 drivers/i2c/built-in.o
 .debug_ranges  0x00000000000342c0       0x90 drivers/mtd/spi/built-in.o
 .debug_ranges  0x0000000000034350      0x990 drivers/net/built-in.o
 .debug_ranges  0x0000000000034ce0      0x9d0 drivers/net/phy/built-in.o
 .debug_ranges  0x00000000000356b0      0x450 drivers/power/built-in.o
 .debug_ranges  0x0000000000035b00      0x5f0 drivers/power/dvfs/built-in.o
 .debug_ranges  0x00000000000360f0       0xd0 drivers/power/fuel_gauge/built-in.o
 .debug_ranges  0x00000000000361c0      0x170 drivers/power/io-domain/built-in.o
 .debug_ranges  0x0000000000036330      0x330 drivers/power/pmic/built-in.o
 .debug_ranges  0x0000000000036660      0x860 drivers/power/regulator/built-in.o
 .debug_ranges  0x0000000000036ec0      0xa90 drivers/serial/built-in.o
 .debug_ranges  0x0000000000037950      0x2b0 drivers/spi/built-in.o
 .debug_ranges  0x0000000000037c00     0x4cf0 drivers/usb/gadget/built-in.o
 .debug_ranges  0x000000000003c8f0     0x1d60 drivers/usb/host/built-in.o
 .debug_ranges  0x000000000003e650      0x5a0 env/built-in.o
 .debug_ranges  0x000000000003ebf0     0x16b0 fs/built-in.o
 .debug_ranges  0x00000000000402a0     0x8620 lib/built-in.o
 .debug_ranges  0x00000000000488c0     0x1be0 net/built-in.o
 .debug_ranges  0x000000000004a4a0      0x630 test/built-in.o
 .debug_ranges  0x000000000004aad0       0x60 test/dm/built-in.o
